Archive member included to satisfy reference by file (symbol)

/home/industio/ssd20x/gcc-arm-8.2-2018.08-x86_64-arm-linux-gnueabihf/bin/../lib/gcc/arm-linux-gnueabihf/8.2.1/libgcc.a(_udivsi3.o)
                              arch/arm/cpu/armv7/built-in.o (__aeabi_uidiv)
/home/industio/ssd20x/gcc-arm-8.2-2018.08-x86_64-arm-linux-gnueabihf/bin/../lib/gcc/arm-linux-gnueabihf/8.2.1/libgcc.a(_divsi3.o)
                              common/built-in.o (__aeabi_idiv)
/home/industio/ssd20x/gcc-arm-8.2-2018.08-x86_64-arm-linux-gnueabihf/bin/../lib/gcc/arm-linux-gnueabihf/8.2.1/libgcc.a(_arm_addsubdf3.o)
                              drivers/built-in.o (__aeabi_ui2d)
/home/industio/ssd20x/gcc-arm-8.2-2018.08-x86_64-arm-linux-gnueabihf/bin/../lib/gcc/arm-linux-gnueabihf/8.2.1/libgcc.a(_arm_muldivdf3.o)
                              drivers/built-in.o (__aeabi_dmul)
/home/industio/ssd20x/gcc-arm-8.2-2018.08-x86_64-arm-linux-gnueabihf/bin/../lib/gcc/arm-linux-gnueabihf/8.2.1/libgcc.a(_arm_truncdfsf2.o)
                              drivers/built-in.o (__aeabi_d2f)
/home/industio/ssd20x/gcc-arm-8.2-2018.08-x86_64-arm-linux-gnueabihf/bin/../lib/gcc/arm-linux-gnueabihf/8.2.1/libgcc.a(_arm_addsubsf3.o)
                              drivers/built-in.o (__aeabi_fsub)
/home/industio/ssd20x/gcc-arm-8.2-2018.08-x86_64-arm-linux-gnueabihf/bin/../lib/gcc/arm-linux-gnueabihf/8.2.1/libgcc.a(_arm_muldivsf3.o)
                              common/built-in.o (__aeabi_fmul)
/home/industio/ssd20x/gcc-arm-8.2-2018.08-x86_64-arm-linux-gnueabihf/bin/../lib/gcc/arm-linux-gnueabihf/8.2.1/libgcc.a(_arm_fixsfsi.o)
                              drivers/built-in.o (__aeabi_f2iz)
/home/industio/ssd20x/gcc-arm-8.2-2018.08-x86_64-arm-linux-gnueabihf/bin/../lib/gcc/arm-linux-gnueabihf/8.2.1/libgcc.a(_arm_fixunssfsi.o)
                              common/built-in.o (__aeabi_f2uiz)
/home/industio/ssd20x/gcc-arm-8.2-2018.08-x86_64-arm-linux-gnueabihf/bin/../lib/gcc/arm-linux-gnueabihf/8.2.1/libgcc.a(_dvmd_lnx.o)
                              /home/industio/ssd20x/gcc-arm-8.2-2018.08-x86_64-arm-linux-gnueabihf/bin/../lib/gcc/arm-linux-gnueabihf/8.2.1/libgcc.a(_udivsi3.o) (__aeabi_idiv0)

Discarded input sections

 .data          0x0000000000000000        0x0 arch/arm/cpu/armv7/start.o
 .bss           0x0000000000000000        0x0 arch/arm/cpu/armv7/start.o
 .text.mmu_page_table_flush
                0x0000000000000000       0x24 arch/arm/cpu/armv7/built-in.o
 .text.v7_outer_cache_inval_range
                0x0000000000000000        0x4 arch/arm/cpu/armv7/built-in.o
 .text.invalidate_dcache_range
                0x0000000000000000       0xac arch/arm/cpu/armv7/built-in.o
 .text.sdelay   0x0000000000000000        0xc arch/arm/cpu/armv7/built-in.o
 .text.wait_on_value
                0x0000000000000000       0x34 arch/arm/cpu/armv7/built-in.o
 .text.ms_check_chip
                0x0000000000000000        0x8 arch/arm/cpu/armv7/built-in.o
 .text.reset_timer
                0x0000000000000000        0x4 arch/arm/cpu/armv7/built-in.o
 .text.set_timer
                0x0000000000000000        0x4 arch/arm/cpu/armv7/built-in.o
 .text.reset_timer_masked
                0x0000000000000000        0x4 arch/arm/cpu/armv7/built-in.o
 .text.get_timer_masked
                0x0000000000000000        0x8 arch/arm/cpu/armv7/built-in.o
 .text.udelay_masked
                0x0000000000000000        0x4 arch/arm/cpu/armv7/built-in.o
 .rodata.__func__.6359
                0x0000000000000000       0x16 arch/arm/cpu/armv7/built-in.o
 .rodata.invalidate_dcache_range.str1.1
                0x0000000000000000       0x65 arch/arm/cpu/armv7/built-in.o
 .data          0x0000000000000000        0x0 arch/arm/cpu/armv7/built-in.o
 .bss           0x0000000000000000        0x0 arch/arm/cpu/armv7/built-in.o
 .text.flush_cache
                0x0000000000000000        0x4 arch/arm/lib/built-in.o
 .text.flush_dcache_all
                0x0000000000000000        0xc arch/arm/lib/built-in.o
 .text.arm_init_before_mmu
                0x0000000000000000        0x4 arch/arm/lib/built-in.o
 .text.mmu_page_table_flush
                0x0000000000000000        0x4 arch/arm/lib/built-in.o
 .text.mmu_set_region_dcache_behaviour
                0x0000000000000000       0x4c arch/arm/lib/built-in.o
 .data          0x0000000000000000        0x0 arch/arm/lib/built-in.o
 .__secure_end  0x0000000000000000        0x0 arch/arm/lib/built-in.o
 .__secure_start
                0x0000000000000000        0x0 arch/arm/lib/built-in.o
 .bss           0x0000000000000000        0x0 arch/arm/lib/built-in.o
 .text          0x0000000000000000        0x0 common/built-in.o
 .text.hash_finish_crc32
                0x0000000000000000       0x30 common/built-in.o
 .text.hash_update_crc32
                0x0000000000000000       0x24 common/built-in.o
 .text.hash_init_crc32
                0x0000000000000000       0x24 common/built-in.o
 .text.hash_lookup_algo
                0x0000000000000000       0x28 common/built-in.o
 .text.hash_show
                0x0000000000000000       0x54 common/built-in.o
 .text.hash_block
                0x0000000000000000       0x6c common/built-in.o
 .text.get_partition_size
                0x0000000000000000       0x64 common/built-in.o
 .text.arch_cpu_init
                0x0000000000000000        0x8 common/built-in.o
 .text.red_led_off
                0x0000000000000000        0x4 common/built-in.o
 .text.green_led_on
                0x0000000000000000        0x4 common/built-in.o
 .text.green_led_off
                0x0000000000000000        0x4 common/built-in.o
 .text.yellow_led_on
                0x0000000000000000        0x4 common/built-in.o
 .text.yellow_led_off
                0x0000000000000000        0x4 common/built-in.o
 .text.blue_led_on
                0x0000000000000000        0x4 common/built-in.o
 .text.blue_led_off
                0x0000000000000000        0x4 common/built-in.o
 .text.board_flash_wp_on
                0x0000000000000000        0x8 common/built-in.o
 .text.fixup_cpu
                0x0000000000000000        0x8 common/built-in.o
 .text.env_flags_parse_varaccess_from_binflags
                0x0000000000000000       0x28 common/built-in.o
 .text.invalidate_icache_all
                0x0000000000000000        0xc common/built-in.o
 .text.flush_dcache_all
                0x0000000000000000        0xc common/built-in.o
 .text.eeprom_probe
                0x0000000000000000        0xc common/built-in.o
 .text._getsysts
                0x0000000000000000        0x8 common/built-in.o
 .text.do_tftpput
                0x0000000000000000        0xc common/built-in.o
 .text.ubi_mwrite
                0x0000000000000000      0x194 common/built-in.o
 .text.usb_submit_int_msg
                0x0000000000000000       0x38 common/built-in.o
 .text.usb_set_protocol
                0x0000000000000000       0x4c common/built-in.o
 .text.usb_set_idle
                0x0000000000000000       0x54 common/built-in.o
 .text.usb_get_report
                0x0000000000000000       0x5c common/built-in.o
 .text.usb_get_class_descriptor
                0x0000000000000000       0x5c common/built-in.o
 .text.usb_free_device
                0x0000000000000000       0x48 common/built-in.o
 .text.usb_clear_hub_feature
                0x0000000000000000       0x48 common/built-in.o
 .text.usb_hub_reset
                0x0000000000000000       0x14 common/built-in.o
 .text.usb_set_u3_chk_conn_time
                0x0000000000000000       0x28 common/built-in.o
 .text.usb_preinit
                0x0000000000000000       0xa4 common/built-in.o
 .text.board_usb_init
                0x0000000000000000        0x8 common/built-in.o
 .text.blit32_TextNExplicit
                0x0000000000000000      0x300 common/built-in.o
 .text.drawRect_rgb32
                0x0000000000000000       0x4c common/built-in.o
 .text.drawRect_rgb12
                0x0000000000000000       0x78 common/built-in.o
 .text.drawRect_rgb15
                0x0000000000000000       0x78 common/built-in.o
 .text.do_bootfb_bar
                0x0000000000000000      0x258 common/built-in.o
 .text.do_bootfb_progress
                0x0000000000000000      0x3f4 common/built-in.o
 .text.do_bootfb_blank
                0x0000000000000000       0x18 common/built-in.o
 .text.splash_screen_prepare
                0x0000000000000000        0x8 common/built-in.o
 .text.getenv_hex
                0x0000000000000000       0x38 common/built-in.o
 .text.serial_printf
                0x0000000000000000       0x4c common/built-in.o
 .text.fputc    0x0000000000000000       0x1c common/built-in.o
 .text.fputs    0x0000000000000000       0x1c common/built-in.o
 .text.fprintf  0x0000000000000000       0x54 common/built-in.o
 .text.realloc  0x0000000000000000      0x4ac common/built-in.o
 .text.valloc   0x0000000000000000        0xc common/built-in.o
 .text.pvalloc  0x0000000000000000       0x18 common/built-in.o
 .text.cfree    0x0000000000000000        0x4 common/built-in.o
 .text.malloc_usable_size
                0x0000000000000000       0x44 common/built-in.o
 .text.mallopt  0x0000000000000000       0x54 common/built-in.o
 .text.getenv_bootm_mapsize
                0x0000000000000000       0x30 common/built-in.o
 .text.get_table_entry_id
                0x0000000000000000       0x4c common/built-in.o
 .text.genimg_get_os_id
                0x0000000000000000       0x18 common/built-in.o
 .text.genimg_get_arch_id
                0x0000000000000000       0x18 common/built-in.o
 .text.genimg_get_type_id
                0x0000000000000000       0x18 common/built-in.o
 .text.genimg_get_comp_id
                0x0000000000000000       0x18 common/built-in.o
 .text.genimg_get_kernel_addr
                0x0000000000000000       0x24 common/built-in.o
 .text.genimg_has_config
                0x0000000000000000        0x8 common/built-in.o
 .text.image_setup_linux
                0x0000000000000000       0x2c common/built-in.o
 .text.get_ram_size
                0x0000000000000000       0xf0 common/built-in.o
 .text.stdio_init
                0x0000000000000000       0x14 common/built-in.o
 .text.cmd_process_error
                0x0000000000000000       0x30 common/built-in.o
 .text.hex1_bin
                0x0000000000000000       0x40 common/built-in.o
 .text.hex2_bin
                0x0000000000000000       0x38 common/built-in.o
 .text.srec_decode
                0x0000000000000000      0x244 common/built-in.o
 .text.image_set_encrypt_flag
                0x0000000000000000        0xc common/built-in.o
 .text.memcpy_4byte
                0x0000000000000000       0x28 common/built-in.o
 .text.chip_flush_miu_pipe
                0x0000000000000000       0x28 common/built-in.o
 .text.DrawProgressBar
                0x0000000000000000        0xc common/built-in.o
 .text.do_prepare_power_saving_mode_queue
                0x0000000000000000        0x4 common/built-in.o
 .text.WaitTime
                0x0000000000000000       0x24 common/built-in.o
 .text.msKeypad_CH_GetKey
                0x0000000000000000      0x12c common/built-in.o
 .text.Spi_Gpio_SetCmd
                0x0000000000000000       0x98 common/built-in.o
 .text.init_param
                0x0000000000000000       0x34 common/built-in.o
 .text.init_cmd
                0x0000000000000000       0x34 common/built-in.o
 .text.spi_panel_init
                0x0000000000000000      0x288 common/built-in.o
 .text.init_panel
                0x0000000000000000        0x4 common/built-in.o
 .text.sar_keypad_test
                0x0000000000000000       0x34 common/built-in.o
 .text.get_boot_mode_from_keypad
                0x0000000000000000       0xe8 common/built-in.o
 .text.do_bootcheck
                0x0000000000000000       0x48 common/built-in.o
 .text._dump    0x0000000000000000       0x60 common/built-in.o
 .rodata.hash_show.str1.1
                0x0000000000000000       0x21 common/built-in.o
 .rodata.get_partition_size.str1.1
                0x0000000000000000       0x13 common/built-in.o
 .rodata.flush_dcache_all.str1.1
                0x0000000000000000       0x2e common/built-in.o
 .rodata.invalidate_icache_all.str1.1
                0x0000000000000000       0x33 common/built-in.o
 .rodata.__func__.8790
                0x0000000000000000        0xb common/built-in.o
 .rodata.ubi_mwrite.str1.1
                0x0000000000000000       0xb9 common/built-in.o
 .rodata.usb_set_u3_chk_conn_time.str1.1
                0x0000000000000000       0x2c common/built-in.o
 .rodata.__FUNCTION__.9945
                0x0000000000000000        0xe common/built-in.o
 .rodata.do_bootfb_bar.str1.1
                0x0000000000000000       0x43 common/built-in.o
 .rodata.do_bootfb_progress.str1.1
                0x0000000000000000       0x2d common/built-in.o
 .rodata.genimg_get_arch_id.str1.1
                0x0000000000000000        0x4 common/built-in.o
 .rodata.genimg_get_comp_id.str1.1
                0x0000000000000000        0xc common/built-in.o
 .rodata.genimg_get_os_id.str1.1
                0x0000000000000000        0x3 common/built-in.o
 .rodata.genimg_get_type_id.str1.1
                0x0000000000000000        0x6 common/built-in.o
 .rodata.getenv_bootm_mapsize.str1.1
                0x0000000000000000        0xe common/built-in.o
 .rodata.cmd_process_error.str1.1
                0x0000000000000000       0x1f common/built-in.o
 .rodata.DrawProgressBar.str1.1
                0x0000000000000000        0x2 common/built-in.o
 .rodata.do_bootcheck.str1.1
                0x0000000000000000       0x26 common/built-in.o
 .rodata.get_boot_mode_from_keypad.str1.1
                0x0000000000000000       0x79 common/built-in.o
 .rodata.m_KpdConfig
                0x0000000000000000      0x120 common/built-in.o
 .rodata.sar_keypad_test.str1.1
                0x0000000000000000        0xf common/built-in.o
 .rodata._dump.str1.1
                0x0000000000000000        0xb common/built-in.o
 .data          0x0000000000000000        0x0 common/built-in.o
 .data.hash_algo
                0x0000000000000000       0x1c common/built-in.o
 .data.Blit32   0x0000000000000000      0x1a8 common/built-in.o
 .data.dbgModule
                0x0000000000000000        0x4 common/built-in.o
 .bss           0x0000000000000000        0x0 common/built-in.o
 .bss.bInited.9953
                0x0000000000000000        0x1 common/built-in.o
 .bss.u8Completed.9954
                0x0000000000000000        0x1 common/built-in.o
 .bss.u8PreMsgLen.9955
                0x0000000000000000        0x1 common/built-in.o
 .text          0x0000000000000000        0x0 disk/built-in.o
 .data          0x0000000000000000        0x0 disk/built-in.o
 .bss           0x0000000000000000        0x0 disk/built-in.o
 .text          0x0000000000000000        0x0 drivers/built-in.o
 .text.input_tstc
                0x0000000000000000       0x48 drivers/built-in.o
 .text.input_getc
                0x0000000000000000       0x58 drivers/built-in.o
 .text.input_send_keycodes
                0x0000000000000000      0x3a0 drivers/built-in.o
 .text.input_add_table
                0x0000000000000000       0x40 drivers/built-in.o
 .text.input_set_delays
                0x0000000000000000        0xc drivers/built-in.o
 .text.input_init
                0x0000000000000000       0xdc drivers/built-in.o
 .text.input_stdio_register
                0x0000000000000000       0x54 drivers/built-in.o
 .text.Hal_SDMMC_SetSDIOIntDet
                0x0000000000000000       0x10 drivers/built-in.o
 .text.Hal_SDMMC_RunBrokenDmaAndWaitProcess
                0x0000000000000000       0xc4 drivers/built-in.o
 .text.Hal_SDMMC_WaitProcessCtrl
                0x0000000000000000       0x10 drivers/built-in.o
 .text.Hal_SDMMC_OtherPreUse
                0x0000000000000000       0x40 drivers/built-in.o
 .text.Hal_SDMMC_DumpMemTool
                0x0000000000000000       0xb4 drivers/built-in.o
 .text.Hal_SDMMC_GetDATBusLevel
                0x0000000000000000       0x18 drivers/built-in.o
 .text.Hal_SDMMC_GetMIEEvent
                0x0000000000000000       0x14 drivers/built-in.o
 .text.Hal_CARD_IPEndSetting
                0x0000000000000000        0x4 drivers/built-in.o
 .text.Hal_CARD_SetGPIOState
                0x0000000000000000        0x4 drivers/built-in.o
 .text.Hal_CARD_GetGPIONum
                0x0000000000000000        0x8 drivers/built-in.o
 .text.Hal_CARD_SetGPIOIntAttr
                0x0000000000000000        0x4 drivers/built-in.o
 .text.Hal_CARD_GPIOIntFilter
                0x0000000000000000        0x8 drivers/built-in.o
 .text._PRT_VALUE
                0x0000000000000000        0xc drivers/built-in.o
 .text._SDMMC_hw_timer_delay
                0x0000000000000000       0x14 drivers/built-in.o
 .text._HAL_ISP_Enable
                0x0000000000000000       0x1c drivers/built-in.o
 .text._HAL_ISP_Disable
                0x0000000000000000       0x48 drivers/built-in.o
 .text._HAL_SERFLASH_WaitReadDataRdy
                0x0000000000000000       0x68 drivers/built-in.o
 .text._HAL_SERFLASH_WaitWriteDataRdy
                0x0000000000000000       0x68 drivers/built-in.o
 .text._HAL_SERFLASH_WaitWriteCmdRdy
                0x0000000000000000       0x68 drivers/built-in.o
 .text._HAL_SERFLASH_WaitWriteDone
                0x0000000000000000       0xa4 drivers/built-in.o
 .text.HAL_SERFLASH_SetCKG
                0x0000000000000000        0x8 drivers/built-in.o
 .text.HAL_SERFLASH_SetMode
                0x0000000000000000        0x8 drivers/built-in.o
 .text.HAL_SERFLASH_ChipSelect
                0x0000000000000000       0xc8 drivers/built-in.o
 .text.HAL_SERFLASH_SetGPIO
                0x0000000000000000       0x28 drivers/built-in.o
 .text.HAL_SERFLASH_WP_Area_Existed
                0x0000000000000000      0x100 drivers/built-in.o
 .text.HAL_SERFLASH_SPSNDYB_UNLOCK
                0x0000000000000000      0x248 drivers/built-in.o
 .text.HAL_SERFLASH_ReadUID
                0x0000000000000000      0x27c drivers/built-in.o
 .text.HAL_SPI_EnterIBPM
                0x0000000000000000      0x114 drivers/built-in.o
 .text.HAL_SPI_SingleBlockLock
                0x0000000000000000      0x13c drivers/built-in.o
 .text.HAL_SPI_GangBlockLock
                0x0000000000000000      0x140 drivers/built-in.o
 .text.HAL_SPI_ReadBlockStatus
                0x0000000000000000      0x13c drivers/built-in.o
 .text.HAL_FSP_EraseChip
                0x0000000000000000      0x128 drivers/built-in.o
 .text.HAL_SERFLASH_EraseChip
                0x0000000000000000       0x74 drivers/built-in.o
 .text.HAL_FSP_CheckWriteDone
                0x0000000000000000      0x130 drivers/built-in.o
 .text.HAL_SERFLASH_CheckWriteDone
                0x0000000000000000       0x50 drivers/built-in.o
 .text.HAL_FSP_Write_Burst
                0x0000000000000000      0x2fc drivers/built-in.o
 .text.HAL_QPI_Enable
                0x0000000000000000       0xb4 drivers/built-in.o
 .text.HAL_QPI_RESET
                0x0000000000000000       0xb4 drivers/built-in.o
 .text.HAL_FSP_Write_Egine
                0x0000000000000000      0x19c drivers/built-in.o
 .text.HAL_FSP_Write
                0x0000000000000000       0x84 drivers/built-in.o
 .text.HAL_FSP_BurstRead
                0x0000000000000000      0x218 drivers/built-in.o
 .text.HAL_FSP_WriteProtect_Area
                0x0000000000000000       0xc0 drivers/built-in.o
 .text.HAL_SERFLASH_WriteProtect_Area
                0x0000000000000000       0x8c drivers/built-in.o
 .text.HAL_FSP_ReadStatusReg
                0x0000000000000000      0x158 drivers/built-in.o
 .text.HAL_SERFLASH_ReadStatusReg
                0x0000000000000000        0x4 drivers/built-in.o
 .text.HAL_FSP_ReadStatusReg2
                0x0000000000000000      0x158 drivers/built-in.o
 .text.HAL_SERFLASH_ReadStatusReg2
                0x0000000000000000       0x58 drivers/built-in.o
 .text.HAL_SERFLASH_ReadREMS
                0x0000000000000000        0x4 drivers/built-in.o
 .text.HAL_SERFLASH_WriteStatusReg
                0x0000000000000000       0x58 drivers/built-in.o
 .text.HAL_SERFLASH_Set2XREAD
                0x0000000000000000       0xac drivers/built-in.o
 .text.HAL_MAP_Read
                0x0000000000000000       0x90 drivers/built-in.o
 .text.MDrv_MAP_Read
                0x0000000000000000       0x5c drivers/built-in.o
 .text.MDrv_SERFLASH_GetInfo
                0x0000000000000000       0x44 drivers/built-in.o
 .text.MDrv_SERFLASH_GetLibVer
                0x0000000000000000        0x8 drivers/built-in.o
 .text.MDrv_SERFLASH_GetStatus
                0x0000000000000000       0x1c drivers/built-in.o
 .text.MDrv_SERFLASH_SetDbgLevel
                0x0000000000000000       0x14 drivers/built-in.o
 .text.MDrv_SERFLASH_SetMcuCSCallBack
                0x0000000000000000       0x10 drivers/built-in.o
 .text.MDrv_SERFLASH_DetectType
                0x0000000000000000       0x34 drivers/built-in.o
 .text.MDrv_SERFLASH_Set2XRead
                0x0000000000000000       0x3c drivers/built-in.o
 .text.MDrv_SERFLASH_SetCKG
                0x0000000000000000       0x3c drivers/built-in.o
 .text.MDrv_SERFLASH_ClkDiv
                0x0000000000000000       0x3c drivers/built-in.o
 .text.MDrv_SERFLASH_SetMode
                0x0000000000000000       0x3c drivers/built-in.o
 .text.MDrv_SERFLASH_ChipSelect
                0x0000000000000000       0x3c drivers/built-in.o
 .text.MDrv_SERFLASH_EraseChip
                0x0000000000000000       0x34 drivers/built-in.o
 .text.MDrv_SERFLASH_BlockToAddress
                0x0000000000000000       0x4c drivers/built-in.o
 .text.MDrv_SERFLASH_CheckWriteDone
                0x0000000000000000       0x34 drivers/built-in.o
 .text.MDrv_SERFLASH_WriteProtect_Enable_All_Range
                0x0000000000000000       0x44 drivers/built-in.o
 .text.MDrv_SERFLASH_WriteProtect_Disable_Range_Set
                0x0000000000000000      0x130 drivers/built-in.o
 .text.MDrv_SERFLASH_WriteProtect_Disable_All_Range
                0x0000000000000000       0x54 drivers/built-in.o
 .text.MDrv_SERFLASH_WriteProtect_Area
                0x0000000000000000       0x4c drivers/built-in.o
 .text.MDrv_SERFLASH_ReadID
                0x0000000000000000       0x4c drivers/built-in.o
 .text.MDrv_SERFLASH_ReadStatusRegister
                0x0000000000000000       0x3c drivers/built-in.o
 .text.MDrv_SERFLASH_ReadStatusRegister2
                0x0000000000000000       0x3c drivers/built-in.o
 .text.MDrv_SERFLASH_WriteStatusRegister
                0x0000000000000000       0x3c drivers/built-in.o
 .text.MDrv_SERFLASH_SetGPIO
                0x0000000000000000        0x4 drivers/built-in.o
 .text.MS_SERFLASH_DELETE_MUTEX
                0x0000000000000000        0x8 drivers/built-in.o
 .text.HAL_AESDMA_Disable
                0x0000000000000000       0x1c drivers/built-in.o
 .text.HAL_RSA_ClearInt
                0x0000000000000000       0x18 drivers/built-in.o
 .text.HAL_RSA_LoadSignInverse
                0x0000000000000000       0x64 drivers/built-in.o
 .text.HAL_RSA_LoadKeyEInverse
                0x0000000000000000       0x64 drivers/built-in.o
 .text.HAL_RSA_LoadKeyN
                0x0000000000000000       0x68 drivers/built-in.o
 .text.runDecrypt
                0x0000000000000000       0x88 drivers/built-in.o
 .text.HAL_FSP_GET_SPINAND_STATUS
                0x0000000000000000       0x90 drivers/built-in.o
 .text.HAL_SPINAND_Config
                0x0000000000000000       0x7c drivers/built-in.o
 .text.HAL_SPINAND_PreHandle
                0x0000000000000000       0xb0 drivers/built-in.o
 .text.HAL_SPINAND_SetMode
                0x0000000000000000      0x124 drivers/built-in.o
 .text.HAL_SPINAND_PROGRAM_BY_BDMA4
                0x0000000000000000      0x1d0 drivers/built-in.o
 .text.MDrv_SPINAND_SetMode
                0x0000000000000000        0x4 drivers/built-in.o
 .text.MDrv_SPINAND_ReadID
                0x0000000000000000       0x10 drivers/built-in.o
 .text.SpiNandMain
                0x0000000000000000       0x18 drivers/built-in.o
 .text.dumpPartition
                0x0000000000000000       0xb4 drivers/built-in.o
 .text.MDrv_SPINAND_IsGoodBlk
                0x0000000000000000       0x60 drivers/built-in.o
 .text.dump_mem
                0x0000000000000000       0xa0 drivers/built-in.o
 .text.dumpInformation
                0x0000000000000000       0xc0 drivers/built-in.o
 .text.MsOS_USB_PA2KSEG0
                0x0000000000000000        0x4 drivers/built-in.o
 .text.mwHost20Bit_Rd
                0x0000000000000000       0x10 drivers/built-in.o
 .text.flib_Host20_Suspend
                0x0000000000000000       0x74 drivers/built-in.o
 .text.flib_Host20_Close
                0x0000000000000000       0x74 drivers/built-in.o
 .text.Dump_Data
                0x0000000000000000       0xc0 drivers/built-in.o
 .text.flib_Host20_SetControl1MaxPacket
                0x0000000000000000       0x20 drivers/built-in.o
 .text.flib_Host20_Interrupt_Init
                0x0000000000000000      0x234 drivers/built-in.o
 .text.flib_Host20_Send_qTD2
                0x0000000000000000      0x2d4 drivers/built-in.o
 .text.flib_Host20_Issue_Interrupt
                0x0000000000000000       0x80 drivers/built-in.o
 .text.flib_Host20_Start_BulkIn
                0x0000000000000000      0x180 drivers/built-in.o
 .text.flib_Host20_Get_BulkIn_Data
                0x0000000000000000      0x1cc drivers/built-in.o
 .text.U3phy_MS28_init
                0x0000000000000000       0x54 drivers/built-in.o
 .text.xhci_port_state_to_neutral
                0x0000000000000000       0x10 drivers/built-in.o
 .text.InitUSB30GPIO
                0x0000000000000000       0x3c drivers/built-in.o
 .text.USB_Set_WaitTime
                0x0000000000000000       0x10 drivers/built-in.o
 .text.USB_Get_WaitTime
                0x0000000000000000       0x10 drivers/built-in.o
 .text.usb_lowlevel_preinit
                0x0000000000000000        0x8 drivers/built-in.o
 .text.SetControl1MaxPacketEx
                0x0000000000000000       0x2c drivers/built-in.o
 .text.USB_Interrupt_InitEx
                0x0000000000000000       0x3c drivers/built-in.o
 .text.usb_bulk_transfer_in_ex
                0x0000000000000000       0x90 drivers/built-in.o
 .text.usb_bulk_transfer_in
                0x0000000000000000       0x6c drivers/built-in.o
 .text.usb_bulk_transfer_out
                0x0000000000000000       0x28 drivers/built-in.o
 .text.MHal_EMAC_ReadReg8
                0x0000000000000000       0x14 drivers/built-in.o
 .text.MHal_EMAC_WritReg8
                0x0000000000000000       0x14 drivers/built-in.o
 .text.MHal_EMAC_update_HSH
                0x0000000000000000       0x20 drivers/built-in.o
 .text.MHal_EMAC_Read_CFG
                0x0000000000000000       0x1c drivers/built-in.o
 .text.MHal_EMAC_Read_RBQP
                0x0000000000000000       0x1c drivers/built-in.o
 .text.MHal_EMAC_Read_RSR
                0x0000000000000000       0x1c drivers/built-in.o
 .text.MHal_EMAC_Read_ISR
                0x0000000000000000       0x1c drivers/built-in.o
 .text.MHal_EMAC_Read_IER
                0x0000000000000000       0x1c drivers/built-in.o
 .text.MHal_EMAC_Write_IER
                0x0000000000000000       0x1c drivers/built-in.o
 .text.MHal_EMAC_Read_IDR
                0x0000000000000000       0x1c drivers/built-in.o
 .text.MHal_EMAC_Read_IMR
                0x0000000000000000       0x1c drivers/built-in.o
 .text.MHal_EMAC_Read_FRA
                0x0000000000000000       0x1c drivers/built-in.o
 .text.MHal_EMAC_Read_SCOL
                0x0000000000000000       0x1c drivers/built-in.o
 .text.MHal_EMAC_Read_MCOL
                0x0000000000000000       0x1c drivers/built-in.o
 .text.MHal_EMAC_Read_OK
                0x0000000000000000       0x1c drivers/built-in.o
 .text.MHal_EMAC_Read_SEQE
                0x0000000000000000       0x1c drivers/built-in.o
 .text.MHal_EMAC_Read_ALE
                0x0000000000000000       0x1c drivers/built-in.o
 .text.MHal_EMAC_Read_LCOL
                0x0000000000000000       0x1c drivers/built-in.o
 .text.MHal_EMAC_Read_ECOL
                0x0000000000000000       0x1c drivers/built-in.o
 .text.MHal_EMAC_Read_TUE
                0x0000000000000000       0x1c drivers/built-in.o
 .text.MHal_EMAC_Read_CSE
                0x0000000000000000       0x1c drivers/built-in.o
 .text.MHal_EMAC_Read_RE
                0x0000000000000000       0x1c drivers/built-in.o
 .text.MHal_EMAC_Read_ROVR
                0x0000000000000000       0x1c drivers/built-in.o
 .text.MHal_EMAC_Read_SE
                0x0000000000000000       0x1c drivers/built-in.o
 .text.MHal_EMAC_Read_ELR
                0x0000000000000000       0x1c drivers/built-in.o
 .text.MHal_EMAC_Read_RJB
                0x0000000000000000       0x1c drivers/built-in.o
 .text.MHal_EMAC_Read_USF
                0x0000000000000000       0x1c drivers/built-in.o
 .text.MHal_EMAC_Read_SQEE
                0x0000000000000000       0x1c drivers/built-in.o
 .text.MHal_EMAC_Read_JULIAN_0104
                0x0000000000000000       0x1c drivers/built-in.o
 .text.MHal_EMAC_Read_JULIAN_0108
                0x0000000000000000       0x1c drivers/built-in.o
 .text.MHal_EMAC_Write_JULIAN_0108
                0x0000000000000000       0x1c drivers/built-in.o
 .text.MHal_EMAC_disable_mdi
                0x0000000000000000       0x20 drivers/built-in.o
 .text.MHal_EMAC_update_speed_duplex
                0x0000000000000000       0x40 drivers/built-in.o
 .text.MHal_EMAC_get_SA1H_addr
                0x0000000000000000       0x1c drivers/built-in.o
 .text.MHal_EMAC_get_SA1L_addr
                0x0000000000000000       0x1c drivers/built-in.o
 .text.MHal_EMAC_get_SA2H_addr
                0x0000000000000000       0x1c drivers/built-in.o
 .text.MHal_EMAC_get_SA2L_addr
                0x0000000000000000       0x1c drivers/built-in.o
 .text.MHal_EMAC_Write_SA1H
                0x0000000000000000       0x1c drivers/built-in.o
 .text.MHal_EMAC_Write_SA1L
                0x0000000000000000       0x1c drivers/built-in.o
 .text.MHal_EMAC_Write_SA2H
                0x0000000000000000       0x1c drivers/built-in.o
 .text.MHal_EMAC_Write_SA2L
                0x0000000000000000       0x1c drivers/built-in.o
 .text.MDev_memset
                0x0000000000000000       0x18 drivers/built-in.o
 .text.MHal_EMAC_CheckINTDone
                0x0000000000000000       0x44 drivers/built-in.o
 .text.MHal_EMAC_WritCAM_Address
                0x0000000000000000       0x3c drivers/built-in.o
 .text.MHal_EMAC_ReadCAM_Address
                0x0000000000000000       0x28 drivers/built-in.o
 .text.MHal_EMAC_timer_callback
                0x0000000000000000       0x20 drivers/built-in.o
 .text.MHal_EMAC_Set_TEST
                0x0000000000000000       0x24 drivers/built-in.o
 .text.MHal_EMAC_Get_Tx_FIFO_Threshold
                0x0000000000000000       0x14 drivers/built-in.o
 .text.MHal_EMAC_Get_Rx_FIFO_Enlarge
                0x0000000000000000       0x14 drivers/built-in.o
 .text.MHal_EMAC_Get_Miu_Priority
                0x0000000000000000       0x14 drivers/built-in.o
 .text.MHal_EMAC_Set_Tx_Rx_Req_Priority_Switch
                0x0000000000000000       0x24 drivers/built-in.o
 .text.MHal_EMAC_Set_Rx_Byte_Align_Offset
                0x0000000000000000       0x24 drivers/built-in.o
 .text.MHal_EMAC_WriteProtect
                0x0000000000000000       0x8c drivers/built-in.o
 .text.MHal_EMAC_trim_phy
                0x0000000000000000       0xa4 drivers/built-in.o
 .text.MHal_EMAC_Power_Off_Clk
                0x0000000000000000        0x4 drivers/built-in.o
 .text.MDev_EMAC_stats
                0x0000000000000000       0xe4 drivers/built-in.o
 .text.MDrv_EMAC_DumpReg
                0x0000000000000000       0xd0 drivers/built-in.o
 .text.MDrv_EMAC_Bist
                0x0000000000000000       0xdc drivers/built-in.o
 .text.MDrv_EMAC_PowerMode
                0x0000000000000000       0x10 drivers/built-in.o
 .text.MDrv_EMAC_WaveTest
                0x0000000000000000       0x3c drivers/built-in.o
 .text.do_ewavetest
                0x0000000000000000       0x48 drivers/built-in.o
 .text.do_dumpMac
                0x0000000000000000       0x40 drivers/built-in.o
 .text.do_bistMac
                0x0000000000000000       0xf8 drivers/built-in.o
 .text.do_Loopback
                0x0000000000000000       0x38 drivers/built-in.o
 .text.do_loadspi
                0x0000000000000000       0xbc drivers/built-in.o
 .text.do_emacpowerdown
                0x0000000000000000       0x14 drivers/built-in.o
 .text.MHal_GPIO_Init
                0x0000000000000000       0x1c drivers/built-in.o
 .text.MHal_GPIO_PadVal_Set
                0x0000000000000000        0x4 drivers/built-in.o
 .text.MHal_GPIO_Pad_Odn
                0x0000000000000000       0x68 drivers/built-in.o
 .text.MHal_GPIO_Pad_InOut
                0x0000000000000000       0x78 drivers/built-in.o
 .text.MHal_GPIO_Pull_High
                0x0000000000000000       0x64 drivers/built-in.o
 .text.MHal_GPIO_Pull_Low
                0x0000000000000000       0x64 drivers/built-in.o
 .text.MHal_GPIO_Set_Output
                0x0000000000000000       0x68 drivers/built-in.o
 .text.MHal_GPIO_Set_Driving
                0x0000000000000000       0xd0 drivers/built-in.o
 .text.MDrv_GPIO_PadGroupMode_Set
                0x0000000000000000        0x4 drivers/built-in.o
 .text.MDrv_GPIO_PadVal_Set
                0x0000000000000000        0x4 drivers/built-in.o
 .text.MDrv_GPIO_Pad_Odn
                0x0000000000000000        0x4 drivers/built-in.o
 .text.MDrv_GPIO_Pad_Oen
                0x0000000000000000        0x4 drivers/built-in.o
 .text.MDrv_GPIO_Pull_High
                0x0000000000000000        0x4 drivers/built-in.o
 .text.MDrv_GPIO_Pull_Low
                0x0000000000000000        0x4 drivers/built-in.o
 .text.MDrv_GPIO_Pad_Read
                0x0000000000000000       0x10 drivers/built-in.o
 .text.MDrv_GPIO_Set_Driving
                0x0000000000000000        0x4 drivers/built-in.o
 .text.MDrv_SW_IIC_SCL.part.0
                0x0000000000000000       0x24 drivers/built-in.o
 .text.MDrv_SW_IIC_SDA.part.1
                0x0000000000000000       0x24 drivers/built-in.o
 .text.MDrv_SW_IIC_SCL_Chk.part.2
                0x0000000000000000       0x40 drivers/built-in.o
 .text.MDrv_SW_IIC_SDA_Chk.part.3
                0x0000000000000000       0x40 drivers/built-in.o
 .text.MDrv_SW_IIC_Delay.constprop.5
                0x0000000000000000       0x10 drivers/built-in.o
 .text.MDrv_SW_IIC_Delay
                0x0000000000000000       0x10 drivers/built-in.o
 .text.MDrv_SW_IIC_SCL
                0x0000000000000000       0x24 drivers/built-in.o
 .text.MDrv_SW_IIC_SDA
                0x0000000000000000       0x24 drivers/built-in.o
 .text.MDrv_SW_IIC_SCL_Chk
                0x0000000000000000       0x30 drivers/built-in.o
 .text.MDrv_SW_IIC_SDA_Chk
                0x0000000000000000       0x30 drivers/built-in.o
 .text.MDrv_SW_IIC_Start
                0x0000000000000000       0x94 drivers/built-in.o
 .text.MDrv_SW_IIC_Stop
                0x0000000000000000       0x58 drivers/built-in.o
 .text.MDrv_SW_IIC_SendByte
                0x0000000000000000      0x10c drivers/built-in.o
 .text.MDrv_SW_IIC_AccessStart
                0x0000000000000000       0x6c drivers/built-in.o
 .text.MDrv_SW_IIC_GetByte
                0x0000000000000000       0xac drivers/built-in.o
 .text.MDrv_SW_IIC_Write
                0x0000000000000000      0x148 drivers/built-in.o
 .text.MDrv_SW_IIC_Read
                0x0000000000000000      0x158 drivers/built-in.o
 .text.MDrv_SW_IIC_SetSpeed
                0x0000000000000000       0x50 drivers/built-in.o
 .text.MDrv_SW_IIC_Enable
                0x0000000000000000       0x14 drivers/built-in.o
 .text.MDrv_SW_IIC_ConfigBus
                0x0000000000000000       0x3c drivers/built-in.o
 .text.MDrv_IIC_Init
                0x0000000000000000       0x38 drivers/built-in.o
 .text.mxp_check_record_magic
                0x0000000000000000        0x4 drivers/built-in.o
 .text.mxp_set_record_status
                0x0000000000000000       0x80 drivers/built-in.o
 .text.mxp_get_record_by_name
                0x0000000000000000       0x84 drivers/built-in.o
 .text.showRegAddr
                0x0000000000000000       0x7c drivers/built-in.o
 .text.HalI2cWriteAndRead
                0x0000000000000000        0x8 drivers/built-in.o
 .text.HalI2cIsConnectedStandard
                0x0000000000000000        0x8 drivers/built-in.o
 .text.HAL_HWI2C_SetIOMapBase
                0x0000000000000000       0x28 drivers/built-in.o
 .text.HAL_HWI2C_ReadClk2Byte
                0x0000000000000000       0x30 drivers/built-in.o
 .text._I2CTurnOff
                0x0000000000000000        0xc drivers/built-in.o
 .text.HAL_HWI2C_WriteClkByteMask
                0x0000000000000000       0x30 drivers/built-in.o
 .text.HAL_HWI2C_Init_Chip
                0x0000000000000000        0x8 drivers/built-in.o
 .text.HAL_HWI2C_IsMaster
                0x0000000000000000        0x8 drivers/built-in.o
 .text.HAL_HWI2C_Read2Byte
                0x0000000000000000       0x3c drivers/built-in.o
 .text.HAL_HWI2C_Read4Byte
                0x0000000000000000       0x20 drivers/built-in.o
 .text.HAL_HWI2C_WriteByteMask
                0x0000000000000000       0x34 drivers/built-in.o
 .text.HAL_HWI2C_Ack
                0x0000000000000000       0x2c drivers/built-in.o
 .text.Hal_HW_IIC_Init
                0x0000000000000000        0xc drivers/built-in.o
 .text.HAL_HWI2C_Init_ExtraProc
                0x0000000000000000        0x4 drivers/built-in.o
 .text.HalI2cSendDataStandard
                0x0000000000000000       0x2c drivers/built-in.o
 .text.HalI2cRead
                0x0000000000000000       0x2c drivers/built-in.o
 .text.HalI2cReceiveStandard
                0x0000000000000000       0x34 drivers/built-in.o
 .text.HAL_WDT_Write2Byte
                0x0000000000000000       0x28 drivers/built-in.o
 .text.HAL_WDT_Read2Byte
                0x0000000000000000       0x28 drivers/built-in.o
 .text.wdt_reset
                0x0000000000000000       0x24 drivers/built-in.o
 .text.wdt_set_timeout
                0x0000000000000000       0x4c drivers/built-in.o
 .text.wdt_stop
                0x0000000000000000       0x2c drivers/built-in.o
 .text.wdt_start
                0x0000000000000000       0x58 drivers/built-in.o
 .text.DrvDispOsMsSleep
                0x0000000000000000        0x4 drivers/built-in.o
 .text.DrvDispOsUsSleep
                0x0000000000000000        0x4 drivers/built-in.o
 .text.DrvDispOsImiHeapFree
                0x0000000000000000        0x4 drivers/built-in.o
 .text.DrvDispOsPadMuxActive
                0x0000000000000000        0x8 drivers/built-in.o
 .text.DrvDispOsCreateTask
                0x0000000000000000        0x8 drivers/built-in.o
 .text.DrvDispOsDestroyTask
                0x0000000000000000        0x8 drivers/built-in.o
 .text.DrvDispOsSetDeviceNode
                0x0000000000000000        0x8 drivers/built-in.o
 .text.DrvDispOsSetClkOff
                0x0000000000000000        0x8 drivers/built-in.o
 .text.DrvDispOsGetSystemTime
                0x0000000000000000        0x8 drivers/built-in.o
 .text.DrvDispOsGetSystemTimeStamp
                0x0000000000000000        0xc drivers/built-in.o
 .text.__DrvDispCtxUnBindInputPortWidthVidLayer
                0x0000000000000000       0xb8 drivers/built-in.o
 .text._DrvDispCtxFreeDevContain
                0x0000000000000000       0x94 drivers/built-in.o
 .text._DrvDispCtxFreeVidLayerContain
                0x0000000000000000       0x94 drivers/built-in.o
 .text._DrvDispCtxFreeInputPortContain
                0x0000000000000000       0xb8 drivers/built-in.o
 .text.DrvDispCtxDeInit
                0x0000000000000000       0xdc drivers/built-in.o
 .text.DrvDispCtxFree
                0x0000000000000000       0x54 drivers/built-in.o
 .text.DrvDispCtxIsAllFree
                0x0000000000000000       0x88 drivers/built-in.o
 .text.DrvDispCtxGetCurCtx
                0x0000000000000000       0xcc drivers/built-in.o
 .text.DrvDispIrqSetIsrNum
                0x0000000000000000       0x40 drivers/built-in.o
 .text.DrvDispIrqGetIsrNum
                0x0000000000000000       0xd0 drivers/built-in.o
 .text.DrvDispIrqEnable
                0x0000000000000000       0xb0 drivers/built-in.o
 .text.DrvDispIrqGetFlag
                0x0000000000000000       0x84 drivers/built-in.o
 .text.DrvDispIrqClear
                0x0000000000000000       0x70 drivers/built-in.o
 .text._DrvDispCreateTimeZoneIsr
                0x0000000000000000        0x8 drivers/built-in.o
 .text._DrvDispIrqCreateVgaHpdIsr
                0x0000000000000000        0x8 drivers/built-in.o
 .text._DrvDispIrqDestroyTimeZoneIsr
                0x0000000000000000        0x8 drivers/built-in.o
 .text._DrvDispIrqDestroyVgaHpdIsr
                0x0000000000000000        0x8 drivers/built-in.o
 .text.DrvDispIrqDestroyInternalIsr
                0x0000000000000000        0x8 drivers/built-in.o
 .text.__DrvDispIfTransCscMatrixToHal
                0x0000000000000000       0x40 drivers/built-in.o
 .text._DrvDispIfTransDeviceCvbsParamToHal
                0x0000000000000000       0x3c drivers/built-in.o
 .text._DrvDispIfTransDeviceVgaParamToHal
                0x0000000000000000      0x104 drivers/built-in.o
 .text._DrvDispIfTransDeviceHdmiParamToHal
                0x0000000000000000       0xf8 drivers/built-in.o
 .text._DrvDispIfTransDeviceLcdParamToHal
                0x0000000000000000       0xf8 drivers/built-in.o
 .text._DrvDispIfTransdeviceGammaParamToHal
                0x0000000000000000       0x6c drivers/built-in.o
 .text._DrvDispIfTransDeviceColorTempToHal
                0x0000000000000000       0x78 drivers/built-in.o
 .text._DrvDispIfTransVidLayerAttrToHal
                0x0000000000000000      0x12c drivers/built-in.o
 .text._DrvDispIfTransDeviceTimeZoneToMhal
                0x0000000000000000       0x30 drivers/built-in.o
 .text._DrvDispIfTransDeviceDisplayInfoToMhal
                0x0000000000000000       0x88 drivers/built-in.o
 .text._DrvDispIfTransVidLayerCompressToHal
                0x0000000000000000       0x3c drivers/built-in.o
 .text._DrvDispIfTransInputPortRotateToHal
                0x0000000000000000       0xa4 drivers/built-in.o
 .text._DrvDispIfTransInputPortCropAttrToHal
                0x0000000000000000       0x60 drivers/built-in.o
 .text.DrvDispIfGetClk
                0x0000000000000000       0xa8 drivers/built-in.o
 .text.DrvDispIfDeviceDestroyInstance
                0x0000000000000000       0xc4 drivers/built-in.o
 .text.DrvDispIfDeviceSetColortemp
                0x0000000000000000       0x64 drivers/built-in.o
 .text.DrvDispIfDeviceSetCvbsParam
                0x0000000000000000       0x64 drivers/built-in.o
 .text.DrvDispIfDeviceSetHdmiParam
                0x0000000000000000       0x64 drivers/built-in.o
 .text.DrvDispIfDeviceSetLcdParam
                0x0000000000000000       0x64 drivers/built-in.o
 .text.DrvDispIfDeviceSetGammaParam
                0x0000000000000000       0x64 drivers/built-in.o
 .text.DrvDispIfDeviceSetVgaParam
                0x0000000000000000       0x64 drivers/built-in.o
 .text.DrvDispIfDeviceAttach
                0x0000000000000000       0x74 drivers/built-in.o
 .text.DrvDispIfDeviceDetach
                0x0000000000000000       0x74 drivers/built-in.o
 .text.DrvDispIfDeviceGetTimeZone
                0x0000000000000000       0x74 drivers/built-in.o
 .text.DrvDispIfDeviceGetDisplayInfo
                0x0000000000000000       0x74 drivers/built-in.o
 .text.DrvDispIfDeviceGetInstance
                0x0000000000000000       0x38 drivers/built-in.o
 .text.DrvDispIfVideoLayerDestoryInstance
                0x0000000000000000       0x48 drivers/built-in.o
 .text.DrvDispIfVideoLayerEnable
                0x0000000000000000       0x4c drivers/built-in.o
 .text.DrvDispIfVideoLayerBind
                0x0000000000000000       0x48 drivers/built-in.o
 .text.DrvDispIfVideoLayerUnBind
                0x0000000000000000       0x48 drivers/built-in.o
 .text.DrvDispIfVideoLayerSetAttr
                0x0000000000000000       0x54 drivers/built-in.o
 .text.DrvDispIfVideoLayerBufferFire
                0x0000000000000000       0x44 drivers/built-in.o
 .text.DrvDispIfVideoLayerCheckBufferFired
                0x0000000000000000       0x44 drivers/built-in.o
 .text.DrvDispIfVideoLayerSetCompress
                0x0000000000000000       0x54 drivers/built-in.o
 .text.DrvDispIfVideoLayerSetPriority
                0x0000000000000000       0x4c drivers/built-in.o
 .text.DrvDispIfInputPortDestroyInstance
                0x0000000000000000       0x48 drivers/built-in.o
 .text.DrvDispIfInputPortRotate
                0x0000000000000000       0x54 drivers/built-in.o
 .text.DrvDispIfInputPortSetCropAttr
                0x0000000000000000       0x54 drivers/built-in.o
 .text.DrvDispIfInputPortShow
                0x0000000000000000       0x44 drivers/built-in.o
 .text.DrvDispIfInputPortHide
                0x0000000000000000       0x44 drivers/built-in.o
 .text.DrvDispIfInputPortAttrBegin
                0x0000000000000000       0x44 drivers/built-in.o
 .text.DrvDispIfInputPortAttrEnd
                0x0000000000000000       0x44 drivers/built-in.o
 .text.MHAL_DISP_InitMmapConfig
                0x0000000000000000        0x8 drivers/built-in.o
 .text.MHAL_DISP_DeviceDestroyInstance
                0x0000000000000000       0x54 drivers/built-in.o
 .text.MHAL_DISP_DeviceSetColorTempeture
                0x0000000000000000       0x58 drivers/built-in.o
 .text.MHAL_DISP_DeviceSetCvbsParam
                0x0000000000000000       0x58 drivers/built-in.o
 .text.MHAL_DISP_DeviceSetHdmiParam
                0x0000000000000000       0x58 drivers/built-in.o
 .text.MHAL_DISP_DeviceSetLcdParam
                0x0000000000000000       0x58 drivers/built-in.o
 .text.MHAL_DISP_DeviceSetGammaParam
                0x0000000000000000       0x58 drivers/built-in.o
 .text.MHAL_DISP_DeviceSetVgaParam
                0x0000000000000000       0x58 drivers/built-in.o
 .text.MHAL_DISP_DeviceAttach
                0x0000000000000000       0x58 drivers/built-in.o
 .text.MHAL_DISP_DeviceDetach
                0x0000000000000000       0x58 drivers/built-in.o
 .text.MHAL_DISP_DeviceGetTimeZone
                0x0000000000000000       0x54 drivers/built-in.o
 .text.MHAL_DISP_DeviceGetDisplayInfo
                0x0000000000000000       0x54 drivers/built-in.o
 .text.MHAL_DISP_DeviceGetInstance
                0x0000000000000000       0x38 drivers/built-in.o
 .text.MHAL_DISP_VideoLayerDestoryInstance
                0x0000000000000000       0x54 drivers/built-in.o
 .text.MHAL_DISP_VideoLayerEnable
                0x0000000000000000       0x5c drivers/built-in.o
 .text.MHAL_DISP_VideoLayerBind
                0x0000000000000000       0x58 drivers/built-in.o
 .text.MHAL_DISP_VideoLayerUnBind
                0x0000000000000000       0x58 drivers/built-in.o
 .text.MHAL_DISP_VideoLayerSetAttr
                0x0000000000000000       0x58 drivers/built-in.o
 .text.MHAL_DISP_VideoLayerBufferFire
                0x0000000000000000       0x54 drivers/built-in.o
 .text.MHAL_DISP_VideoLayerCheckBufferFired
                0x0000000000000000       0x54 drivers/built-in.o
 .text.MHAL_DISP_VideoLayerSetCompress
                0x0000000000000000       0x58 drivers/built-in.o
 .text.MHAL_DISP_VideoLayerSetPriority
                0x0000000000000000       0x54 drivers/built-in.o
 .text.MHAL_DISP_InputPortDestroyInstance
                0x0000000000000000       0x54 drivers/built-in.o
 .text.MHAL_DISP_InputPortShow
                0x0000000000000000       0x54 drivers/built-in.o
 .text.MHAL_DISP_InputPortHide
                0x0000000000000000       0x54 drivers/built-in.o
 .text.MHAL_DISP_InputPortAttrBegin
                0x0000000000000000       0x54 drivers/built-in.o
 .text.MHAL_DISP_InputPortAttrEnd
                0x0000000000000000       0x54 drivers/built-in.o
 .text.MHAL_DISP_InputPortRotate
                0x0000000000000000       0x54 drivers/built-in.o
 .text.MHAL_DISP_InputPortSetCropAttr
                0x0000000000000000       0x54 drivers/built-in.o
 .text.MHAL_DISP_EnableDevIrq
                0x0000000000000000       0x5c drivers/built-in.o
 .text.MHAL_DISP_ClearDevInterrupt
                0x0000000000000000       0x54 drivers/built-in.o
 .text.MHAL_DISP_GetDevIrqFlag
                0x0000000000000000       0x54 drivers/built-in.o
 .text.MHAL_DISP_GetDevIrq
                0x0000000000000000       0x54 drivers/built-in.o
 .text.__HalDispIfSetNonLinearCurve
                0x0000000000000000       0x3c drivers/built-in.o
 .text.__HalDispIfSetTimingTable
                0x0000000000000000        0x4 drivers/built-in.o
 .text.__HalDispIfSetTgenConfig
                0x0000000000000000        0x4 drivers/built-in.o
 .text.HalDispIfDeInit
                0x0000000000000000       0x98 drivers/built-in.o
 .text.HalDispIrqSetDacEn
                0x0000000000000000       0x30 drivers/built-in.o
 .text.HalDispSetPatGenMd
                0x0000000000000000       0x28 drivers/built-in.o
 .text.HalDispGetClkDisp432
                0x0000000000000000       0x38 drivers/built-in.o
 .text.HalDispGetClkDisp216
                0x0000000000000000       0x48 drivers/built-in.o
 .text.HalDispSetFrameColorForce
                0x0000000000000000       0x30 drivers/built-in.o
 .text._HalDispPqSetBw2sbri
                0x0000000000000000       0x20 drivers/built-in.o
 .text._HalDispPqSetBleEn
                0x0000000000000000       0x28 drivers/built-in.o
 .text._HalDispPqSetWleEn
                0x0000000000000000       0x30 drivers/built-in.o
 .text._HalDispPqSetBlackStart
                0x0000000000000000       0x24 drivers/built-in.o
 .text._HalDispPqSetWhiteStart
                0x0000000000000000       0x28 drivers/built-in.o
 .text._HalDispPqSetBlackSlop
                0x0000000000000000       0x20 drivers/built-in.o
 .text._HalDispPqSetWhiteSlop
                0x0000000000000000       0x20 drivers/built-in.o
 .text._HalDispPqSetLpfY
                0x0000000000000000       0x28 drivers/built-in.o
 .text._HalDispPqSetLpfC
                0x0000000000000000       0x28 drivers/built-in.o
 .text._HalDispPqSetDcrEn
                0x0000000000000000       0x30 drivers/built-in.o
 .text._HalDispPqSetDcrOffset
                0x0000000000000000       0x20 drivers/built-in.o
 .text._HalDispPqSetYGain
                0x0000000000000000       0x20 drivers/built-in.o
 .text._HalDispPqSetYGainOffset
                0x0000000000000000       0x20 drivers/built-in.o
 .text._HalDispPqSetDlcEn
                0x0000000000000000       0x30 drivers/built-in.o
 .text._HalDispPqSetDlcGain
                0x0000000000000000       0x20 drivers/built-in.o
 .text._HalDispPqSetDlcOffset
                0x0000000000000000       0x20 drivers/built-in.o
 .text._HalDispPqSetDlcHact
                0x0000000000000000       0x20 drivers/built-in.o
 .text._HalDispPqSetDlcHblank
                0x0000000000000000       0x20 drivers/built-in.o
 .text._HalDispPqSetDlcVact
                0x0000000000000000       0x20 drivers/built-in.o
 .text._HalDispPqSetDlcPwmDuty
                0x0000000000000000       0x14 drivers/built-in.o
 .text._HalDispPqSetDlcPwmPeriod
                0x0000000000000000       0x14 drivers/built-in.o
 .text._HalDispPqHCoringSetYBand1En
                0x0000000000000000       0x28 drivers/built-in.o
 .text._HalDispPqHCoringSetYBand2En
                0x0000000000000000       0x30 drivers/built-in.o
 .text._HalDispPqHCoringSetYDitherEn
                0x0000000000000000       0x30 drivers/built-in.o
 .text._HalDispPqHCoringSetYTableStep
                0x0000000000000000       0x28 drivers/built-in.o
 .text._HalDispPqHCoringSetCBand1En
                0x0000000000000000       0x30 drivers/built-in.o
 .text._HalDispPqHCoringSetCBand2En
                0x0000000000000000       0x30 drivers/built-in.o
 .text._HalDispPqHCoringSetCDitherEn
                0x0000000000000000       0x30 drivers/built-in.o
 .text._HalDispPqHCoringSetCTableStep
                0x0000000000000000       0x28 drivers/built-in.o
 .text._HalDispPqHCoringSetPcMode
                0x0000000000000000       0x30 drivers/built-in.o
 .text._HalDispPqHCoringSetHighPassEn
                0x0000000000000000       0x30 drivers/built-in.o
 .text._HalDispPqHCoringSetTable
                0x0000000000000000       0x60 drivers/built-in.o
 .text._HalDispPqSetFccCbT1
                0x0000000000000000       0x20 drivers/built-in.o
 .text._HalDispPqSetFccCrT1
                0x0000000000000000       0x20 drivers/built-in.o
 .text._HalDispPqSetFccCbT2
                0x0000000000000000       0x20 drivers/built-in.o
 .text._HalDispPqSetFccCrT2
                0x0000000000000000       0x20 drivers/built-in.o
 .text._HalDispPqSetFccCbT3
                0x0000000000000000       0x20 drivers/built-in.o
 .text._HalDispPqSetFccCrT3
                0x0000000000000000       0x20 drivers/built-in.o
 .text._HalDispPqSetFccCbT4
                0x0000000000000000       0x20 drivers/built-in.o
 .text._HalDispPqSetFccCrT4
                0x0000000000000000       0x20 drivers/built-in.o
 .text._HalDispPqSetFccCbT5
                0x0000000000000000       0x20 drivers/built-in.o
 .text._HalDispPqSetFccCrT5
                0x0000000000000000       0x20 drivers/built-in.o
 .text._HalDispPqSetFccCbT6
                0x0000000000000000       0x20 drivers/built-in.o
 .text._HalDispPqSetFccCrT6
                0x0000000000000000       0x20 drivers/built-in.o
 .text._HalDispPqSetFccCbT7
                0x0000000000000000       0x20 drivers/built-in.o
 .text._HalDispPqSetFccCrT7
                0x0000000000000000       0x20 drivers/built-in.o
 .text._HalDispPqSetFccCbT8
                0x0000000000000000       0x20 drivers/built-in.o
 .text._HalDispPqSetFccCrT8
                0x0000000000000000       0x20 drivers/built-in.o
 .text._HalDispPqSetFccCbCrD1DD1U
                0x0000000000000000       0x20 drivers/built-in.o
 .text._HalDispPqSetFccCbCrD2DD2U
                0x0000000000000000       0x20 drivers/built-in.o
 .text._HalDispPqSetFccCbCrD3DD3U
                0x0000000000000000       0x20 drivers/built-in.o
 .text._HalDispPqSetFccCbCrD4DD4U
                0x0000000000000000       0x20 drivers/built-in.o
 .text._HalDispPqSetFccCbCrD5DD5U
                0x0000000000000000       0x20 drivers/built-in.o
 .text._HalDispPqSetFccCbCrD6DD6U
                0x0000000000000000       0x20 drivers/built-in.o
 .text._HalDispPqSetFccCbCrD7DD7U
                0x0000000000000000       0x20 drivers/built-in.o
 .text._HalDispPqSetFccCbCrD8DD8U
                0x0000000000000000       0x20 drivers/built-in.o
 .text._HalDispPqSetFccCbCrD9
                0x0000000000000000       0x20 drivers/built-in.o
 .text._HalDispPqSetFccKT2KT1
                0x0000000000000000       0x20 drivers/built-in.o
 .text._HalDispPqSetFccKT4KT3
                0x0000000000000000       0x20 drivers/built-in.o
 .text._HalDispPqSetFccKT6KT5
                0x0000000000000000       0x20 drivers/built-in.o
 .text._HalDispPqSetFccKT8KT7
                0x0000000000000000       0x20 drivers/built-in.o
 .text._HalDispPqSetFccEn
                0x0000000000000000       0x20 drivers/built-in.o
 .text.HalDispPqClearHwCtxFlag
                0x0000000000000000       0x18 drivers/built-in.o
 .text.HalDispPqSetBwExtensionConfig
                0x0000000000000000       0x8c drivers/built-in.o
 .text.HalDispPqSetLpfConfig
                0x0000000000000000       0x64 drivers/built-in.o
 .text.HalDispPqSetDlcDcrConfig
                0x0000000000000000       0xc4 drivers/built-in.o
 .text.HalDispPqSetHCoringConfig
                0x0000000000000000       0xb8 drivers/built-in.o
 .text.HalDispPqSetFccConfig
                0x0000000000000000      0x144 drivers/built-in.o
 .text.SetPCConRGBMatrix
                0x0000000000000000       0x48 drivers/built-in.o
 .text.SetPCColorMatrix
                0x0000000000000000      0x13c drivers/built-in.o
 .text.HalDispColorAdjustVideoContrast
                0x0000000000000000       0x6c drivers/built-in.o
 .text.HalDispColorAdjustVideoSaturation
                0x0000000000000000       0x6c drivers/built-in.o
 .text.HalDispColorAdjustVideoCbCr
                0x0000000000000000       0x78 drivers/built-in.o
 .text.HalDispColorAdjustVideoHue
                0x0000000000000000       0x6c drivers/built-in.o
 .text.HalDispColorAdjustPCContrastRGB
                0x0000000000000000       0x8c drivers/built-in.o
 .text.HalDispColorAdjustPCContrast
                0x0000000000000000       0x74 drivers/built-in.o
 .text.HalDispColorAdjustPCRGB
                0x0000000000000000       0x7c drivers/built-in.o
 .text.HalDispColorSetYUV2RGBCtrl
                0x0000000000000000       0x28 drivers/built-in.o
 .text.HalDispColorSetPCsRGBCtrl
                0x0000000000000000       0x28 drivers/built-in.o
 .text.HalDispColorSetHue256StepCtrl
                0x0000000000000000       0x28 drivers/built-in.o
 .text.HalDispMopgSetStretchWinSize
                0x0000000000000000       0x40 drivers/built-in.o
 .text.HalDispMopsSetStretchWinSize
                0x0000000000000000       0x40 drivers/built-in.o
 .text.HalDispMopgSetRblkHstr
                0x0000000000000000       0x3c drivers/built-in.o
 .text.HalDispMopsSetRblkHstr
                0x0000000000000000       0x28 drivers/built-in.o
 .text.DrvPnlOsSetDeviceNode
                0x0000000000000000        0x8 drivers/built-in.o
 .text.DrvPnlOsSetClkOff
                0x0000000000000000        0x8 drivers/built-in.o
 .text.DrvPnlCtxDeInit
                0x0000000000000000       0x74 drivers/built-in.o
 .text.DrvPnlCtxIsAllFree
                0x0000000000000000       0x14 drivers/built-in.o
 .text.DrvPnlCtxGet
                0x0000000000000000       0x98 drivers/built-in.o
 .text.DrvPnlCtxFree
                0x0000000000000000       0x64 drivers/built-in.o
 .text._DrvPnlIfTransMipiDsiConfigToMHal
                0x0000000000000000      0x1ac drivers/built-in.o
 .text._DrvPnlIfTransParamToMhal
                0x0000000000000000      0x390 drivers/built-in.o
 .text._DrvPnlIfTransSscConfigToHal
                0x0000000000000000       0x1c drivers/built-in.o
 .text._DrvPnlIfTransSscConfigToMhal
                0x0000000000000000       0x1c drivers/built-in.o
 .text._DrvPnlIfTransTimingConfigToHal
                0x0000000000000000       0x6c drivers/built-in.o
 .text._DrvPnlIfTransTimingConfigToMhal
                0x0000000000000000       0x6c drivers/built-in.o
 .text._DrvPnlIfTransPowerConfigToHal
                0x0000000000000000        0xc drivers/built-in.o
 .text._DrvPnlIfTransPowerConfigToMhal
                0x0000000000000000        0xc drivers/built-in.o
 .text._DrvPnlIfTransBackLightOnOffConfigToHal
                0x0000000000000000        0xc drivers/built-in.o
 .text._DrvPnlIfTransBackLightOnOffConfigToMhal
                0x0000000000000000        0xc drivers/built-in.o
 .text._DrvPnlIfTransBackLightLevelConfigToHal
                0x0000000000000000       0x14 drivers/built-in.o
 .text._DrvPnlIfTransBackLightLevelConfigToMhal
                0x0000000000000000       0x14 drivers/built-in.o
 .text._DrvPnlIfTransDrvCurrentConfigToHal
                0x0000000000000000        0xc drivers/built-in.o
 .text._DrvPnlIfTransDrvCurrentConfigToMhal
                0x0000000000000000        0xc drivers/built-in.o
 .text._DrvPnlIfTransTestPatConfigToHal
                0x0000000000000000       0x24 drivers/built-in.o
 .text.DrvPnlIfGetClkConfig
                0x0000000000000000       0xb8 drivers/built-in.o
 .text.DrvPnlIfGetInstance
                0x0000000000000000       0x60 drivers/built-in.o
 .text.DrvPnlIfDestroyInstance
                0x0000000000000000       0xb4 drivers/built-in.o
 .text.DrvPnlIfGetParamConfig
                0x0000000000000000       0x20 drivers/built-in.o
 .text.DrvPnlIfGetMipiDsiConfig
                0x0000000000000000       0x20 drivers/built-in.o
 .text.DrvPnlIfSetSscConfig
                0x0000000000000000       0x74 drivers/built-in.o
 .text.DrvPnlIfSetTimingConfig
                0x0000000000000000       0x68 drivers/built-in.o
 .text.DrvPnlIfGetTimingConfig
                0x0000000000000000       0x20 drivers/built-in.o
 .text.DrvPnlIfSetPowerConfig
                0x0000000000000000       0x60 drivers/built-in.o
 .text.DrvPnlIfGetPowerConfig
                0x0000000000000000       0x14 drivers/built-in.o
 .text.DrvPnlIfSetBackLightOnOffConfig
                0x0000000000000000       0x60 drivers/built-in.o
 .text.DrvPnlIfGetBackLightOnOffConfig
                0x0000000000000000       0x14 drivers/built-in.o
 .text.DrvPnlIfSetBackLightLevelConfig
                0x0000000000000000       0x68 drivers/built-in.o
 .text.DrvPnlIfGetBackLightLevelConfig
                0x0000000000000000       0x24 drivers/built-in.o
 .text.DrvPnlIfSetDrvCurrentConfig
                0x0000000000000000       0x60 drivers/built-in.o
 .text.DrvPnlIfSetTestPatternConfig
                0x0000000000000000       0x64 drivers/built-in.o
 .text.MhalPnlDestroyInstance
                0x0000000000000000       0x34 drivers/built-in.o
 .text.MhalPnlGetParamConfig
                0x0000000000000000       0x34 drivers/built-in.o
 .text.MhalPnlGetMipiDsiConfig
                0x0000000000000000       0x34 drivers/built-in.o
 .text.MhalPnlSetSscConfig
                0x0000000000000000       0x34 drivers/built-in.o
 .text.MhalPnlSetTimingConfig
                0x0000000000000000       0x34 drivers/built-in.o
 .text.MhalPnlGetTimingConfig
                0x0000000000000000       0x34 drivers/built-in.o
 .text.MhalPnlSetPowerConfig
                0x0000000000000000       0x34 drivers/built-in.o
 .text.MhalPnlGetPowerConfig
                0x0000000000000000       0x34 drivers/built-in.o
 .text.MhalPnlSetBackLightOnOffConfig
                0x0000000000000000       0x34 drivers/built-in.o
 .text.MhalPnlGetBackLightOnOffConfig
                0x0000000000000000       0x34 drivers/built-in.o
 .text.MhalPnlSetBackLightLevelConfig
                0x0000000000000000       0x34 drivers/built-in.o
 .text.MhalPnlGetBackLightLevelConfig
                0x0000000000000000       0x34 drivers/built-in.o
 .text.MhalPnlSetDrvCurrentConfig
                0x0000000000000000       0x34 drivers/built-in.o
 .text.MhalPnlSetTestPatternConfig
                0x0000000000000000       0x34 drivers/built-in.o
 .text.__HalPnlIfSetMipiDisTimeGenConfig
                0x0000000000000000        0x4 drivers/built-in.o
 .text.HalPnlIfDeInit
                0x0000000000000000       0x54 drivers/built-in.o
 .text.HalPnlW2BYTEMSK
                0x0000000000000000       0x20 drivers/built-in.o
 .text.HalPnlSetDacHsyncSt
                0x0000000000000000       0x20 drivers/built-in.o
 .text.HalPnlSetDacHsyncEnd
                0x0000000000000000       0x20 drivers/built-in.o
 .text.HalPnlSetDacHdeSt
                0x0000000000000000       0x20 drivers/built-in.o
 .text.HalPnlSetDacHdeEnd
                0x0000000000000000       0x20 drivers/built-in.o
 .text.HalPnlSetDacVdeSt
                0x0000000000000000       0x20 drivers/built-in.o
 .text.HalPnlSetDacVdeEnd
                0x0000000000000000       0x20 drivers/built-in.o
 .text.HalPnlDisableMipiDsiClk
                0x0000000000000000       0x18 drivers/built-in.o
 .text.HalPnlGetMipiDsiShortPacket
                0x0000000000000000      0x1a0 drivers/built-in.o
 .text.HalPnlGetMipiDsiReg
                0x0000000000000000       0x14 drivers/built-in.o
 .text.HalPnlSetMipiDsiPatGen
                0x0000000000000000       0x28 drivers/built-in.o
 .text.jpeg_abort_decompress
                0x0000000000000000        0x4 drivers/built-in.o
 .text.jpeg_input_complete
                0x0000000000000000       0x3c drivers/built-in.o
 .text.jpeg_has_multiple_scans
                0x0000000000000000       0x3c drivers/built-in.o
 .text.jpeg_read_raw_data
                0x0000000000000000       0xe0 drivers/built-in.o
 .text.jpeg_start_output
                0x0000000000000000       0x6c drivers/built-in.o
 .text.jpeg_finish_output
                0x0000000000000000       0xac drivers/built-in.o
 .text.jpeg_read_coefficients
                0x0000000000000000      0x19c drivers/built-in.o
 .text.jpeg_new_colormap
                0x0000000000000000       0x90 drivers/built-in.o
 .text.save_marker
                0x0000000000000000      0x268 drivers/built-in.o
 .text.jpeg_save_markers
                0x0000000000000000       0xd8 drivers/built-in.o
 .text.jpeg_set_marker_processor
                0x0000000000000000       0x4c drivers/built-in.o
 .text.init_source
                0x0000000000000000       0x10 drivers/built-in.o
 .text.fill_input_buffer
                0x0000000000000000       0x40 drivers/built-in.o
 .text.jpeg_stdio_src
                0x0000000000000000       0xa4 drivers/built-in.o
 .text.HAL_MSPI_Reset_FrameConfig
                0x0000000000000000       0x2c drivers/built-in.o
 .text.HAL_MSPI_IntEnable
                0x0000000000000000       0x28 drivers/built-in.o
 .text.HAL_MSPI_Init
                0x0000000000000000       0x88 drivers/built-in.o
 .text.HAL_MSPI_SetDcTiming
                0x0000000000000000       0x68 drivers/built-in.o
 .text.HAL_MSPI_SelectCLK
                0x0000000000000000       0x30 drivers/built-in.o
 .text._HAL_MSPI_Trigger
                0x0000000000000000       0xbc drivers/built-in.o
 .text.HAL_MSPI_Read
                0x0000000000000000      0x15c drivers/built-in.o
 .text.HAL_MSPI_Write
                0x0000000000000000      0x13c drivers/built-in.o
 .text.HAL_MSPI_Reset_CLKConfig
                0x0000000000000000       0x1c drivers/built-in.o
 .text.HAL_MSPI_DCConfigMax
                0x0000000000000000       0x10 drivers/built-in.o
 .text.HAL_MSPI_Reset_DCConfig
                0x0000000000000000       0x20 drivers/built-in.o
 .text.HAL_MSPI_SetChipSelect
                0x0000000000000000       0x34 drivers/built-in.o
 .text.MDrv_MSPI_ChipSelect
                0x0000000000000000       0x34 drivers/built-in.o
 .text.MDrv_MSPI_Read
                0x0000000000000000       0x90 drivers/built-in.o
 .text.MDrv_MSPI_Write
                0x0000000000000000       0x7c drivers/built-in.o
 .text.MDrv_MSPI_DMA_Read
                0x0000000000000000       0xb8 drivers/built-in.o
 .text.MDrv_MSPI_DMA_Write
                0x0000000000000000       0xec drivers/built-in.o
 .text.MDrv_MSPI_Init
                0x0000000000000000       0x38 drivers/built-in.o
 .text.MDrv_MSPI_DCConfig
                0x0000000000000000       0x94 drivers/built-in.o
 .text.HAL_MSPI_SetCLKTiming
                0x0000000000000000       0x5c drivers/built-in.o
 .text.HAL_MSPI_SetLSB
                0x0000000000000000       0x10 drivers/built-in.o
 .text.HAL_MSPI_CLK_Config
                0x0000000000000000      0x1f8 drivers/built-in.o
 .text.MDrv_MSPI_SetMode
                0x0000000000000000       0x80 drivers/built-in.o
 .text.HAL_MSPI_SetPerFrameSize
                0x0000000000000000       0x54 drivers/built-in.o
 .text.MDrv_MSPI_FRAMEConfig
                0x0000000000000000       0xa8 drivers/built-in.o
 .text.MDrv_MSPI_SetCLK
                0x0000000000000000        0x4 drivers/built-in.o
 .text.mspi_config
                0x0000000000000000       0xa0 drivers/built-in.o
 .text.spi_init
                0x0000000000000000        0x4 drivers/built-in.o
 .text.spi_setup_slave
                0x0000000000000000       0xb8 drivers/built-in.o
 .text.spi_free_slave
                0x0000000000000000        0x4 drivers/built-in.o
 .text.spi_select_pad
                0x0000000000000000       0x1c drivers/built-in.o
 .text.spi_claim_bus
                0x0000000000000000       0x68 drivers/built-in.o
 .text.spi_release_bus
                0x0000000000000000       0x1c drivers/built-in.o
 .text.spi_xfer
                0x0000000000000000      0x1d4 drivers/built-in.o
 .text.HAL_SAR_Write2Byte
                0x0000000000000000       0x28 drivers/built-in.o
 .text.HAL_SAR_Read2Byte
                0x0000000000000000       0x28 drivers/built-in.o
 .text.HAL_SAR_Write2ByteMask
                0x0000000000000000       0x2c drivers/built-in.o
 .text.sar_hw_init
                0x0000000000000000        0xc drivers/built-in.o
 .text.sar_get_value
                0x0000000000000000       0xd4 drivers/built-in.o
 .text.HAL_PWM_Write2Byte
                0x0000000000000000       0x28 drivers/built-in.o
 .text.HAL_PWM_Read2Byte
                0x0000000000000000       0x28 drivers/built-in.o
 .text.HAL_ChipTop_Write2Byte
                0x0000000000000000       0x2c drivers/built-in.o
 .text.HAL_ChipTop_Read2Byte
                0x0000000000000000       0x2c drivers/built-in.o
 .text.HAL_PMSLEEP_Write2Byte
                0x0000000000000000       0x28 drivers/built-in.o
 .text.HAL_PMSLEEP_Read2Byte
                0x0000000000000000       0x28 drivers/built-in.o
 .text.DrvPWMSetDuty
                0x0000000000000000       0xf0 drivers/built-in.o
 .text.DrvPWMGetDuty
                0x0000000000000000       0x6c drivers/built-in.o
 .text.DrvPWMSetPeriod
                0x0000000000000000       0x64 drivers/built-in.o
 .text.DrvPWMGetPeriod
                0x0000000000000000       0x80 drivers/built-in.o
 .text.DrvPWMSetPolarity
                0x0000000000000000       0x34 drivers/built-in.o
 .text.DrvPWMGetPolarity
                0x0000000000000000       0x1c drivers/built-in.o
 .text.DrvPWMSetDben
                0x0000000000000000       0x58 drivers/built-in.o
 .text.DrvPWMEnable
                0x0000000000000000       0x98 drivers/built-in.o
 .text.DrvPWMEnableGet
                0x0000000000000000       0x20 drivers/built-in.o
 .text.DrvPWMPadSet
                0x0000000000000000       0xec drivers/built-in.o
 .text.DrvPWMInit
                0x0000000000000000       0x64 drivers/built-in.o
 .rodata.input_stdio_register.str1.1
                0x0000000000000000        0x6 drivers/built-in.o
 .rodata.kbd_plain_xlate
                0x0000000000000000       0x63 drivers/built-in.o
 .rodata.kbd_to_ansi364
                0x0000000000000000       0x20 drivers/built-in.o
 .rodata.Hal_SDMMC_DumpMemTool.str1.1
                0x0000000000000000       0x20 drivers/built-in.o
 .rodata.HAL_FSP_ReadStatusReg.str1.1
                0x0000000000000000       0x12 drivers/built-in.o
 .rodata.HAL_FSP_Write_Burst.str1.1
                0x0000000000000000       0x39 drivers/built-in.o
 .rodata.HAL_MAP_Read.str1.1
                0x0000000000000000       0x1b drivers/built-in.o
 .rodata.HAL_SERFLASH_ChipSelect.str1.1
                0x0000000000000000        0xc drivers/built-in.o
 .rodata.HAL_SERFLASH_Set2XREAD.str1.1
                0x0000000000000000       0x2a drivers/built-in.o
 .rodata.HAL_SERFLASH_SetGPIO.str1.1
                0x0000000000000000       0x13 drivers/built-in.o
 .rodata.HAL_SERFLASH_WriteProtect_Area.str1.1
                0x0000000000000000       0x10 drivers/built-in.o
 .rodata.HAL_SPI_EnterIBPM.str1.1
                0x0000000000000000       0x1f drivers/built-in.o
 .rodata.HAL_SPI_SingleBlockLock.str1.1
                0x0000000000000000       0x29 drivers/built-in.o
 .rodata._HAL_SERFLASH_WaitReadDataRdy.str1.1
                0x0000000000000000       0x25 drivers/built-in.o
 .rodata._HAL_SERFLASH_WaitWriteDataRdy.str1.1
                0x0000000000000000       0x26 drivers/built-in.o
 .rodata._HAL_SERFLASH_WaitWriteDone.str1.1
                0x0000000000000000       0x22 drivers/built-in.o
 .rodata.__FUNCTION__.6942
                0x0000000000000000       0x17 drivers/built-in.o
 .rodata.__FUNCTION__.6966
                0x0000000000000000       0x55 drivers/built-in.o
 .rodata.__FUNCTION__.6988
                0x0000000000000000       0x39 drivers/built-in.o
 .rodata.__FUNCTION__.7023
                0x0000000000000000       0x1c drivers/built-in.o
 .rodata.__FUNCTION__.7062
                0x0000000000000000       0x1f drivers/built-in.o
 .rodata.__FUNCTION__.7071
                0x0000000000000000       0x31 drivers/built-in.o
 .rodata.__FUNCTION__.7094
                0x0000000000000000       0x15 drivers/built-in.o
 .rodata.__FUNCTION__.7120
                0x0000000000000000       0x1c drivers/built-in.o
 .rodata.__FUNCTION__.7125
                0x0000000000000000       0x1c drivers/built-in.o
 .rodata.__FUNCTION__.7135
                0x0000000000000000       0x12 drivers/built-in.o
 .rodata.__FUNCTION__.7142
                0x0000000000000000       0x18 drivers/built-in.o
 .rodata.__FUNCTION__.7148
                0x0000000000000000       0x16 drivers/built-in.o
 .rodata.__FUNCTION__.7154
                0x0000000000000000       0x18 drivers/built-in.o
 .rodata.__FUNCTION__.7230
                0x0000000000000000       0x2e drivers/built-in.o
 .rodata.__FUNCTION__.7342
                0x0000000000000000       0x1a drivers/built-in.o
 .rodata.__FUNCTION__.7360
                0x0000000000000000       0x3b drivers/built-in.o
 .rodata.__FUNCTION__.7365
                0x0000000000000000       0x3b drivers/built-in.o
 .rodata.__FUNCTION__.7420
                0x0000000000000000       0x1d drivers/built-in.o
 .rodata.MDrv_SERFLASH_GetInfo.str1.1
                0x0000000000000000       0x6d drivers/built-in.o
 .rodata.MDrv_SERFLASH_ReadID.str1.1
                0x0000000000000000        0xc drivers/built-in.o
 .rodata.MDrv_SERFLASH_WriteProtect_Area.str1.1
                0x0000000000000000       0x10 drivers/built-in.o
 .rodata.MDrv_SERFLASH_WriteProtect_Disable_Range_Set.str1.1
                0x0000000000000000       0x67 drivers/built-in.o
 .rodata.__FUNCTION__.6833
                0x0000000000000000        0xe drivers/built-in.o
 .rodata.__FUNCTION__.6852
                0x0000000000000000       0x19 drivers/built-in.o
 .rodata.__FUNCTION__.6861
                0x0000000000000000       0x18 drivers/built-in.o
 .rodata.__FUNCTION__.6866
                0x0000000000000000       0x15 drivers/built-in.o
 .rodata.__FUNCTION__.6870
                0x0000000000000000       0x15 drivers/built-in.o
 .rodata.__FUNCTION__.6875
                0x0000000000000000       0x16 drivers/built-in.o
 .rodata.__FUNCTION__.6880
                0x0000000000000000       0x19 drivers/built-in.o
 .rodata.__FUNCTION__.6888
                0x0000000000000000       0x18 drivers/built-in.o
 .rodata.__FUNCTION__.6898
                0x0000000000000000       0x1d drivers/built-in.o
 .rodata.__FUNCTION__.6931
                0x0000000000000000       0x1d drivers/built-in.o
 .rodata.__FUNCTION__.6951
                0x0000000000000000       0x2c drivers/built-in.o
 .rodata.__FUNCTION__.6955
                0x0000000000000000       0x2d drivers/built-in.o
 .rodata.__FUNCTION__.6975
                0x0000000000000000       0x20 drivers/built-in.o
 .rodata.__FUNCTION__.6980
                0x0000000000000000       0x15 drivers/built-in.o
 .rodata.__FUNCTION__.6984
                0x0000000000000000       0x21 drivers/built-in.o
 .rodata.__FUNCTION__.6992
                0x0000000000000000       0x22 drivers/built-in.o
 .rodata.HAL_SPINAND_Config.str1.1
                0x0000000000000000       0x14 drivers/built-in.o
 .rodata.__func__.7839
                0x0000000000000000       0x17 drivers/built-in.o
 .rodata.dumpPartition.str1.1
                0x0000000000000000       0x9e drivers/built-in.o
 .rodata.dump_mem.str1.1
                0x0000000000000000       0x17 drivers/built-in.o
 .rodata.dumpInformation.str1.1
                0x0000000000000000      0x11d drivers/built-in.o
 .rodata.Dump_Data.str1.1
                0x0000000000000000       0x27 drivers/built-in.o
 .rodata.flib_Host20_Interrupt_Init.str1.1
                0x0000000000000000       0x1f drivers/built-in.o
 .rodata.flib_Host20_SetControl1MaxPacket.str1.1
                0x0000000000000000       0x17 drivers/built-in.o
 .rodata.waIntervalMap
                0x0000000000000000       0x16 drivers/built-in.o
 .rodata.usb_bulk_transfer_in_ex.str1.1
                0x0000000000000000       0x22 drivers/built-in.o
 .rodata.MHal_EMAC_WriteProtect.str1.1
                0x0000000000000000       0x20 drivers/built-in.o
 .rodata.MDev_EMAC_stats.str1.1
                0x0000000000000000       0x5e drivers/built-in.o
 .rodata.MDrv_EMAC_Bist.str1.1
                0x0000000000000000       0x40 drivers/built-in.o
 .rodata.MDrv_EMAC_DumpReg.str1.1
                0x0000000000000000       0x5a drivers/built-in.o
 .rodata.MDrv_EMAC_WaveTest.str1.1
                0x0000000000000000       0x22 drivers/built-in.o
 .rodata.do_bistMac.str1.1
                0x0000000000000000       0x6b drivers/built-in.o
 .rodata.do_dumpMac.str1.1
                0x0000000000000000       0x2e drivers/built-in.o
 .rodata.do_ewavetest.str1.1
                0x0000000000000000       0x43 drivers/built-in.o
 .rodata.do_loadspi.str1.1
                0x0000000000000000       0x32 drivers/built-in.o
 .rodata.MHal_GPIO_Set_Driving.str1.1
                0x0000000000000000       0x30 drivers/built-in.o
 .rodata.MDrv_SW_IIC_Write.str1.1
                0x0000000000000000       0x65 drivers/built-in.o
 .rodata.__FUNCTION__.6584
                0x0000000000000000       0x32 drivers/built-in.o
 .rodata.__FUNCTION__.6605
                0x0000000000000000       0x11 drivers/built-in.o
 .rodata.g_ptCHIPTOP
                0x0000000000000000        0x4 drivers/built-in.o
 .rodata.g_ptCLKGEN
                0x0000000000000000        0x4 drivers/built-in.o
 .rodata.g_ptI2C0
                0x0000000000000000        0x4 drivers/built-in.o
 .rodata.g_ptI2C1
                0x0000000000000000        0x4 drivers/built-in.o
 .rodata.showRegAddr.str1.1
                0x0000000000000000       0x56 drivers/built-in.o
 .rodata.wdt_reset.str1.1
                0x0000000000000000       0x17 drivers/built-in.o
 .rodata.wdt_set_timeout.str1.1
                0x0000000000000000       0x25 drivers/built-in.o
 .rodata.wdt_start.str1.1
                0x0000000000000000       0x2c drivers/built-in.o
 .rodata.wdt_stop.str1.1
                0x0000000000000000       0x15 drivers/built-in.o
 .rodata.DrvDispCtxDeInit.str1.1
                0x0000000000000000       0x1f drivers/built-in.o
 .rodata.DrvDispCtxGetCurCtx.str1.1
                0x0000000000000000       0x33 drivers/built-in.o
 .rodata._DrvDispCtxFreeDevContain.str1.1
                0x0000000000000000       0x23 drivers/built-in.o
 .rodata._DrvDispCtxFreeInputPortContain.str1.1
                0x0000000000000000       0x1e drivers/built-in.o
 .rodata.__DrvDispCtxUnBindInputPortWidthVidLayer.str1.1
                0x0000000000000000       0x2a drivers/built-in.o
 .rodata.__FUNCTION__.6776
                0x0000000000000000       0x29 drivers/built-in.o
 .rodata.__FUNCTION__.6855
                0x0000000000000000       0x1a drivers/built-in.o
 .rodata.__FUNCTION__.6878
                0x0000000000000000       0x1f drivers/built-in.o
 .rodata.__FUNCTION__.6901
                0x0000000000000000       0x20 drivers/built-in.o
 .rodata.__FUNCTION__.6915
                0x0000000000000000       0x11 drivers/built-in.o
 .rodata.__FUNCTION__.6938
                0x0000000000000000        0xf drivers/built-in.o
 .rodata.__FUNCTION__.6969
                0x0000000000000000       0x14 drivers/built-in.o
 .rodata.DrvDispIrqEnable.str1.1
                0x0000000000000000       0x2e drivers/built-in.o
 .rodata.DrvDispIrqGetIsrNum.str1.1
                0x0000000000000000       0x76 drivers/built-in.o
 .rodata.DrvDispIrqSetIsrNum.str1.1
                0x0000000000000000       0x25 drivers/built-in.o
 .rodata.__FUNCTION__.7325
                0x0000000000000000       0x37 drivers/built-in.o
 .rodata.__FUNCTION__.7340
                0x0000000000000000       0x35 drivers/built-in.o
 .rodata.__FUNCTION__.7356
                0x0000000000000000       0x10 drivers/built-in.o
 .rodata.DrvDispIfDeviceDestroyInstance.str1.1
                0x0000000000000000       0x4a drivers/built-in.o
 .rodata.DrvDispIfGetClk.str1.1
                0x0000000000000000       0x1f drivers/built-in.o
 .rodata._DrvDispIfTransDeviceColorTempToHal.str1.1
                0x0000000000000000       0x2a drivers/built-in.o
 .rodata._DrvDispIfTransDeviceCvbsParamToHal.str1.1
                0x0000000000000000        0xe drivers/built-in.o
 .rodata._DrvDispIfTransDeviceDisplayInfoToMhal.str1.1
                0x0000000000000000       0x3c drivers/built-in.o
 .rodata._DrvDispIfTransDeviceHdmiParamToHal.str1.1
                0x0000000000000000       0x3f drivers/built-in.o
 .rodata._DrvDispIfTransDeviceLcdParamToHal.str1.1
                0x0000000000000000       0x3e drivers/built-in.o
 .rodata._DrvDispIfTransDeviceVgaParamToHal.str1.1
                0x0000000000000000       0xae drivers/built-in.o
 .rodata._DrvDispIfTransInputPortCropAttrToHal.str1.1
                0x0000000000000000       0x1f drivers/built-in.o
 .rodata._DrvDispIfTransInputPortRotateToHal.str1.1
                0x0000000000000000       0x1d drivers/built-in.o
 .rodata._DrvDispIfTransVidLayerCompressToHal.str1.1
                0x0000000000000000        0xf drivers/built-in.o
 .rodata._DrvDispIfTransdeviceGammaParamToHal.str1.1
                0x0000000000000000       0x1b drivers/built-in.o
 .rodata.__FUNCTION__.7345
                0x0000000000000000       0x23 drivers/built-in.o
 .rodata.__FUNCTION__.7350
                0x0000000000000000       0x24 drivers/built-in.o
 .rodata.__FUNCTION__.7370
                0x0000000000000000       0x21 drivers/built-in.o
 .rodata.__FUNCTION__.7379
                0x0000000000000000       0x27 drivers/built-in.o
 .rodata.__FUNCTION__.7384
                0x0000000000000000       0x25 drivers/built-in.o
 .rodata.__FUNCTION__.7394
                0x0000000000000000       0x24 drivers/built-in.o
 .rodata.__FUNCTION__.7404
                0x0000000000000000       0x26 drivers/built-in.o
 .rodata.__FUNCTION__.7463
                0x0000000000000000       0x1f drivers/built-in.o
 .rodata.__FUNCTION__.7579
                0x0000000000000000       0x23 drivers/built-in.o
 .rodata.__FUNCTION__.7644
                0x0000000000000000       0x22 drivers/built-in.o
 .rodata.MHAL_DISP_ClearDevInterrupt.str1.1
                0x0000000000000000       0x22 drivers/built-in.o
 .rodata.MHAL_DISP_DeviceAttach.str1.1
                0x0000000000000000       0x5a drivers/built-in.o
 .rodata.MHAL_DISP_DeviceDetach.str1.1
                0x0000000000000000       0x26 drivers/built-in.o
 .rodata.MHAL_DISP_DeviceGetDisplayInfo.str1.1
                0x0000000000000000       0x2b drivers/built-in.o
 .rodata.MHAL_DISP_DeviceGetTimeZone.str1.1
                0x0000000000000000       0x28 drivers/built-in.o
 .rodata.MHAL_DISP_DeviceSetColorTempeture.str1.1
                0x0000000000000000       0x5c drivers/built-in.o
 .rodata.MHAL_DISP_DeviceSetCvbsParam.str1.1
                0x0000000000000000       0x57 drivers/built-in.o
 .rodata.MHAL_DISP_DeviceSetGammaParam.str1.1
                0x0000000000000000       0x59 drivers/built-in.o
 .rodata.MHAL_DISP_DeviceSetHdmiParam.str1.1
                0x0000000000000000       0x57 drivers/built-in.o
 .rodata.MHAL_DISP_DeviceSetLcdParam.str1.1
                0x0000000000000000       0x55 drivers/built-in.o
 .rodata.MHAL_DISP_DeviceSetVgaParam.str1.1
                0x0000000000000000       0x55 drivers/built-in.o
 .rodata.MHAL_DISP_EnableDevIrq.str1.1
                0x0000000000000000       0x44 drivers/built-in.o
 .rodata.MHAL_DISP_InputPortAttrBegin.str1.1
                0x0000000000000000       0x2b drivers/built-in.o
 .rodata.MHAL_DISP_InputPortAttrEnd.str1.1
                0x0000000000000000       0x29 drivers/built-in.o
 .rodata.MHAL_DISP_InputPortHide.str1.1
                0x0000000000000000       0x26 drivers/built-in.o
 .rodata.MHAL_DISP_InputPortRotate.str1.1
                0x0000000000000000       0x28 drivers/built-in.o
 .rodata.MHAL_DISP_InputPortShow.str1.1
                0x0000000000000000       0x26 drivers/built-in.o
 .rodata.MHAL_DISP_VideoLayerBind.str1.1
                0x0000000000000000       0x59 drivers/built-in.o
 .rodata.MHAL_DISP_VideoLayerBufferFire.str1.1
                0x0000000000000000       0x2d drivers/built-in.o
 .rodata.MHAL_DISP_VideoLayerCheckBufferFired.str1.1
                0x0000000000000000       0x33 drivers/built-in.o
 .rodata.MHAL_DISP_VideoLayerDestoryInstance.str1.1
                0x0000000000000000       0x4e drivers/built-in.o
 .rodata.MHAL_DISP_VideoLayerEnable.str1.1
                0x0000000000000000       0x28 drivers/built-in.o
 .rodata.MHAL_DISP_VideoLayerSetAttr.str1.1
                0x0000000000000000       0x5c drivers/built-in.o
 .rodata.MHAL_DISP_VideoLayerSetCompress.str1.1
                0x0000000000000000       0x69 drivers/built-in.o
 .rodata.MHAL_DISP_VideoLayerSetPriority.str1.1
                0x0000000000000000       0x2e drivers/built-in.o
 .rodata.MHAL_DISP_VideoLayerUnBind.str1.1
                0x0000000000000000       0x29 drivers/built-in.o
 .rodata.__FUNCTION__.7163
                0x0000000000000000       0x20 drivers/built-in.o
 .rodata.__FUNCTION__.7194
                0x0000000000000000       0x22 drivers/built-in.o
 .rodata.__FUNCTION__.7206
                0x0000000000000000       0x1d drivers/built-in.o
 .rodata.__FUNCTION__.7212
                0x0000000000000000       0x1c drivers/built-in.o
 .rodata.__FUNCTION__.7218
                0x0000000000000000       0x1e drivers/built-in.o
 .rodata.__FUNCTION__.7224
                0x0000000000000000       0x1c drivers/built-in.o
 .rodata.__FUNCTION__.7236
                0x0000000000000000       0x17 drivers/built-in.o
 .rodata.__FUNCTION__.7242
                0x0000000000000000       0x1c drivers/built-in.o
 .rodata.__FUNCTION__.7248
                0x0000000000000000       0x1f drivers/built-in.o
 .rodata.__FUNCTION__.7254
                0x0000000000000000       0x1c drivers/built-in.o
 .rodata.__FUNCTION__.7266
                0x0000000000000000       0x24 drivers/built-in.o
 .rodata.__FUNCTION__.7272
                0x0000000000000000       0x1b drivers/built-in.o
 .rodata.__FUNCTION__.7278
                0x0000000000000000       0x19 drivers/built-in.o
 .rodata.__FUNCTION__.7284
                0x0000000000000000       0x1b drivers/built-in.o
 .rodata.__FUNCTION__.7290
                0x0000000000000000       0x1c drivers/built-in.o
 .rodata.__FUNCTION__.7295
                0x0000000000000000       0x1f drivers/built-in.o
 .rodata.__FUNCTION__.7300
                0x0000000000000000       0x25 drivers/built-in.o
 .rodata.__FUNCTION__.7306
                0x0000000000000000       0x20 drivers/built-in.o
 .rodata.__FUNCTION__.7312
                0x0000000000000000       0x20 drivers/built-in.o
 .rodata.__FUNCTION__.7353
                0x0000000000000000       0x18 drivers/built-in.o
 .rodata.__FUNCTION__.7358
                0x0000000000000000       0x1d drivers/built-in.o
 .rodata.__FUNCTION__.7363
                0x0000000000000000       0x1b drivers/built-in.o
 .rodata.__FUNCTION__.7369
                0x0000000000000000       0x1a drivers/built-in.o
 .rodata.__FUNCTION__.7375
                0x0000000000000000       0x1f drivers/built-in.o
 .rodata.__FUNCTION__.7387
                0x0000000000000000       0x17 drivers/built-in.o
 .rodata.__FUNCTION__.7393
                0x0000000000000000       0x1c drivers/built-in.o
 .rodata.__FUNCTION__.7405
                0x0000000000000000       0x14 drivers/built-in.o
 .rodata.HalDispIfDeInit.str1.1
                0x0000000000000000       0x21 drivers/built-in.o
 .rodata.__FUNCTION__.7960
                0x0000000000000000       0x10 drivers/built-in.o
 .rodata.__FUNCTION__.6822
                0x0000000000000000       0x1e drivers/built-in.o
 .rodata.__FUNCTION__.6826
                0x0000000000000000       0x16 drivers/built-in.o
 .rodata.__FUNCTION__.6830
                0x0000000000000000       0x19 drivers/built-in.o
 .rodata.__FUNCTION__.6834
                0x0000000000000000       0x1a drivers/built-in.o
 .rodata.__FUNCTION__.6842
                0x0000000000000000       0x16 drivers/built-in.o
 .rodata.HalDispColorAdjustPCContrast.str1.1
                0x0000000000000000       0x14 drivers/built-in.o
 .rodata.HalDispColorAdjustPCRGB.str1.1
                0x0000000000000000       0x1c drivers/built-in.o
 .rodata.HalDispColorAdjustVideoCbCr.str1.1
                0x0000000000000000       0x1b drivers/built-in.o
 .rodata.HalDispColorAdjustVideoContrast.str1.1
                0x0000000000000000       0x16 drivers/built-in.o
 .rodata.HalDispColorAdjustVideoHue.str1.1
                0x0000000000000000       0x15 drivers/built-in.o
 .rodata.HalDispColorAdjustVideoSaturation.str1.1
                0x0000000000000000       0x15 drivers/built-in.o
 .rodata.__FUNCTION__.6589
                0x0000000000000000       0x22 drivers/built-in.o
 .rodata.__FUNCTION__.6595
                0x0000000000000000       0x1c drivers/built-in.o
 .rodata.__FUNCTION__.6600
                0x0000000000000000       0x1b drivers/built-in.o
 .rodata.__FUNCTION__.6615
                0x0000000000000000       0x20 drivers/built-in.o
 .rodata.__FUNCTION__.6620
                0x0000000000000000       0x1d drivers/built-in.o
 .rodata.__FUNCTION__.6627
                0x0000000000000000       0x18 drivers/built-in.o
 .rodata.DrvPnlCtxDeInit.str1.1
                0x0000000000000000       0x25 drivers/built-in.o
 .rodata.__FUNCTION__.6763
                0x0000000000000000       0x10 drivers/built-in.o
 .rodata.__FUNCTION__.6799
                0x0000000000000000        0xe drivers/built-in.o
 .rodata.DrvPnlIfDestroyInstance.str1.1
                0x0000000000000000       0x4a drivers/built-in.o
 .rodata.DrvPnlIfGetClkConfig.str1.1
                0x0000000000000000       0x1f drivers/built-in.o
 .rodata.DrvPnlIfGetInstance.str1.1
                0x0000000000000000       0x24 drivers/built-in.o
 .rodata.__FUNCTION__.7100
                0x0000000000000000       0x18 drivers/built-in.o
 .rodata.__FUNCTION__.6676
                0x0000000000000000       0x17 drivers/built-in.o
 .rodata.__FUNCTION__.6688
                0x0000000000000000       0x16 drivers/built-in.o
 .rodata.__FUNCTION__.6700
                0x0000000000000000       0x18 drivers/built-in.o
 .rodata.__FUNCTION__.6706
                0x0000000000000000       0x14 drivers/built-in.o
 .rodata.__FUNCTION__.6712
                0x0000000000000000       0x17 drivers/built-in.o
 .rodata.__FUNCTION__.6718
                0x0000000000000000       0x17 drivers/built-in.o
 .rodata.__FUNCTION__.6724
                0x0000000000000000       0x16 drivers/built-in.o
 .rodata.__FUNCTION__.6730
                0x0000000000000000       0x16 drivers/built-in.o
 .rodata.__FUNCTION__.6736
                0x0000000000000000       0x1f drivers/built-in.o
 .rodata.__FUNCTION__.6742
                0x0000000000000000       0x1f drivers/built-in.o
 .rodata.__FUNCTION__.6748
                0x0000000000000000       0x1f drivers/built-in.o
 .rodata.__FUNCTION__.6754
                0x0000000000000000       0x1f drivers/built-in.o
 .rodata.__FUNCTION__.6760
                0x0000000000000000       0x1b drivers/built-in.o
 .rodata.__FUNCTION__.6766
                0x0000000000000000       0x1c drivers/built-in.o
 .rodata.HalPnlIfDeInit.str1.1
                0x0000000000000000       0x21 drivers/built-in.o
 .rodata.HalPnlGetMipiDsiShortPacket.str1.1
                0x0000000000000000       0x59 drivers/built-in.o
 .rodata.__FUNCTION__.7020
                0x0000000000000000       0x12 drivers/built-in.o
 .rodata.fill_input_buffer.str1.1
                0x0000000000000000       0x50 drivers/built-in.o
 .rodata.HAL_MSPI_Init.str1.1
                0x0000000000000000       0x30 drivers/built-in.o
 .rodata.HAL_MSPI_Write.str1.1
                0x0000000000000000       0x1c drivers/built-in.o
 .rodata.MDrv_MSPI_DMA_Write.str1.1
                0x0000000000000000       0x1a drivers/built-in.o
 .rodata._HAL_MSPI_Trigger.str1.1
                0x0000000000000000       0x39 drivers/built-in.o
 .rodata.__func__.7019
                0x0000000000000000        0x9 drivers/built-in.o
 .rodata.clk_spi_ckg
                0x0000000000000000        0x4 drivers/built-in.o
 .rodata.clk_spi_div
                0x0000000000000000       0x10 drivers/built-in.o
 .rodata.spi_setup_slave.str1.1
                0x0000000000000000       0x25 drivers/built-in.o
 .rodata.spi_xfer.str1.1
                0x0000000000000000       0x54 drivers/built-in.o
 .rodata.DrvPWMPadSet.str1.1
                0x0000000000000000       0x54 drivers/built-in.o
 .rodata.DrvPWMSetDuty.str1.1
                0x0000000000000000       0x15 drivers/built-in.o
 .rodata.DrvPWMSetPeriod.str1.1
                0x0000000000000000       0x18 drivers/built-in.o
 .rodata.__FUNCTION__.6421
                0x0000000000000000        0xd drivers/built-in.o
 .rodata.padTbl
                0x0000000000000000       0x10 drivers/built-in.o
 .data          0x0000000000000000        0x0 drivers/built-in.o
 .data.kbd_ctrl_xlate
                0x0000000000000000       0x63 drivers/built-in.o
 .data.kbd_shift_xlate
                0x0000000000000000       0x63 drivers/built-in.o
 .data._pstWriteProtectTable_GD25Q32_CMP1
                0x0000000000000000      0x180 drivers/built-in.o
 .data._pstWriteProtectTable_S25FL032K_CMP1
                0x0000000000000000      0x108 drivers/built-in.o
 .data._pstWriteProtectTable_W25Q128CV_CMP1
                0x0000000000000000      0x108 drivers/built-in.o
 .data._pstWriteProtectTable_W25Q32BV_CMP1
                0x0000000000000000      0x108 drivers/built-in.o
 .data._pstWriteProtectTable_W25Q64CV_CMP1
                0x0000000000000000      0x108 drivers/built-in.o
 .data.gChipBaseAddr
                0x0000000000000000        0x4 drivers/built-in.o
 .data.gPmSleepBaseAddr
                0x0000000000000000        0x4 drivers/built-in.o
 .data.gSarBaseAddr
                0x0000000000000000        0x4 drivers/built-in.o
 .data.access_dummy_time
                0x0000000000000000        0x4 drivers/built-in.o
 .data.gpioi2c_delay_us
                0x0000000000000000        0x4 drivers/built-in.o
 .data.stDacTrimNonLinear
                0x0000000000000000        0xa drivers/built-in.o
 .data.ST_INIT_DAC_TGEN_COMMON_TBL
                0x0000000000000000       0x14 drivers/built-in.o
 .data.ST_INIT_DAC_TGEN_TBL
                0x0000000000000000       0xa8 drivers/built-in.o
 .data.ST_INIT_FPLL_CTRL_COMMON_TBL
                0x0000000000000000       0x19 drivers/built-in.o
 .data.ST_INIT_FPLL_CTRL_TBL
                0x0000000000000000       0x93 drivers/built-in.o
 .data.ST_INIT_HDMITX_ATOP_COMMON_TBL
                0x0000000000000000       0x55 drivers/built-in.o
 .data.ST_INIT_HDMITX_ATOP_TBL
                0x0000000000000000      0x13b drivers/built-in.o
 .data.ST_INIT_IDAC_ATOP_COMMON_TBL
                0x0000000000000000       0x23 drivers/built-in.o
 .data.ST_INIT_IDAC_ATOP_TBL
                0x0000000000000000       0x2a drivers/built-in.o
 .data.stHAL_DISP_VGA_TIMING_TBL
                0x0000000000000000       0x60 drivers/built-in.o
 .data.padmux_mode
                0x0000000000000000        0x7 drivers/built-in.o
 .data.padTbl_0
                0x0000000000000000       0xe0 drivers/built-in.o
 .data.padTbl_1
                0x0000000000000000       0xe0 drivers/built-in.o
 .data.padTbl_2
                0x0000000000000000       0xe0 drivers/built-in.o
 .data.padTbl_3
                0x0000000000000000       0xe0 drivers/built-in.o
 .bss           0x0000000000000000        0x0 drivers/built-in.o
 .bss._bIBPM    0x0000000000000000        0x1 drivers/built-in.o
 .bss._bXIUMode
                0x0000000000000000        0x1 drivers/built-in.o
 .bss.McuChipSelectCB
                0x0000000000000000        0x4 drivers/built-in.o
 .bss.gSpiMode  0x0000000000000000        0x4 drivers/built-in.o
 .bss.Host20_FramList
                0x0000000000000000      0x400 drivers/built-in.o
 .bss.Host20_qHD_List_Intr
                0x0000000000000000       0x30 drivers/built-in.o
 .bss.MHalThisUVE
                0x0000000000000000       0x14 drivers/built-in.o
 .bss.TX_BUFFER_BASE
                0x0000000000000000        0x4 drivers/built-in.o
 .bss.ustart    0x0000000000000000        0x1 drivers/built-in.o
 .bss.g_I2CBusCfg
                0x0000000000000000       0x28 drivers/built-in.o
 .bss.gbDispIrqInit
                0x0000000000000000        0x1 drivers/built-in.o
 .bss.gstDispIrqCfg
                0x0000000000000000       0x18 drivers/built-in.o
 .bss.gu16DacTrim
                0x0000000000000000        0x6 drivers/built-in.o
 .bss.gu32JTAGmode
                0x0000000000000000        0x4 drivers/built-in.o
 .bss.clk_buffer
                0x0000000000000000      0x100 drivers/built-in.o
 .bss.gbInitFlag
                0x0000000000000000        0x1 drivers/built-in.o
 .bss._pwmEnSatus
                0x0000000000000000        0x4 drivers/built-in.o
 .bss._pwmPeriod
                0x0000000000000000       0x10 drivers/built-in.o
 .text          0x0000000000000000        0x0 drivers/i2c/built-in.o
 .text.i2c_reloc_fixup
                0x0000000000000000        0x4 drivers/i2c/built-in.o
 .text.i2c_init_board
                0x0000000000000000        0x4 drivers/i2c/built-in.o
 .text.i2c_reg_read
                0x0000000000000000       0x20 drivers/i2c/built-in.o
 .text.i2c_reg_write
                0x0000000000000000       0x20 drivers/i2c/built-in.o
 .data          0x0000000000000000        0x0 drivers/i2c/built-in.o
 .bss           0x0000000000000000        0x0 drivers/i2c/built-in.o
 .text          0x0000000000000000        0x0 drivers/mmc/built-in.o
 .text.mmc_register
                0x0000000000000000       0x20 drivers/mmc/built-in.o
 .text.mmc_destroy
                0x0000000000000000        0x4 drivers/mmc/built-in.o
 .text.board_mmc_init
                0x0000000000000000        0x8 drivers/mmc/built-in.o
 .text.mmc_set_preinit
                0x0000000000000000        0x8 drivers/mmc/built-in.o
 .text.mmc_slc_mode
                0x0000000000000000      0x350 drivers/mmc/built-in.o
 .text.mmc_ecsd_read
                0x0000000000000000       0x5c drivers/mmc/built-in.o
 .text.mmc_ecsd_write
                0x0000000000000000       0x58 drivers/mmc/built-in.o
 .text.mmc_slc_check
                0x0000000000000000       0xac drivers/mmc/built-in.o
 .text.mmc_relwr_check
                0x0000000000000000       0x9c drivers/mmc/built-in.o
 .text.mmc_slc_relwr_check
                0x0000000000000000       0x98 drivers/mmc/built-in.o
 .text.mmc_get_alignsize
                0x0000000000000000       0x44 drivers/mmc/built-in.o
 .rodata.__func__.6826
                0x0000000000000000        0xd drivers/mmc/built-in.o
 .rodata.mmc_ecsd_read.str1.1
                0x0000000000000000       0x31 drivers/mmc/built-in.o
 .rodata.mmc_get_alignsize.str1.1
                0x0000000000000000       0x48 drivers/mmc/built-in.o
 .rodata.mmc_register.str1.1
                0x0000000000000000       0x2d drivers/mmc/built-in.o
 .rodata.mmc_relwr_check.str1.1
                0x0000000000000000        0x9 drivers/mmc/built-in.o
 .rodata.mmc_slc_check.str1.1
                0x0000000000000000       0x3b drivers/mmc/built-in.o
 .rodata.mmc_slc_mode.str1.1
                0x0000000000000000      0x239 drivers/mmc/built-in.o
 .rodata.mmc_slc_relwr_check.str1.1
                0x0000000000000000       0xb5 drivers/mmc/built-in.o
 .data          0x0000000000000000        0x0 drivers/mmc/built-in.o
 .bss           0x0000000000000000        0x0 drivers/mmc/built-in.o
 .text          0x0000000000000000        0x0 drivers/mtd/built-in.o
 .text.idr_remove
                0x0000000000000000       0x14 drivers/mtd/built-in.o
 .text.idr_find
                0x0000000000000000       0x14 drivers/mtd/built-in.o
 .text.idr_alloc
                0x0000000000000000       0x3c drivers/mtd/built-in.o
 .text.mtd_get_unmapped_area
                0x0000000000000000       0x6c drivers/mtd/built-in.o
 .text.mtd_panic_write
                0x0000000000000000       0xa0 drivers/mtd/built-in.o
 .text.mtd_get_fact_prot_info
                0x0000000000000000       0x34 drivers/mtd/built-in.o
 .text.mtd_read_fact_prot_reg
                0x0000000000000000       0x40 drivers/mtd/built-in.o
 .text.mtd_get_user_prot_info
                0x0000000000000000       0x34 drivers/mtd/built-in.o
 .text.mtd_read_user_prot_reg
                0x0000000000000000       0x40 drivers/mtd/built-in.o
 .text.mtd_write_user_prot_reg
                0x0000000000000000       0x64 drivers/mtd/built-in.o
 .text.mtd_lock_user_prot_reg
                0x0000000000000000       0x38 drivers/mtd/built-in.o
 .text.mtd_lock
                0x0000000000000000       0x7c drivers/mtd/built-in.o
 .text.mtd_is_locked
                0x0000000000000000       0x7c drivers/mtd/built-in.o
 .data          0x0000000000000000        0x0 drivers/mtd/built-in.o
 .bss           0x0000000000000000        0x0 drivers/mtd/built-in.o
 .bss.mtd_table
                0x0000000000000000       0x80 drivers/mtd/built-in.o
 .text          0x0000000000000000        0x0 drivers/mtd/nand/built-in.o
 .data          0x0000000000000000        0x0 drivers/mtd/nand/built-in.o
 .data.nand_manuf_ids
                0x0000000000000000       0x70 drivers/mtd/nand/built-in.o
 .bss           0x0000000000000000        0x0 drivers/mtd/nand/built-in.o
 .text          0x0000000000000000        0x0 drivers/mtd/spi/built-in.o
 .text.spi_flash_read_write
                0x0000000000000000       0x74 drivers/mtd/spi/built-in.o
 .text.spi_flash_cmd_read
                0x0000000000000000       0x1c drivers/mtd/spi/built-in.o
 .text.spi_flash_cmd
                0x0000000000000000       0x24 drivers/mtd/spi/built-in.o
 .text.spi_flash_cmd_write
                0x0000000000000000       0x20 drivers/mtd/spi/built-in.o
 .data          0x0000000000000000        0x0 drivers/mtd/spi/built-in.o
 .bss           0x0000000000000000        0x0 drivers/mtd/spi/built-in.o
 .comment       0x0000000000000000       0x5f drivers/mtd/spi/built-in.o
 .note.GNU-stack
                0x0000000000000000        0x0 drivers/mtd/spi/built-in.o
 .ARM.attributes
                0x0000000000000000       0x2d drivers/mtd/spi/built-in.o
 .debug_aranges
                0x0000000000000000       0x38 drivers/mtd/spi/built-in.o
 .debug_info    0x0000000000000000      0xe5c drivers/mtd/spi/built-in.o
 .debug_abbrev  0x0000000000000000      0x2e7 drivers/mtd/spi/built-in.o
 .debug_line    0x0000000000000000      0x1e8 drivers/mtd/spi/built-in.o
 .debug_frame   0x0000000000000000       0x88 drivers/mtd/spi/built-in.o
 .debug_str     0x0000000000000000      0x8fb drivers/mtd/spi/built-in.o
 .debug_loc     0x0000000000000000      0x43a drivers/mtd/spi/built-in.o
 .debug_ranges  0x0000000000000000       0x40 drivers/mtd/spi/built-in.o
 .text          0x0000000000000000        0x0 drivers/mtd/ubi/built-in.o
 .text.ubi_enumerate_volumes
                0x0000000000000000       0x44 drivers/mtd/ubi/built-in.o
 .text.ubi_put_device
                0x0000000000000000       0x10 drivers/mtd/ubi/built-in.o
 .text.ubi_get_by_major
                0x0000000000000000       0x50 drivers/mtd/ubi/built-in.o
 .text.ubi_major2num
                0x0000000000000000       0x44 drivers/mtd/ubi/built-in.o
 .text.ubi_vtbl_rename_volumes
                0x0000000000000000      0x144 drivers/mtd/ubi/built-in.o
 .text.ubi_remove_volume
                0x0000000000000000      0x124 drivers/mtd/ubi/built-in.o
 .text.ubi_rename_volumes
                0x0000000000000000       0x98 drivers/mtd/ubi/built-in.o
 .text.ubi_start_leb_change
                0x0000000000000000       0x9c drivers/mtd/ubi/built-in.o
 .text.ubi_more_leb_change_data
                0x0000000000000000      0x128 drivers/mtd/ubi/built-in.o
 .text.ubi_get_device_info
                0x0000000000000000       0x44 drivers/mtd/ubi/built-in.o
 .text.ubi_get_volume_info
                0x0000000000000000       0x14 drivers/mtd/ubi/built-in.o
 .text.ubi_close_volume
                0x0000000000000000       0x60 drivers/mtd/ubi/built-in.o
 .text.ubi_open_volume
                0x0000000000000000      0x1bc drivers/mtd/ubi/built-in.o
 .text.ubi_open_volume_nm
                0x0000000000000000       0xc4 drivers/mtd/ubi/built-in.o
 .text.ubi_leb_read
                0x0000000000000000      0x114 drivers/mtd/ubi/built-in.o
 .text.ubi_leb_write
                0x0000000000000000       0xd0 drivers/mtd/ubi/built-in.o
 .text.ubi_leb_change
                0x0000000000000000       0xc8 drivers/mtd/ubi/built-in.o
 .text.ubi_leb_erase
                0x0000000000000000       0x8c drivers/mtd/ubi/built-in.o
 .text.ubi_leb_unmap
                0x0000000000000000       0x68 drivers/mtd/ubi/built-in.o
 .text.ubi_leb_map
                0x0000000000000000       0x8c drivers/mtd/ubi/built-in.o
 .text.ubi_is_mapped
                0x0000000000000000       0x48 drivers/mtd/ubi/built-in.o
 .text.ubi_sync
                0x0000000000000000       0x3c drivers/mtd/ubi/built-in.o
 .text.ubi_flush
                0x0000000000000000       0x3c drivers/mtd/ubi/built-in.o
 .text.ubi_next_sqnum
                0x0000000000000000       0x20 drivers/mtd/ubi/built-in.o
 .text.ubi_eba_atomic_leb_change
                0x0000000000000000      0x3b8 drivers/mtd/ubi/built-in.o
 .text.self_check_eba
                0x0000000000000000      0x278 drivers/mtd/ubi/built-in.o
 .text.ubi_thread
                0x0000000000000000       0xe8 drivers/mtd/ubi/built-in.o
 .text.ubi_dump_mkvol_req
                0x0000000000000000       0x1c drivers/mtd/ubi/built-in.o
 .rodata.__func__.7789
                0x0000000000000000       0x12 drivers/mtd/ubi/built-in.o
 .rodata.ubi_remove_volume.str1.1
                0x0000000000000000       0x32 drivers/mtd/ubi/built-in.o
 .rodata.__func__.7815
                0x0000000000000000        0xd drivers/mtd/ubi/built-in.o
 .rodata.ubi_leb_read.str1.1
                0x0000000000000000       0x2e drivers/mtd/ubi/built-in.o
 .rodata.ubi_open_volume.str1.1
                0x0000000000000000       0x75 drivers/mtd/ubi/built-in.o
 .rodata.__func__.7914
                0x0000000000000000       0x1a drivers/mtd/ubi/built-in.o
 .rodata.self_check_eba.str1.1
                0x0000000000000000       0x33 drivers/mtd/ubi/built-in.o
 .rodata.__func__.8022
                0x0000000000000000        0xb drivers/mtd/ubi/built-in.o
 .rodata.ubi_thread.str1.1
                0x0000000000000000       0x82 drivers/mtd/ubi/built-in.o
 .data          0x0000000000000000        0x0 drivers/mtd/ubi/built-in.o
 .bss           0x0000000000000000        0x0 drivers/mtd/ubi/built-in.o
 .text          0x0000000000000000        0x0 drivers/serial/built-in.o
 .text.serial_reinit_all
                0x0000000000000000       0x28 drivers/serial/built-in.o
 .data          0x0000000000000000        0x0 drivers/serial/built-in.o
 .bss           0x0000000000000000        0x0 drivers/serial/built-in.o
 .text          0x0000000000000000        0x0 drivers/spi/built-in.o
 .text.spi_set_wordlen
                0x0000000000000000       0x30 drivers/spi/built-in.o
 .text.spi_do_alloc_slave
                0x0000000000000000       0x4c drivers/spi/built-in.o
 .rodata.spi_set_wordlen.str1.1
                0x0000000000000000       0x19 drivers/spi/built-in.o
 .data          0x0000000000000000        0x0 drivers/spi/built-in.o
 .bss           0x0000000000000000        0x0 drivers/spi/built-in.o
 .comment       0x0000000000000000       0x5f drivers/spi/built-in.o
 .note.GNU-stack
                0x0000000000000000        0x0 drivers/spi/built-in.o
 .ARM.attributes
                0x0000000000000000       0x2d drivers/spi/built-in.o
 .debug_aranges
                0x0000000000000000       0x28 drivers/spi/built-in.o
 .debug_info    0x0000000000000000      0xca5 drivers/spi/built-in.o
 .debug_abbrev  0x0000000000000000      0x244 drivers/spi/built-in.o
 .debug_line    0x0000000000000000      0x1c7 drivers/spi/built-in.o
 .debug_frame   0x0000000000000000       0x4c drivers/spi/built-in.o
 .debug_str     0x0000000000000000      0x976 drivers/spi/built-in.o
 .debug_loc     0x0000000000000000      0x133 drivers/spi/built-in.o
 .debug_ranges  0x0000000000000000       0x18 drivers/spi/built-in.o
 .text          0x0000000000000000        0x0 fs/built-in.o
 .text.fs_uuid  0x0000000000000000       0x28 fs/built-in.o
 .text.fs_exists
                0x0000000000000000       0x34 fs/built-in.o
 .text.fs_write
                0x0000000000000000       0x90 fs/built-in.o
 .text.file_exists
                0x0000000000000000       0x2c fs/built-in.o
 .text.do_save  0x0000000000000000      0x178 fs/built-in.o
 .text.do_fs_uuid
                0x0000000000000000       0x8c fs/built-in.o
 .text.file_fat_read
                0x0000000000000000       0x38 fs/built-in.o
 .text.do_fat_fsize
                0x0000000000000000      0x37c fs/built-in.o
 .text.file_getfsname
                0x0000000000000000       0x14 fs/built-in.o
 .text.file_cd  0x0000000000000000      0x1c0 fs/built-in.o
 .text.file_detectfs
                0x0000000000000000       0x40 fs/built-in.o
 .text.file_ls  0x0000000000000000       0x94 fs/built-in.o
 .text.file_read
                0x0000000000000000       0xa4 fs/built-in.o
 .rodata.do_fs_uuid.str1.1
                0x0000000000000000        0x4 fs/built-in.o
 .rodata.do_save.str1.1
                0x0000000000000000       0x1d fs/built-in.o
 .rodata.fs_write.str1.1
                0x0000000000000000       0x1f fs/built-in.o
 .rodata.file_detectfs.str1.1
                0x0000000000000000        0x2 fs/built-in.o
 .rodata.file_ls.str1.1
                0x0000000000000000       0x2e fs/built-in.o
 .rodata.file_read.str1.1
                0x0000000000000000       0x27 fs/built-in.o
 .rodata.filesystems
                0x0000000000000000       0x18 fs/built-in.o
 .data          0x0000000000000000        0x0 fs/built-in.o
 .data.current_filesystem
                0x0000000000000000        0x4 fs/built-in.o
 .data.file_cwd
                0x0000000000000000      0x200 fs/built-in.o
 .bss           0x0000000000000000        0x0 fs/built-in.o
 .text          0x0000000000000000        0x0 lib/built-in.o
 .text.inflateInit_
                0x0000000000000000       0x10 lib/built-in.o
 .text.crc7     0x0000000000000000       0x24 lib/built-in.o
 .text.crc8     0x0000000000000000       0x40 lib/built-in.o
 .text.cyg_crc16
                0x0000000000000000       0x44 lib/built-in.o
 .text.lmb_dump_all
                0x0000000000000000        0x4 lib/built-in.o
 .text.lmb_free
                0x0000000000000000       0xe8 lib/built-in.o
 .text.lmb_is_reserved
                0x0000000000000000       0x58 lib/built-in.o
 .text.arch_lmb_reserve
                0x0000000000000000        0x4 lib/built-in.o
 .text.ldiv     0x0000000000000000       0x3c lib/built-in.o
 .text.strmhz   0x0000000000000000       0x68 lib/built-in.o
 .text.__rb_erase_color
                0x0000000000000000      0x238 lib/built-in.o
 .text.__rb_insert_augmented
                0x0000000000000000      0x1a4 lib/built-in.o
 .text.rb_prev  0x0000000000000000       0x54 lib/built-in.o
 .text.rb_replace_node
                0x0000000000000000       0x60 lib/built-in.o
 .text.rb_next_postorder
                0x0000000000000000       0x48 lib/built-in.o
 .text.rb_first_postorder
                0x0000000000000000       0x34 lib/built-in.o
 .text.merge    0x0000000000000000       0x68 lib/built-in.o
 .text.list_sort
                0x0000000000000000      0x1a0 lib/built-in.o
 .text.crc32_wd_buf
                0x0000000000000000       0x38 lib/built-in.o
 .text.strncasecmp
                0x0000000000000000       0x80 lib/built-in.o
 .text.strcasecmp
                0x0000000000000000        0x8 lib/built-in.o
 .text.strcat   0x0000000000000000       0x34 lib/built-in.o
 .text.strncat  0x0000000000000000       0x54 lib/built-in.o
 .text.strrchr  0x0000000000000000       0x38 lib/built-in.o
 .text.strspn   0x0000000000000000       0x54 lib/built-in.o
 .text.strtok   0x0000000000000000       0x70 lib/built-in.o
 .text.strswab  0x0000000000000000       0x48 lib/built-in.o
 .text.bcopy    0x0000000000000000       0x28 lib/built-in.o
 .text.strlcpy  0x0000000000000000       0x50 lib/built-in.o
 .text.memscan  0x0000000000000000       0x28 lib/built-in.o
 .text.memchr   0x0000000000000000       0x30 lib/built-in.o
 .text.memchr_inv
                0x0000000000000000       0xf8 lib/built-in.o
 .text.tick_to_time
                0x0000000000000000       0x64 lib/built-in.o
 .text.get_ticks
                0x0000000000000000       0x2c lib/built-in.o
 .text.timer_init
                0x0000000000000000        0x8 lib/built-in.o
 .text.get_timer
                0x0000000000000000       0x18 lib/built-in.o
 .text.timer_get_us
                0x0000000000000000       0x24 lib/built-in.o
 .text.__udelay
                0x0000000000000000       0xb8 lib/built-in.o
 .text.ustrtoul
                0x0000000000000000       0x6c lib/built-in.o
 .text.ustrtoull
                0x0000000000000000       0x84 lib/built-in.o
 .text.__assert_fail
                0x0000000000000000       0x14 lib/built-in.o
 .text.print_grouped_ull
                0x0000000000000000       0x8c lib/built-in.o
 .rodata.str1.1
                0x0000000000000000       0x75 lib/built-in.o
 .rodata.z_errmsg
                0x0000000000000000       0x28 lib/built-in.o
 .rodata.crc7_syndrome_table
                0x0000000000000000      0x100 lib/built-in.o
 .rodata.crc16_tab
                0x0000000000000000      0x200 lib/built-in.o
 .rodata.strmhz.str1.1
                0x0000000000000000        0xb lib/built-in.o
 .rodata.list_sort.str1.1
                0x0000000000000000       0x34 lib/built-in.o
 .rodata.__assert_fail.str1.1
                0x0000000000000000       0x22 lib/built-in.o
 .rodata.print_grouped_ull.str1.1
                0x0000000000000000        0xb lib/built-in.o
 .data          0x0000000000000000        0x0 lib/built-in.o
 .data.cur      0x0000000000000000        0x4 lib/built-in.o
 .data.current  0x0000000000000000        0x4 lib/built-in.o
 .bss           0x0000000000000000        0x0 lib/built-in.o
 .bss.___strtok
                0x0000000000000000        0x4 lib/built-in.o
 .text          0x0000000000000000        0x0 net/built-in.o
 .text.eth_get_dev_by_name
                0x0000000000000000       0x80 net/built-in.o
 .text.eth_get_dev_by_index
                0x0000000000000000       0x38 net/built-in.o
 .text.eth_unregister
                0x0000000000000000       0x94 net/built-in.o
 .text.net_get_udp_handler
                0x0000000000000000       0x10 net/built-in.o
 .text.net_set_arp_handler
                0x0000000000000000       0x20 net/built-in.o
 .text.VLAN_to_string
                0x0000000000000000       0x44 net/built-in.o
 .rodata.__FUNCTION__.6748
                0x0000000000000000       0x14 net/built-in.o
 .rodata.eth_get_dev_by_name.str1.1
                0x0000000000000000       0x2c net/built-in.o
 .rodata.VLAN_to_string.str1.1
                0x0000000000000000        0x8 net/built-in.o
 .data          0x0000000000000000        0x0 net/built-in.o
 .data.TftpRRQTimeoutMSecs
                0x0000000000000000        0x4 net/built-in.o
 .bss           0x0000000000000000        0x0 net/built-in.o
 .bss.net_busy_flag
                0x0000000000000000        0x4 net/built-in.o
 .text          0x0000000000000000        0x0 arch/arm/lib/eabi_compat.o
 .data          0x0000000000000000        0x0 arch/arm/lib/eabi_compat.o
 .bss           0x0000000000000000        0x0 arch/arm/lib/eabi_compat.o
 .text.__aeabi_unwind_cpp_pr0
                0x0000000000000000        0x4 arch/arm/lib/eabi_compat.o
 .text.__aeabi_unwind_cpp_pr1
                0x0000000000000000        0x4 arch/arm/lib/eabi_compat.o
 .text.__aeabi_memcpy
                0x0000000000000000        0x4 arch/arm/lib/eabi_compat.o
 .text.__aeabi_memset
                0x0000000000000000       0x10 arch/arm/lib/eabi_compat.o
 .data          0x0000000000000000        0x0 /home/industio/ssd20x/gcc-arm-8.2-2018.08-x86_64-arm-linux-gnueabihf/bin/../lib/gcc/arm-linux-gnueabihf/8.2.1/libgcc.a(_udivsi3.o)
 .bss           0x0000000000000000        0x0 /home/industio/ssd20x/gcc-arm-8.2-2018.08-x86_64-arm-linux-gnueabihf/bin/../lib/gcc/arm-linux-gnueabihf/8.2.1/libgcc.a(_udivsi3.o)
 .data          0x0000000000000000        0x0 /home/industio/ssd20x/gcc-arm-8.2-2018.08-x86_64-arm-linux-gnueabihf/bin/../lib/gcc/arm-linux-gnueabihf/8.2.1/libgcc.a(_divsi3.o)
 .bss           0x0000000000000000        0x0 /home/industio/ssd20x/gcc-arm-8.2-2018.08-x86_64-arm-linux-gnueabihf/bin/../lib/gcc/arm-linux-gnueabihf/8.2.1/libgcc.a(_divsi3.o)
 .data          0x0000000000000000        0x0 /home/industio/ssd20x/gcc-arm-8.2-2018.08-x86_64-arm-linux-gnueabihf/bin/../lib/gcc/arm-linux-gnueabihf/8.2.1/libgcc.a(_arm_addsubdf3.o)
 .bss           0x0000000000000000        0x0 /home/industio/ssd20x/gcc-arm-8.2-2018.08-x86_64-arm-linux-gnueabihf/bin/../lib/gcc/arm-linux-gnueabihf/8.2.1/libgcc.a(_arm_addsubdf3.o)
 .data          0x0000000000000000        0x0 /home/industio/ssd20x/gcc-arm-8.2-2018.08-x86_64-arm-linux-gnueabihf/bin/../lib/gcc/arm-linux-gnueabihf/8.2.1/libgcc.a(_arm_muldivdf3.o)
 .bss           0x0000000000000000        0x0 /home/industio/ssd20x/gcc-arm-8.2-2018.08-x86_64-arm-linux-gnueabihf/bin/../lib/gcc/arm-linux-gnueabihf/8.2.1/libgcc.a(_arm_muldivdf3.o)
 .data          0x0000000000000000        0x0 /home/industio/ssd20x/gcc-arm-8.2-2018.08-x86_64-arm-linux-gnueabihf/bin/../lib/gcc/arm-linux-gnueabihf/8.2.1/libgcc.a(_arm_truncdfsf2.o)
 .bss           0x0000000000000000        0x0 /home/industio/ssd20x/gcc-arm-8.2-2018.08-x86_64-arm-linux-gnueabihf/bin/../lib/gcc/arm-linux-gnueabihf/8.2.1/libgcc.a(_arm_truncdfsf2.o)
 .data          0x0000000000000000        0x0 /home/industio/ssd20x/gcc-arm-8.2-2018.08-x86_64-arm-linux-gnueabihf/bin/../lib/gcc/arm-linux-gnueabihf/8.2.1/libgcc.a(_arm_addsubsf3.o)
 .bss           0x0000000000000000        0x0 /home/industio/ssd20x/gcc-arm-8.2-2018.08-x86_64-arm-linux-gnueabihf/bin/../lib/gcc/arm-linux-gnueabihf/8.2.1/libgcc.a(_arm_addsubsf3.o)
 .data          0x0000000000000000        0x0 /home/industio/ssd20x/gcc-arm-8.2-2018.08-x86_64-arm-linux-gnueabihf/bin/../lib/gcc/arm-linux-gnueabihf/8.2.1/libgcc.a(_arm_muldivsf3.o)
 .bss           0x0000000000000000        0x0 /home/industio/ssd20x/gcc-arm-8.2-2018.08-x86_64-arm-linux-gnueabihf/bin/../lib/gcc/arm-linux-gnueabihf/8.2.1/libgcc.a(_arm_muldivsf3.o)
 .data          0x0000000000000000        0x0 /home/industio/ssd20x/gcc-arm-8.2-2018.08-x86_64-arm-linux-gnueabihf/bin/../lib/gcc/arm-linux-gnueabihf/8.2.1/libgcc.a(_arm_fixsfsi.o)
 .bss           0x0000000000000000        0x0 /home/industio/ssd20x/gcc-arm-8.2-2018.08-x86_64-arm-linux-gnueabihf/bin/../lib/gcc/arm-linux-gnueabihf/8.2.1/libgcc.a(_arm_fixsfsi.o)
 .data          0x0000000000000000        0x0 /home/industio/ssd20x/gcc-arm-8.2-2018.08-x86_64-arm-linux-gnueabihf/bin/../lib/gcc/arm-linux-gnueabihf/8.2.1/libgcc.a(_arm_fixunssfsi.o)
 .bss           0x0000000000000000        0x0 /home/industio/ssd20x/gcc-arm-8.2-2018.08-x86_64-arm-linux-gnueabihf/bin/../lib/gcc/arm-linux-gnueabihf/8.2.1/libgcc.a(_arm_fixunssfsi.o)
 .data          0x0000000000000000        0x0 /home/industio/ssd20x/gcc-arm-8.2-2018.08-x86_64-arm-linux-gnueabihf/bin/../lib/gcc/arm-linux-gnueabihf/8.2.1/libgcc.a(_dvmd_lnx.o)
 .bss           0x0000000000000000        0x0 /home/industio/ssd20x/gcc-arm-8.2-2018.08-x86_64-arm-linux-gnueabihf/bin/../lib/gcc/arm-linux-gnueabihf/8.2.1/libgcc.a(_dvmd_lnx.o)

Memory Configuration

Name             Origin             Length             Attributes
*default*        0x0000000000000000 0xffffffffffffffff

Linker script and memory map

Address of section .text set to 0x23e00000
                0x0000000000000000                . = 0x0
                0x0000000000000000                . = ALIGN (0x4)

.text           0x0000000023e00000    0x6de20
 *(.__image_copy_start)
 .__image_copy_start
                0x0000000023e00000        0x0 arch/arm/lib/built-in.o
                0x0000000023e00000                __image_copy_start
 *(.vectors)
 .vectors       0x0000000023e00000      0x2e8 arch/arm/lib/built-in.o
                0x0000000023e00000                _start
                0x0000000023e00020                _undefined_instruction
                0x0000000023e00024                _software_interrupt
                0x0000000023e00028                _prefetch_abort
                0x0000000023e0002c                _data_abort
                0x0000000023e00030                _not_used
                0x0000000023e00034                _irq
                0x0000000023e00038                _fiq
                0x0000000023e00040                IRQ_STACK_START_IN
 arch/arm/cpu/armv7/start.o(.text*)
 .text          0x0000000023e002e8       0x88 arch/arm/cpu/armv7/start.o
                0x0000000023e002e8                reset
                0x0000000023e00320                c_runtime_cpu_setup
                0x0000000023e00330                save_boot_params
                0x0000000023e00334                cpu_init_cp15
 *(.text*)
 *fill*         0x0000000023e00370       0x10 
 .text          0x0000000023e00380       0x2c arch/arm/cpu/armv7/built-in.o
                0x0000000023e00380                reset_cpu
 .text.v7_maint_dcache_all
                0x0000000023e003ac       0xd0 arch/arm/cpu/armv7/built-in.o
 .text.invalidate_icache_all
                0x0000000023e0047c       0x18 arch/arm/cpu/armv7/built-in.o
                0x0000000023e0047c                invalidate_icache_all
 .text.v7_outer_cache_enable
                0x0000000023e00494        0x4 arch/arm/cpu/armv7/built-in.o
                0x0000000023e00494                v7_outer_cache_enable
 .text.v7_outer_cache_disable
                0x0000000023e00498        0x4 arch/arm/cpu/armv7/built-in.o
                0x0000000023e00498                v7_outer_cache_disable
 .text.v7_outer_cache_flush_all
                0x0000000023e0049c        0x4 arch/arm/cpu/armv7/built-in.o
                0x0000000023e0049c                v7_outer_cache_flush_all
 .text.flush_dcache_all
                0x0000000023e004a0       0x14 arch/arm/cpu/armv7/built-in.o
                0x0000000023e004a0                flush_dcache_all
 .text.v7_outer_cache_inval_all
                0x0000000023e004b4        0x4 arch/arm/cpu/armv7/built-in.o
                0x0000000023e004b4                v7_outer_cache_inval_all
 .text.invalidate_dcache_all
                0x0000000023e004b8       0x14 arch/arm/cpu/armv7/built-in.o
                0x0000000023e004b8                invalidate_dcache_all
 .text.arm_init_before_mmu
                0x0000000023e004cc       0x28 arch/arm/cpu/armv7/built-in.o
                0x0000000023e004cc                arm_init_before_mmu
 .text.v7_outer_cache_flush_range
                0x0000000023e004f4        0x4 arch/arm/cpu/armv7/built-in.o
                0x0000000023e004f4                v7_outer_cache_flush_range
 .text.flush_dcache_range
                0x0000000023e004f8       0x3c arch/arm/cpu/armv7/built-in.o
                0x0000000023e004f8                flush_dcache_range
 .text.flush_cache
                0x0000000023e00534        0x8 arch/arm/cpu/armv7/built-in.o
                0x0000000023e00534                flush_cache
 .text.cpu_cache_initialization
                0x0000000023e0053c        0x4 arch/arm/cpu/armv7/built-in.o
                0x0000000023e0053c                cpu_cache_initialization
 .text.cleanup_before_linux
                0x0000000023e00540       0x28 arch/arm/cpu/armv7/built-in.o
                0x0000000023e00540                cleanup_before_linux
 .text.arch_cpu_init
                0x0000000023e00568       0x14 arch/arm/cpu/armv7/built-in.o
                0x0000000023e00568                arch_cpu_init
 .text.dram_init
                0x0000000023e0057c       0x10 arch/arm/cpu/armv7/built-in.o
                0x0000000023e0057c                dram_init
 .text.checkboard
                0x0000000023e0058c       0x6c arch/arm/cpu/armv7/built-in.o
                0x0000000023e0058c                checkboard
 .text.ms_devinfo_boot_type
                0x0000000023e005f8       0x3c arch/arm/cpu/armv7/built-in.o
                0x0000000023e005f8                ms_devinfo_boot_type
 .text.board_late_init
                0x0000000023e00634        0x8 arch/arm/cpu/armv7/built-in.o
                0x0000000023e00634                board_late_init
 .text.Chip_Flush_Memory
                0x0000000023e0063c       0x28 arch/arm/cpu/armv7/built-in.o
                0x0000000023e0063c                Chip_Flush_Memory
 .text.Chip_Read_Memory
                0x0000000023e00664       0x28 arch/arm/cpu/armv7/built-in.o
                0x0000000023e00664                Chip_Read_Memory
 .text.timer_init
                0x0000000023e0068c       0x28 arch/arm/cpu/armv7/built-in.o
                0x0000000023e0068c                timer_init
 .text.__udelay
                0x0000000023e006b4       0x68 arch/arm/cpu/armv7/built-in.o
                0x0000000023e006b4                __udelay
 .text.get_ticks
                0x0000000023e0071c        0xc arch/arm/cpu/armv7/built-in.o
                0x0000000023e0071c                get_ticks
 .text.get_tbclk
                0x0000000023e00728        0x8 arch/arm/cpu/armv7/built-in.o
                0x0000000023e00728                get_tbclk
 .text.get_ms_ticks
                0x0000000023e00730       0x34 arch/arm/cpu/armv7/built-in.o
                0x0000000023e00730                get_ms_ticks
 .text.get_full_ms_ticks
                0x0000000023e00764       0x24 arch/arm/cpu/armv7/built-in.o
                0x0000000023e00764                get_full_ms_ticks
 .text.get_timer
                0x0000000023e00788       0x5c arch/arm/cpu/armv7/built-in.o
                0x0000000023e00788                get_timer
 .text.board_init
                0x0000000023e007e4       0x34 arch/arm/cpu/armv7/built-in.o
                0x0000000023e007e4                board_init
 .text          0x0000000023e00818       0xa0 arch/arm/lib/built-in.o
                0x0000000023e00818                _main
 .text.relocate_vectors
                0x0000000023e008b8       0x70 arch/arm/lib/built-in.o
                0x0000000023e008b8                relocate_vectors
                0x0000000023e008c4                relocate_code
 .text.boot_jump_linux.isra.4
                0x0000000023e00928       0xa4 arch/arm/lib/built-in.o
 .text.arch_lmb_reserve
                0x0000000023e009cc       0x24 arch/arm/lib/built-in.o
                0x0000000023e009cc                arch_lmb_reserve
 .text.setup_board_tags
                0x0000000023e009f0        0x4 arch/arm/lib/built-in.o
                0x0000000023e009f0                setup_board_tags
 .text.boot_prep_linux
                0x0000000023e009f4      0x168 arch/arm/lib/built-in.o
 .text.do_bootm_linux
                0x0000000023e00b5c       0x64 arch/arm/lib/built-in.o
                0x0000000023e00b5c                do_bootm_linux
 .text.boot_prep_vxworks
                0x0000000023e00bc0        0x4 arch/arm/lib/built-in.o
                0x0000000023e00bc0                boot_prep_vxworks
 .text.boot_jump_vxworks
                0x0000000023e00bc4        0xc arch/arm/lib/built-in.o
                0x0000000023e00bc4                boot_jump_vxworks
 .text.interrupt_init
                0x0000000023e00bd0       0x1c arch/arm/lib/built-in.o
                0x0000000023e00bd0                interrupt_init
 .text.enable_interrupts
                0x0000000023e00bec        0x4 arch/arm/lib/built-in.o
                0x0000000023e00bec                enable_interrupts
 .text.disable_interrupts
                0x0000000023e00bf0        0x8 arch/arm/lib/built-in.o
                0x0000000023e00bf0                disable_interrupts
 .text.bad_mode
                0x0000000023e00bf8       0x10 arch/arm/lib/built-in.o
                0x0000000023e00bf8                bad_mode
 .text.show_regs
                0x0000000023e00c08      0x13c arch/arm/lib/built-in.o
                0x0000000023e00c08                show_regs
 .text.do_undefined_instruction
                0x0000000023e00d44       0x20 arch/arm/lib/built-in.o
                0x0000000023e00d44                do_undefined_instruction
 .text.do_software_interrupt
                0x0000000023e00d64       0x20 arch/arm/lib/built-in.o
                0x0000000023e00d64                do_software_interrupt
 .text.do_prefetch_abort
                0x0000000023e00d84       0x20 arch/arm/lib/built-in.o
                0x0000000023e00d84                do_prefetch_abort
 .text.do_data_abort
                0x0000000023e00da4       0x20 arch/arm/lib/built-in.o
                0x0000000023e00da4                do_data_abort
 .text.do_not_used
                0x0000000023e00dc4       0x20 arch/arm/lib/built-in.o
                0x0000000023e00dc4                do_not_used
 .text.do_fiq   0x0000000023e00de4       0x20 arch/arm/lib/built-in.o
                0x0000000023e00de4                do_fiq
 .text.do_irq   0x0000000023e00e04       0x20 arch/arm/lib/built-in.o
                0x0000000023e00e04                do_irq
 .text.reset_misc
                0x0000000023e00e24        0x4 arch/arm/lib/built-in.o
                0x0000000023e00e24                reset_misc
 .text.do_reset
                0x0000000023e00e28       0x30 arch/arm/lib/built-in.o
                0x0000000023e00e28                do_reset
 .text.enable_caches
                0x0000000023e00e58        0xc arch/arm/lib/built-in.o
                0x0000000023e00e58                enable_caches
 .text.cp_delay
                0x0000000023e00e64       0x30 arch/arm/lib/built-in.o
 .text.cache_disable
                0x0000000023e00e94       0x48 arch/arm/lib/built-in.o
 .text.arm_init_domains
                0x0000000023e00edc        0x4 arch/arm/lib/built-in.o
                0x0000000023e00edc                arm_init_domains
 .text.set_section_dcache
                0x0000000023e00ee0       0x14 arch/arm/lib/built-in.o
                0x0000000023e00ee0                set_section_dcache
 .text.dram_bank_mmu_setup
                0x0000000023e00ef4       0x40 arch/arm/lib/built-in.o
                0x0000000023e00ef4                dram_bank_mmu_setup
 .text.icache_enable
                0x0000000023e00f34       0x18 arch/arm/lib/built-in.o
                0x0000000023e00f34                icache_enable
 .text.icache_disable
                0x0000000023e00f4c        0x8 arch/arm/lib/built-in.o
                0x0000000023e00f4c                icache_disable
 .text.icache_status
                0x0000000023e00f54        0xc arch/arm/lib/built-in.o
                0x0000000023e00f54                icache_status
 .text.dcache_enable
                0x0000000023e00f60       0x6c arch/arm/lib/built-in.o
                0x0000000023e00f60                dcache_enable
 .text.dcache_disable
                0x0000000023e00fcc        0x8 arch/arm/lib/built-in.o
                0x0000000023e00fcc                dcache_disable
 .text.dcache_status
                0x0000000023e00fd4        0xc arch/arm/lib/built-in.o
                0x0000000023e00fd4                dcache_status
 .text.show_boot_progress
                0x0000000023e00fe0        0x4 common/built-in.o
                0x0000000023e00fe0                show_boot_progress
 .text.main_loop
                0x0000000023e00fe4       0x20 common/built-in.o
                0x0000000023e00fe4                main_loop
 .text.dummy    0x0000000023e01004        0x4 common/built-in.o
 .text.get_version
                0x0000000023e01008        0x8 common/built-in.o
                0x0000000023e01008                get_version
 .text.jumptable_init
                0x0000000023e01010      0x1a0 common/built-in.o
                0x0000000023e01010                jumptable_init
 .text.hash_command
                0x0000000023e011b0       0xb0 common/built-in.o
                0x0000000023e011b0                hash_command
 .text.bootdelay_process
                0x0000000023e01260      0x20c common/built-in.o
                0x0000000023e01260                bootdelay_process
 .text.autoboot_command
                0x0000000023e0146c      0x2a4 common/built-in.o
                0x0000000023e0146c                autoboot_command
 .text.print_cpuinfo
                0x0000000023e01710        0x8 common/built-in.o
 .text.display_text_info
                0x0000000023e01718        0x8 common/built-in.o
 .text.setup_mon_len
                0x0000000023e01720       0x20 common/built-in.o
 .text.reserve_round_4k
                0x0000000023e01740       0x18 common/built-in.o
 .text.reserve_mmu
                0x0000000023e01758       0x38 common/built-in.o
 .text.reserve_uboot
                0x0000000023e01790       0x30 common/built-in.o
 .text.reserve_malloc
                0x0000000023e017c0       0x18 common/built-in.o
 .text.reserve_global_data
                0x0000000023e017d8       0x1c common/built-in.o
 .text.reserve_fdt
                0x0000000023e017f4       0x4c common/built-in.o
 .text.reserve_stacks
                0x0000000023e01840       0x34 common/built-in.o
 .text.init_func_watchdog_reset
                0x0000000023e01874       0x10 common/built-in.o
                0x0000000023e01874                init_func_watchdog_reset
 .text.setup_reloc
                0x0000000023e01884       0x2c common/built-in.o
 .text.announce_dram_init
                0x0000000023e018b0       0x18 common/built-in.o
 .text.init_func_i2c
                0x0000000023e018c8       0x28 common/built-in.o
 .text.init_func_watchdog_init
                0x0000000023e018f0       0x20 common/built-in.o
 .text.init_baud_rate
                0x0000000023e01910       0x2c common/built-in.o
 .text.mark_bootstage
                0x0000000023e0193c       0x14 common/built-in.o
 .text.reloc_fdt
                0x0000000023e01950       0x38 common/built-in.o
 .text.reserve_board
                0x0000000023e01988       0x40 common/built-in.o
 .text.initf_dm
                0x0000000023e019c8        0x8 common/built-in.o
 .text.setup_fdt
                0x0000000023e019d0        0x8 common/built-in.o
 .text.reserve_trace
                0x0000000023e019d8        0x8 common/built-in.o
 .text.setup_machine
                0x0000000023e019e0        0x8 common/built-in.o
 .text.display_new_sp
                0x0000000023e019e8        0x8 common/built-in.o
 .text.initf_malloc
                0x0000000023e019f0        0x8 common/built-in.o
 .text.coloured_LED_init
                0x0000000023e019f8        0x4 common/built-in.o
                0x0000000023e019f8                coloured_LED_init
 .text.red_led_on
                0x0000000023e019fc        0x4 common/built-in.o
                0x0000000023e019fc                red_led_on
 .text.board_add_ram_info
                0x0000000023e01a00        0x4 common/built-in.o
                0x0000000023e01a00                board_add_ram_info
 .text.show_dram_config
                0x0000000023e01a04       0x24 common/built-in.o
 .text.dram_init_banksize
                0x0000000023e01a28       0x20 common/built-in.o
                0x0000000023e01a28                dram_init_banksize
 .text.setup_dram_config
                0x0000000023e01a48       0x10 common/built-in.o
 .text.board_get_usable_ram_top
                0x0000000023e01a58        0x8 common/built-in.o
                0x0000000023e01a58                board_get_usable_ram_top
 .text.setup_dest_addr
                0x0000000023e01a60       0x3c common/built-in.o
 .text.board_init_f
                0x0000000023e01a9c       0x28 common/built-in.o
                0x0000000023e01a9c                board_init_f
 .text.bootstage_relocate
                0x0000000023e01ac4        0x8 common/built-in.o
 .text.initr_trace
                0x0000000023e01acc        0x8 common/built-in.o
 .text.initr_reloc_global_data
                0x0000000023e01ad4       0x28 common/built-in.o
 .text.run_main_loop
                0x0000000023e01afc        0xc common/built-in.o
 .text.initr_net
                0x0000000023e01b08       0x20 common/built-in.o
 .text.initr_ethaddr
                0x0000000023e01b28       0x20 common/built-in.o
 .text.initr_enable_interrupts
                0x0000000023e01b48       0x10 common/built-in.o
 .text.initr_jumptable
                0x0000000023e01b58       0x10 common/built-in.o
 .text.initr_env
                0x0000000023e01b68       0x30 common/built-in.o
 .text.initr_mmc
                0x0000000023e01b98       0x20 common/built-in.o
 .text.initr_nand
                0x0000000023e01bb8       0x50 common/built-in.o
 .text.initr_serial
                0x0000000023e01c08       0x10 common/built-in.o
 .text.initr_malloc
                0x0000000023e01c18       0x24 common/built-in.o
 .text.initr_caches
                0x0000000023e01c3c       0x10 common/built-in.o
 .text.initr_reloc
                0x0000000023e01c4c       0x24 common/built-in.o
 .text.initr_sstar
                0x0000000023e01c70       0x30 common/built-in.o
 .text.initr_flash
                0x0000000023e01ca0        0x8 common/built-in.o
 .text.initr_barrier
                0x0000000023e01ca8        0x8 common/built-in.o
 .text.power_init_board
                0x0000000023e01cb0        0x8 common/built-in.o
                0x0000000023e01cb0                power_init_board
 .text.initr_announce
                0x0000000023e01cb8        0x8 common/built-in.o
 .text.cpu_secondary_init_r
                0x0000000023e01cc0        0x4 common/built-in.o
                0x0000000023e01cc0                cpu_secondary_init_r
 .text.initr_secondary_cpu
                0x0000000023e01cc4       0x10 common/built-in.o
 .text.board_init_r
                0x0000000023e01cd4       0x14 common/built-in.o
                0x0000000023e01cd4                board_init_r
 .text.do_go_exec
                0x0000000023e01ce8       0x10 common/built-in.o
                0x0000000023e01ce8                do_go_exec
 .text.do_go    0x0000000023e01cf8       0x6c common/built-in.o
 .text.do_bootm
                0x0000000023e01d64      0x100 common/built-in.o
                0x0000000023e01d64                do_bootm
 .text.bootm_maybe_autostart
                0x0000000023e01e64       0x78 common/built-in.o
                0x0000000023e01e64                bootm_maybe_autostart
 .text.bootm_find_ramdisk_fdt
                0x0000000023e01edc       0x4c common/built-in.o
                0x0000000023e01edc                bootm_find_ramdisk_fdt
 .text.bootm_decomp_image
                0x0000000023e01f28      0x1e0 common/built-in.o
                0x0000000023e01f28                bootm_decomp_image
 .text.bootm_disable_interrupts
                0x0000000023e02108       0x50 common/built-in.o
                0x0000000023e02108                bootm_disable_interrupts
 .text.image_get_kernel
                0x0000000023e02158       0xec common/built-in.o
                0x0000000023e02158                image_get_kernel
 .text.do_bootm_states
                0x0000000023e02244      0x7bc common/built-in.o
                0x0000000023e02244                do_bootm_states
 .text.copy_args
                0x0000000023e02a00       0x48 common/built-in.o
 .text.do_bootm_rtems
                0x0000000023e02a48       0x40 common/built-in.o
 .text.do_bootm_plan9
                0x0000000023e02a88       0xa4 common/built-in.o
 .text.do_bootm_standalone
                0x0000000023e02b2c       0x64 common/built-in.o
 .text.do_bootm_netbsd
                0x0000000023e02b90       0xf8 common/built-in.o
 .text.do_bootvx_fdt
                0x0000000023e02c88       0x3c common/built-in.o
                0x0000000023e02c88                do_bootvx_fdt
 .text.do_bootm_vxworks
                0x0000000023e02cc4       0x24 common/built-in.o
 .text.arch_preboot_os
                0x0000000023e02ce8        0x4 common/built-in.o
                0x0000000023e02ce8                arch_preboot_os
 .text.boot_selected_os
                0x0000000023e02cec       0x58 common/built-in.o
                0x0000000023e02cec                boot_selected_os
 .text.bootm_os_get_boot_func
                0x0000000023e02d44       0x10 common/built-in.o
                0x0000000023e02d44                bootm_os_get_boot_func
 .text.do_help  0x0000000023e02d54       0x44 common/built-in.o
 .text.do_version
                0x0000000023e02d98       0x38 common/built-in.o
 .text.env_attr_walk
                0x0000000023e02dd0      0x10c common/built-in.o
                0x0000000023e02dd0                env_attr_walk
 .text.env_attr_lookup
                0x0000000023e02edc      0x18c common/built-in.o
                0x0000000023e02edc                env_attr_lookup
 .text.clear_callback
                0x0000000023e03068       0x10 common/built-in.o
 .text.find_env_callback
                0x0000000023e03078       0x5c common/built-in.o
 .text.on_callbacks
                0x0000000023e030d4       0x48 common/built-in.o
 .text.set_callback
                0x0000000023e0311c       0x98 common/built-in.o
 .text.env_callback_init
                0x0000000023e031b4       0xc4 common/built-in.o
                0x0000000023e031b4                env_callback_init
 .text.skip_num
                0x0000000023e03278       0x6c common/built-in.o
 .text.clear_flags
                0x0000000023e032e4       0x10 common/built-in.o
 .text.on_flags
                0x0000000023e032f4       0x48 common/built-in.o
 .text.env_flags_parse_vartype
                0x0000000023e0333c       0x50 common/built-in.o
                0x0000000023e0333c                env_flags_parse_vartype
 .text.env_flags_parse_varaccess
                0x0000000023e0338c       0x50 common/built-in.o
                0x0000000023e0338c                env_flags_parse_varaccess
 .text.set_flags
                0x0000000023e033dc       0xac common/built-in.o
 .text.env_flags_init
                0x0000000023e03488       0xd8 common/built-in.o
                0x0000000023e03488                env_flags_init
 .text.env_flags_validate
                0x0000000023e03560      0x2fc common/built-in.o
                0x0000000023e03560                env_flags_validate
 .text.readenv  0x0000000023e0385c       0xd0 common/built-in.o
 .text.erase_and_write_env
                0x0000000023e0392c      0x11c common/built-in.o
 .text.env_init
                0x0000000023e03a48       0x1c common/built-in.o
                0x0000000023e03a48                env_init
 .text.saveenv  0x0000000023e03a64      0x16c common/built-in.o
                0x0000000023e03a64                saveenv
 .text.env_relocate_spec
                0x0000000023e03bd0      0x23c common/built-in.o
                0x0000000023e03bd0                env_relocate_spec
 .text.parse_argv
                0x0000000023e03e0c       0x64 common/built-in.o
 .text.do_icache
                0x0000000023e03e70       0x88 common/built-in.o
 .text.do_dcache
                0x0000000023e03ef8       0x88 common/built-in.o
 .text.eeprom_read
                0x0000000023e03f80       0x78 common/built-in.o
                0x0000000023e03f80                eeprom_read
 .text.eeprom_write
                0x0000000023e03ff8       0x78 common/built-in.o
                0x0000000023e03ff8                eeprom_write
 .text.eeprom_init
                0x0000000023e04070        0xc common/built-in.o
                0x0000000023e04070                eeprom_init
 .text.do_eeprom
                0x0000000023e0407c      0x104 common/built-in.o
 .text.do_fat_size
                0x0000000023e04180       0x18 common/built-in.o
                0x0000000023e04180                do_fat_size
 .text.do_fat_fsload
                0x0000000023e04198       0x18 common/built-in.o
                0x0000000023e04198                do_fat_fsload
 .text.do_fat_ls
                0x0000000023e041b0       0x18 common/built-in.o
 .text.do_fat_fsinfo
                0x0000000023e041c8       0x8c common/built-in.o
 .text.do_i2c   0x0000000023e04254       0x68 common/built-in.o
 .text.do_i2c_reset
                0x0000000023e042bc       0x2c common/built-in.o
 .text.do_i2c_probe
                0x0000000023e042e8       0xa0 common/built-in.o
 .text.do_i2c_bus_speed
                0x0000000023e04388       0x74 common/built-in.o
 .text.do_i2c_show_bus
                0x0000000023e043fc       0xdc common/built-in.o
 .text.do_i2c_bus_num
                0x0000000023e044d8       0xb4 common/built-in.o
 .text.get_alen.constprop.7
                0x0000000023e0458c       0x3c common/built-in.o
 .text.do_i2c_read
                0x0000000023e045c8       0xbc common/built-in.o
 .text.do_i2c_write
                0x0000000023e04684       0xf8 common/built-in.o
 .text.do_i2c_loop
                0x0000000023e0477c       0xec common/built-in.o
 .text.do_i2c_mw
                0x0000000023e04868       0xfc common/built-in.o
 .text.do_i2c_md
                0x0000000023e04964      0x1e0 common/built-in.o
 .text.mod_i2c_mem.isra.5
                0x0000000023e04b44      0x1f0 common/built-in.o
 .text.do_i2c_nm
                0x0000000023e04d34        0x8 common/built-in.o
 .text.do_i2c_mm
                0x0000000023e04d3c        0x8 common/built-in.o
 .text.do_i2c_crc
                0x0000000023e04d44      0x120 common/built-in.o
 .text.i2c_init_board
                0x0000000023e04e64        0x4 common/built-in.o
                0x0000000023e04e64                i2c_init_board
 .text.do_mem_md
                0x0000000023e04e68       0xe8 common/built-in.o
 .text.do_mem_base
                0x0000000023e04f50       0x40 common/built-in.o
 .text.do_mem_crc
                0x0000000023e04f90       0x48 common/built-in.o
 .text.do_mem_mw
                0x0000000023e04fd8       0xc0 common/built-in.o
 .text.do_mem_loop
                0x0000000023e05098       0xe8 common/built-in.o
 .text.mod_mem.isra.2.part.3
                0x0000000023e05180      0x164 common/built-in.o
 .text.do_mem_mm
                0x0000000023e052e4       0x1c common/built-in.o
 .text.do_mem_cp
                0x0000000023e05300       0xe0 common/built-in.o
 .text.do_mem_cmp
                0x0000000023e053e0      0x170 common/built-in.o
 .text.do_mem_nm
                0x0000000023e05550       0x1c common/built-in.o
 .text.do_mmcops
                0x0000000023e0556c       0xb8 common/built-in.o
 .text.init_mmc_device
                0x0000000023e05624       0x50 common/built-in.o
 .text.do_mmc_rescan
                0x0000000023e05674       0x24 common/built-in.o
 .text.do_mmc_list
                0x0000000023e05698       0x14 common/built-in.o
 .text.do_mmc_dev
                0x0000000023e056ac      0x124 common/built-in.o
 .text.do_mmcinfo
                0x0000000023e057d0      0x18c common/built-in.o
 .text.do_mmc_setdsr
                0x0000000023e0595c       0xa4 common/built-in.o
 .text.do_mmc_part
                0x0000000023e05a00       0x5c common/built-in.o
 .text.do_mmc_erase
                0x0000000023e05a5c       0xe8 common/built-in.o
 .text.do_mmc_write
                0x0000000023e05b44      0x10c common/built-in.o
 .text.do_mmc_read
                0x0000000023e05c50       0xf0 common/built-in.o
 .text.part_delall
                0x0000000023e05d40       0x40 common/built-in.o
 .text.memsize_parse
                0x0000000023e05d80       0x80 common/built-in.o
 .text.mtd_part_info
                0x0000000023e05e00       0x9c common/built-in.o
 .text.memsize_format
                0x0000000023e05e9c       0x84 common/built-in.o
 .text.index_partitions
                0x0000000023e05f20       0xac common/built-in.o
 .text.current_save
                0x0000000023e05fcc       0xb8 common/built-in.o
 .text.part_sort_add
                0x0000000023e06084      0x128 common/built-in.o
 .text.device_del
                0x0000000023e061ac       0x7c common/built-in.o
 .text.generate_mtdparts_save.constprop.6
                0x0000000023e06228      0x2ec common/built-in.o
 .text.device_delall.constprop.8
                0x0000000023e06514       0x64 common/built-in.o
 .text.mtd_devices_init
                0x0000000023e06578       0x2c common/built-in.o
 .text.get_mtd_info.constprop.9
                0x0000000023e065a4       0x80 common/built-in.o
 .text.part_validate
                0x0000000023e06624      0x35c common/built-in.o
 .text.device_find
                0x0000000023e06980       0x4c common/built-in.o
                0x0000000023e06980                device_find
 .text.device_parse
                0x0000000023e069cc      0x510 common/built-in.o
 .text.mtd_id_parse
                0x0000000023e06edc      0x11c common/built-in.o
                0x0000000023e06edc                mtd_id_parse
 .text.find_dev_and_part
                0x0000000023e06ff8      0x1a4 common/built-in.o
                0x0000000023e06ff8                find_dev_and_part
 .text.mtdparts_init
                0x0000000023e0719c      0x640 common/built-in.o
                0x0000000023e0719c                mtdparts_init
 .text.do_chpart
                0x0000000023e077dc       0xcc common/built-in.o
 .text.do_mtdparts
                0x0000000023e078a8      0x5a4 common/built-in.o
 .text.set_dev  0x0000000023e07e4c       0x70 common/built-in.o
 .text.arg_off  0x0000000023e07ebc      0x110 common/built-in.o
 .text.arg_off_size
                0x0000000023e07fcc      0x148 common/built-in.o
 .text.adjust_size_for_badblocks
                0x0000000023e08114       0xd8 common/built-in.o
 .text.nand_load_image
                0x0000000023e081ec      0x1bc common/built-in.o
 .text.do_nandboot
                0x0000000023e083a8      0x250 common/built-in.o
 .text.nand_print_and_set_info.constprop.2
                0x0000000023e085f8       0xb4 common/built-in.o
 .text.otp_access
                0x0000000023e086ac      0x2d0 common/built-in.o
                0x0000000023e086ac                otp_access
 .text.nand_set_driving
                0x0000000023e0897c       0x84 common/built-in.o
                0x0000000023e0897c                nand_set_driving
 .text.nand_set_dev_driving
                0x0000000023e08a00       0x40 common/built-in.o
                0x0000000023e08a00                nand_set_dev_driving
 .text.nand_set_quad_mode
                0x0000000023e08a40       0x5c common/built-in.o
                0x0000000023e08a40                nand_set_quad_mode
 .text.do_nand  0x0000000023e08a9c      0xf68 common/built-in.o
 .text.netboot_common
                0x0000000023e09a04      0x2fc common/built-in.o
 .text.do_sfbin
                0x0000000023e09d00      0x1ac common/built-in.o
 .text.do_bootp
                0x0000000023e09eac        0xc common/built-in.o
 .text.do_dhcp  0x0000000023e09eb8        0xc common/built-in.o
 .text.do_tftpb
                0x0000000023e09ec4       0x40 common/built-in.o
                0x0000000023e09ec4                do_tftpb
 .text.do_ping  0x0000000023e09f04       0x78 common/built-in.o
 .text.bytes_per_second
                0x0000000023e09f7c       0x50 common/built-in.o
 .text.do_spi_flash
                0x0000000023e09fcc      0x750 common/built-in.o
 .text.get_sf_size
                0x0000000023e0a71c       0x54 common/built-in.o
                0x0000000023e0a71c                get_sf_size
 .text.ubi_find_volume
                0x0000000023e0a770       0x70 common/built-in.o
 .text.ubi_volume_continue_write
                0x0000000023e0a7e0       0xb8 common/built-in.o
 .text.ubi_volume_begin_write
                0x0000000023e0a898       0xa0 common/built-in.o
                0x0000000023e0a898                ubi_volume_begin_write
 .text.ubi_volume_write
                0x0000000023e0a938        0x8 common/built-in.o
                0x0000000023e0a938                ubi_volume_write
 .text.ubi_volume_read
                0x0000000023e0a940      0x1d4 common/built-in.o
                0x0000000023e0a940                ubi_volume_read
 .text.ubi_part
                0x0000000023e0ab14      0x234 common/built-in.o
                0x0000000023e0ab14                ubi_part
 .text.do_ubi   0x0000000023e0ad48      0x854 common/built-in.o
 .text.usb_get_class_desc
                0x0000000023e0b59c       0xc0 common/built-in.o
 .text.usb_display_class_sub
                0x0000000023e0b65c      0x178 common/built-in.o
 .text.usb_find_device
                0x0000000023e0b7d4       0x3c common/built-in.o
 .text.usb_show_tree_graph
                0x0000000023e0b810      0x214 common/built-in.o
 .text.usb_display_string
                0x0000000023e0ba24       0x44 common/built-in.o
 .text.usb_display_config
                0x0000000023e0ba68      0x220 common/built-in.o
 .text.do_usbboot
                0x0000000023e0bc88        0xc common/built-in.o
 .text.usb_display_desc
                0x0000000023e0bc94      0x138 common/built-in.o
 .text.do_usb   0x0000000023e0bdcc      0x964 common/built-in.o
 .text.usb_set_maxpacket_ep
                0x0000000023e0c730       0x54 common/built-in.o
 .text.wait_ms  0x0000000023e0c784       0x1c common/built-in.o
                0x0000000023e0c784                wait_ms
 .text.usb_stop
                0x0000000023e0c7a0       0x30 common/built-in.o
                0x0000000023e0c7a0                usb_stop
 .text.usb_disable_asynch
                0x0000000023e0c7d0       0x20 common/built-in.o
                0x0000000023e0c7d0                usb_disable_asynch
 .text.usb_control_msg
                0x0000000023e0c7f0       0xc8 common/built-in.o
                0x0000000023e0c7f0                usb_control_msg
 .text.usb_bulk_msg
                0x0000000023e0c8b8       0x80 common/built-in.o
                0x0000000023e0c8b8                usb_bulk_msg
 .text.usb_maxpacket
                0x0000000023e0c938       0x18 common/built-in.o
                0x0000000023e0c938                usb_maxpacket
 .text.usb_set_maxpacket
                0x0000000023e0c950       0x64 common/built-in.o
                0x0000000023e0c950                usb_set_maxpacket
 .text.usb_parse_config
                0x0000000023e0c9b4      0x254 common/built-in.o
                0x0000000023e0c9b4                usb_parse_config
 .text.usb_clear_halt
                0x0000000023e0cc08       0x90 common/built-in.o
                0x0000000023e0cc08                usb_clear_halt
 .text.usb_get_descriptor
                0x0000000023e0cc98       0x58 common/built-in.o
                0x0000000023e0cc98                usb_get_descriptor
 .text.usb_get_configuration_no
                0x0000000023e0ccf0       0xbc common/built-in.o
                0x0000000023e0ccf0                usb_get_configuration_no
 .text.usb_set_address
                0x0000000023e0cdac       0x40 common/built-in.o
                0x0000000023e0cdac                usb_set_address
 .text.usb_set_interface
                0x0000000023e0cdec       0xb4 common/built-in.o
                0x0000000023e0cdec                usb_set_interface
 .text.usb_set_configuration
                0x0000000023e0cea0       0x5c common/built-in.o
                0x0000000023e0cea0                usb_set_configuration
 .text.usb_get_string
                0x0000000023e0cefc       0x48 common/built-in.o
                0x0000000023e0cefc                usb_get_string
 .text.usb_string_sub
                0x0000000023e0cf44      0x104 common/built-in.o
 .text.usb_string
                0x0000000023e0d048      0x100 common/built-in.o
                0x0000000023e0d048                usb_string
 .text.usb_get_dev_index
                0x0000000023e0d148       0x24 common/built-in.o
                0x0000000023e0d148                usb_get_dev_index
 .text.usb_alloc_new_device
                0x0000000023e0d16c       0x7c common/built-in.o
                0x0000000023e0d16c                usb_alloc_new_device
 .text.usb_alloc_device
                0x0000000023e0d1e8        0x8 common/built-in.o
                0x0000000023e0d1e8                usb_alloc_device
 .text.usb_get_hub_descriptor
                0x0000000023e0d1f0       0x5c common/built-in.o
                0x0000000023e0d1f0                usb_get_hub_descriptor
 .text.usb_clear_port_feature
                0x0000000023e0d24c       0x4c common/built-in.o
                0x0000000023e0d24c                usb_clear_port_feature
 .text.usb_set_port_feature
                0x0000000023e0d298       0x4c common/built-in.o
                0x0000000023e0d298                usb_set_port_feature
 .text.usb_hub_power_on
                0x0000000023e0d2e4       0x44 common/built-in.o
 .text.usb_get_hub_status
                0x0000000023e0d328       0x48 common/built-in.o
                0x0000000023e0d328                usb_get_hub_status
 .text.usb_get_port_status
                0x0000000023e0d370       0x4c common/built-in.o
                0x0000000023e0d370                usb_get_port_status
 .text.usb_hub_allocate
                0x0000000023e0d3bc       0x48 common/built-in.o
                0x0000000023e0d3bc                usb_hub_allocate
 .text.hub_port_reset
                0x0000000023e0d404       0x9c common/built-in.o
                0x0000000023e0d404                hub_port_reset
 .text.usb_hub_probe
                0x0000000023e0d4a0       0x54 common/built-in.o
                0x0000000023e0d4a0                usb_hub_probe
 .text.usb_new_device
                0x0000000023e0d4f4      0x380 common/built-in.o
                0x0000000023e0d4f4                usb_new_device
 .text.usb_scan_devices
                0x0000000023e0d874       0x94 common/built-in.o
                0x0000000023e0d874                usb_scan_devices
 .text._usb_init
                0x0000000023e0d908       0xcc common/built-in.o
                0x0000000023e0d908                _usb_init
 .text.usb_init
                0x0000000023e0d9d4       0x14 common/built-in.o
                0x0000000023e0d9d4                usb_init
 .text.usb_init_exhub_port
                0x0000000023e0d9e8       0x50 common/built-in.o
                0x0000000023e0d9e8                usb_init_exhub_port
 .text.usb_post_init
                0x0000000023e0da38       0xb0 common/built-in.o
                0x0000000023e0da38                usb_post_init
 .text.usb_hub_port_connect_change
                0x0000000023e0dae8      0x138 common/built-in.o
                0x0000000023e0dae8                usb_hub_port_connect_change
 .text.usb_hub_configure
                0x0000000023e0dc20      0x324 common/built-in.o
                0x0000000023e0dc20                usb_hub_configure
 .text.usb_stor_irq
                0x0000000023e0df44       0x1c common/built-in.o
 .text.usb_stor_BBB_reset
                0x0000000023e0df60       0xd8 common/built-in.o
 .text.usb_stor_CB_reset
                0x0000000023e0e038       0xd0 common/built-in.o
 .text.usb_stor_BBB_clear_endpt_stall.isra.2
                0x0000000023e0e108       0x40 common/built-in.o
 .text.usb_stor_BBB_transport
                0x0000000023e0e148      0x264 common/built-in.o
 .text.usb_stor_CB_comdat
                0x0000000023e0e3ac      0x210 common/built-in.o
 .text.usb_stor_CBI_get_status.isra.4
                0x0000000023e0e5bc       0xcc common/built-in.o
 .text.usb_stor_CB_transport
                0x0000000023e0e688      0x1f8 common/built-in.o
 .text.usb_request_sense.constprop.10
                0x0000000023e0e880       0x70 common/built-in.o
 .text.usb_stor_write
                0x0000000023e0e8f0      0x194 common/built-in.o
                0x0000000023e0e8f0                usb_stor_write
 .text.usb_stor_read
                0x0000000023e0ea84      0x194 common/built-in.o
                0x0000000023e0ea84                usb_stor_read
 .text.usb_stor_get_dev
                0x0000000023e0ec18       0x28 common/built-in.o
                0x0000000023e0ec18                usb_stor_get_dev
 .text.usb_stor_info
                0x0000000023e0ec40       0x74 common/built-in.o
                0x0000000023e0ec40                usb_stor_info
 .text.usb_storage_probe
                0x0000000023e0ecb4      0x210 common/built-in.o
                0x0000000023e0ecb4                usb_storage_probe
 .text.usb_stor_get_info
                0x0000000023e0eec4      0x328 common/built-in.o
                0x0000000023e0eec4                usb_stor_get_info
 .text.usb_stor_scan
                0x0000000023e0f1ec      0x1d8 common/built-in.o
                0x0000000023e0f1ec                usb_stor_scan
 .text.BootLogoMemAlloc
                0x0000000023e0f3c4        0x8 common/built-in.o
                0x0000000023e0f3c4                BootLogoMemAlloc
 .text.BootLogoMemRelease
                0x0000000023e0f3cc        0x8 common/built-in.o
                0x0000000023e0f3cc                BootLogoMemRelease
 .text.do_bootfb
                0x0000000023e0f3d4        0x8 common/built-in.o
                0x0000000023e0f3d4                do_bootfb
 .text._BootLogoGetTiminId
                0x0000000023e0f3dc      0x1d4 common/built-in.o
                0x0000000023e0f3dc                _BootLogoGetTiminId
 .text._BootLogoDispPnlInit
                0x0000000023e0f5b0       0xbc common/built-in.o
                0x0000000023e0f5b0                _BootLogoDispPnlInit
 .text._BootLogoYuv444ToYuv420
                0x0000000023e0f66c      0x3bc common/built-in.o
                0x0000000023e0f66c                _BootLogoYuv444ToYuv420
 .text._BootDispCtrl
                0x0000000023e0fa28      0x4ac common/built-in.o
                0x0000000023e0fa28                _BootDispCtrl
 .text._BootDbTable
                0x0000000023e0fed4      0x244 common/built-in.o
                0x0000000023e0fed4                _BootDbTable
 .text.do_display
                0x0000000023e10118      0x804 common/built-in.o
                0x0000000023e10118                do_display
 .text.do_env_delete
                0x0000000023e1091c       0xa0 common/built-in.o
 .text.do_env_save
                0x0000000023e109bc       0x2c common/built-in.o
 .text.do_env   0x0000000023e109e8       0x68 common/built-in.o
 .text.env_print
                0x0000000023e10a50       0xc4 common/built-in.o
 .text.do_env_print
                0x0000000023e10b14       0xc0 common/built-in.o
 .text.do_env_import
                0x0000000023e10bd4      0x280 common/built-in.o
 .text.do_env_default
                0x0000000023e10e54       0x8c common/built-in.o
 .text._do_env_set.isra.0
                0x0000000023e10ee0      0x1ac common/built-in.o
 .text.do_env_set
                0x0000000023e1108c       0x1c common/built-in.o
 .text.get_env_id
                0x0000000023e110a8       0x10 common/built-in.o
                0x0000000023e110a8                get_env_id
 .text.setenv   0x0000000023e110b8       0x5c common/built-in.o
                0x0000000023e110b8                setenv
 .text.setenv_ulong
                0x0000000023e11114       0x20 common/built-in.o
                0x0000000023e11114                setenv_ulong
 .text.setenv_hex
                0x0000000023e11134       0x34 common/built-in.o
                0x0000000023e11134                setenv_hex
 .text.do_env_export
                0x0000000023e11168      0x24c common/built-in.o
 .text.envmatch
                0x0000000023e113b4       0x68 common/built-in.o
                0x0000000023e113b4                envmatch
 .text.getenv_f
                0x0000000023e1141c       0xb8 common/built-in.o
                0x0000000023e1141c                getenv_f
 .text.getenv   0x0000000023e114d4       0x80 common/built-in.o
                0x0000000023e114d4                getenv
 .text.getenv_ulong
                0x0000000023e11554       0x30 common/built-in.o
                0x0000000023e11554                getenv_ulong
 .text.env_get_char_spec
                0x0000000023e11584        0xc common/built-in.o
                0x0000000023e11584                env_get_char_spec
 .text.env_get_addr
                0x0000000023e11590       0x20 common/built-in.o
                0x0000000023e11590                env_get_addr
 .text.env_get_char_memory
                0x0000000023e115b0       0x10 common/built-in.o
                0x0000000023e115b0                env_get_char_memory
 .text.env_get_char
                0x0000000023e115c0       0x30 common/built-in.o
                0x0000000023e115c0                env_get_char
 .text.getenv_yesno
                0x0000000023e115f0       0x3c common/built-in.o
                0x0000000023e115f0                getenv_yesno
 .text.getenv_default
                0x0000000023e1162c       0x30 common/built-in.o
                0x0000000023e1162c                getenv_default
 .text.set_default_env
                0x0000000023e1165c       0xc0 common/built-in.o
                0x0000000023e1165c                set_default_env
 .text.set_default_vars
                0x0000000023e1171c       0x3c common/built-in.o
                0x0000000023e1171c                set_default_vars
 .text.env_import
                0x0000000023e11758       0xe0 common/built-in.o
                0x0000000023e11758                env_import
 .text.env_export
                0x0000000023e11838       0xa0 common/built-in.o
                0x0000000023e11838                env_export
 .text.env_relocate
                0x0000000023e118d8       0x2c common/built-in.o
                0x0000000023e118d8                env_relocate
 .text.env_complete
                0x0000000023e11904       0xdc common/built-in.o
                0x0000000023e11904                env_complete
 .text.on_silent
                0x0000000023e119e0        0x8 common/built-in.o
 .text.console_setfile
                0x0000000023e119e8       0xb8 common/built-in.o
 .text.putc     0x0000000023e11aa0       0x40 common/built-in.o
                0x0000000023e11aa0                putc
 .text.puts     0x0000000023e11ae0       0x40 common/built-in.o
                0x0000000023e11ae0                puts
 .text.printf   0x0000000023e11b20       0x58 common/built-in.o
                0x0000000023e11b20                printf
 .text.fgetc    0x0000000023e11b78       0x24 common/built-in.o
                0x0000000023e11b78                fgetc
 .text.getc     0x0000000023e11b9c       0x24 common/built-in.o
                0x0000000023e11b9c                getc
 .text.ftstc    0x0000000023e11bc0       0x24 common/built-in.o
                0x0000000023e11bc0                ftstc
 .text.tstc     0x0000000023e11be4       0x24 common/built-in.o
                0x0000000023e11be4                tstc
 .text.vprintf  0x0000000023e11c08       0x30 common/built-in.o
                0x0000000023e11c08                vprintf
 .text.ctrlc    0x0000000023e11c38       0x60 common/built-in.o
                0x0000000023e11c38                ctrlc
 .text.confirm_yesno
                0x0000000023e11c98       0xd0 common/built-in.o
                0x0000000023e11c98                confirm_yesno
 .text.disable_ctrlc
                0x0000000023e11d68       0x18 common/built-in.o
                0x0000000023e11d68                disable_ctrlc
 .text.had_ctrlc
                0x0000000023e11d80       0x10 common/built-in.o
                0x0000000023e11d80                had_ctrlc
 .text.clear_ctrlc
                0x0000000023e11d90       0x14 common/built-in.o
                0x0000000023e11d90                clear_ctrlc
 .text.search_device
                0x0000000023e11da4       0x28 common/built-in.o
                0x0000000023e11da4                search_device
 .text.console_assign
                0x0000000023e11dcc       0x40 common/built-in.o
                0x0000000023e11dcc                console_assign
 .text.on_console
                0x0000000023e11e0c       0xbc common/built-in.o
 .text.console_init_f
                0x0000000023e11ec8       0x34 common/built-in.o
                0x0000000023e11ec8                console_init_f
 .text.stdio_print_current_devices
                0x0000000023e11efc       0xb0 common/built-in.o
                0x0000000023e11efc                stdio_print_current_devices
 .text.console_init_r
                0x0000000023e11fac       0xdc common/built-in.o
                0x0000000023e11fac                console_init_r
 .text.sbrk     0x0000000023e12088       0x6c common/built-in.o
                0x0000000023e12088                sbrk
 .text.mem_malloc_init
                0x0000000023e120f4       0x34 common/built-in.o
                0x0000000023e120f4                mem_malloc_init
 .text.malloc_trim
                0x0000000023e12128       0xd0 common/built-in.o
                0x0000000023e12128                malloc_trim
 .text.free     0x0000000023e121f8      0x22c common/built-in.o
                0x0000000023e121f8                free
 .text.malloc   0x0000000023e12424      0x604 common/built-in.o
                0x0000000023e12424                malloc
 .text.calloc   0x0000000023e12a28       0xcc common/built-in.o
                0x0000000023e12a28                calloc
 .text.memalign
                0x0000000023e12af4      0x114 common/built-in.o
                0x0000000023e12af4                memalign
 .text.on_loadaddr
                0x0000000023e12c08       0x40 common/built-in.o
 .text.image_check_hcrc
                0x0000000023e12c48       0x4c common/built-in.o
                0x0000000023e12c48                image_check_hcrc
 .text.image_check_dcrc
                0x0000000023e12c94       0x38 common/built-in.o
                0x0000000023e12c94                image_check_dcrc
 .text.image_multi_count
                0x0000000023e12ccc       0x1c common/built-in.o
                0x0000000023e12ccc                image_multi_count
 .text.image_multi_getimg
                0x0000000023e12ce8       0x80 common/built-in.o
                0x0000000023e12ce8                image_multi_getimg
 .text.getenv_bootm_low
                0x0000000023e12d68       0x30 common/built-in.o
                0x0000000023e12d68                getenv_bootm_low
 .text.getenv_bootm_size
                0x0000000023e12d98       0x5c common/built-in.o
                0x0000000023e12d98                getenv_bootm_size
 .text.memmove_wd
                0x0000000023e12df4       0x70 common/built-in.o
                0x0000000023e12df4                memmove_wd
 .text.genimg_print_size
                0x0000000023e12e64       0x30 common/built-in.o
                0x0000000023e12e64                genimg_print_size
 .text.get_table_entry_name
                0x0000000023e12e94       0x2c common/built-in.o
                0x0000000023e12e94                get_table_entry_name
 .text.genimg_get_os_name
                0x0000000023e12ec0       0x18 common/built-in.o
                0x0000000023e12ec0                genimg_get_os_name
 .text.genimg_get_arch_name
                0x0000000023e12ed8       0x18 common/built-in.o
                0x0000000023e12ed8                genimg_get_arch_name
 .text.genimg_get_type_name
                0x0000000023e12ef0       0x18 common/built-in.o
                0x0000000023e12ef0                genimg_get_type_name
 .text.genimg_get_comp_name
                0x0000000023e12f08       0x18 common/built-in.o
                0x0000000023e12f08                genimg_get_comp_name
 .text.image_print_contents
                0x0000000023e12f20      0x17c common/built-in.o
                0x0000000023e12f20                image_print_contents
 .text.genimg_get_kernel_addr_fit
                0x0000000023e1309c       0x24 common/built-in.o
                0x0000000023e1309c                genimg_get_kernel_addr_fit
 .text.genimg_get_format
                0x0000000023e130c0       0x1c common/built-in.o
                0x0000000023e130c0                genimg_get_format
 .text.genimg_get_image
                0x0000000023e130dc        0x4 common/built-in.o
                0x0000000023e130dc                genimg_get_image
 .text.boot_get_ramdisk
                0x0000000023e130e0      0x234 common/built-in.o
                0x0000000023e130e0                boot_get_ramdisk
 .text.boot_ramdisk_high
                0x0000000023e13314      0x130 common/built-in.o
                0x0000000023e13314                boot_ramdisk_high
 .text.boot_get_setup
                0x0000000023e13444        0x8 common/built-in.o
                0x0000000023e13444                boot_get_setup
 .text.get_effective_memsize
                0x0000000023e1344c        0x8 common/built-in.o
                0x0000000023e1344c                get_effective_memsize
 .text.stdio_serial_tstc
                0x0000000023e13454        0x4 common/built-in.o
 .text.stdio_serial_getc
                0x0000000023e13458        0x4 common/built-in.o
 .text.stdio_serial_puts
                0x0000000023e1345c        0x8 common/built-in.o
 .text.stdio_serial_putc
                0x0000000023e13464        0x8 common/built-in.o
 .text.stdio_get_list
                0x0000000023e1346c        0xc common/built-in.o
                0x0000000023e1346c                stdio_get_list
 .text.stdio_get_by_name
                0x0000000023e13478       0x4c common/built-in.o
                0x0000000023e13478                stdio_get_by_name
 .text.stdio_clone
                0x0000000023e134c4       0x38 common/built-in.o
                0x0000000023e134c4                stdio_clone
 .text.stdio_register_dev
                0x0000000023e134fc       0x50 common/built-in.o
                0x0000000023e134fc                stdio_register_dev
 .text.stdio_register
                0x0000000023e1354c        0x8 common/built-in.o
                0x0000000023e1354c                stdio_register
 .text.stdio_init_tables
                0x0000000023e13554       0x1c common/built-in.o
                0x0000000023e13554                stdio_init_tables
 .text.stdio_add_devices
                0x0000000023e13570       0x7c common/built-in.o
                0x0000000023e13570                stdio_add_devices
 .text.cli_simple_parse_line
                0x0000000023e135ec       0x8c common/built-in.o
                0x0000000023e135ec                cli_simple_parse_line
 .text.cli_simple_process_macros
                0x0000000023e13678      0x1e0 common/built-in.o
                0x0000000023e13678                cli_simple_process_macros
 .text.cli_simple_run_command
                0x0000000023e13858      0x160 common/built-in.o
                0x0000000023e13858                cli_simple_run_command
 .text.cli_simple_loop
                0x0000000023e139b8       0x7c common/built-in.o
                0x0000000023e139b8                cli_simple_loop
 .text.cli_simple_run_command_list
                0x0000000023e13a34       0x70 common/built-in.o
                0x0000000023e13a34                cli_simple_run_command_list
 .text.run_command
                0x0000000023e13aa4       0x18 common/built-in.o
                0x0000000023e13aa4                run_command
 .text.run_command_repeatable
                0x0000000023e13abc        0x4 common/built-in.o
                0x0000000023e13abc                run_command_repeatable
 .text.run_command_list
                0x0000000023e13ac0       0x94 common/built-in.o
                0x0000000023e13ac0                run_command_list
 .text.do_run   0x0000000023e13b54       0x74 common/built-in.o
                0x0000000023e13b54                do_run
 .text.cli_loop
                0x0000000023e13bc8        0x4 common/built-in.o
                0x0000000023e13bc8                cli_loop
 .text.cli_init
                0x0000000023e13bcc        0x4 common/built-in.o
                0x0000000023e13bcc                cli_init
 .text.delete_char.part.0
                0x0000000023e13bd0       0xd0 common/built-in.o
 .text.cread_add_char
                0x0000000023e13ca0       0xe4 common/built-in.o
 .text.cli_readline_into_buffer
                0x0000000023e13d84      0x980 common/built-in.o
                0x0000000023e13d84                cli_readline_into_buffer
 .text.cli_readline
                0x0000000023e14704       0x14 common/built-in.o
                0x0000000023e14704                cli_readline
 .text.find_cmd_tbl
                0x0000000023e14718       0xa4 common/built-in.o
                0x0000000023e14718                find_cmd_tbl
 .text.find_cmd
                0x0000000023e147bc       0x28 common/built-in.o
                0x0000000023e147bc                find_cmd
 .text.cmd_usage
                0x0000000023e147e4       0x5c common/built-in.o
                0x0000000023e147e4                cmd_usage
 .text._do_help
                0x0000000023e14840      0x188 common/built-in.o
                0x0000000023e14840                _do_help
 .text.var_complete
                0x0000000023e149c8       0x88 common/built-in.o
                0x0000000023e149c8                var_complete
 .text.cmd_auto_complete
                0x0000000023e14a50      0x494 common/built-in.o
                0x0000000023e14a50                cmd_auto_complete
 .text.cmd_get_data_size
                0x0000000023e14ee4       0x68 common/built-in.o
                0x0000000023e14ee4                cmd_get_data_size
 .text.cmd_process
                0x0000000023e14f4c       0xbc common/built-in.o
                0x0000000023e14f4c                cmd_process
 .text.common_diskboot
                0x0000000023e15008      0x240 common/built-in.o
                0x0000000023e15008                common_diskboot
 .text.get_script_next_line
                0x0000000023e15248       0xec common/built-in.o
 .text.print_mxp_record
                0x0000000023e15334       0xa8 common/built-in.o
 .text.do_debug
                0x0000000023e153dc       0x2c common/built-in.o
                0x0000000023e153dc                do_debug
 .text.do_mstar
                0x0000000023e15408      0x1d0 common/built-in.o
                0x0000000023e15408                do_mstar
 .text.do_sdstar
                0x0000000023e155d8       0xec common/built-in.o
                0x0000000023e155d8                do_sdstar
 .text.do_usbstar
                0x0000000023e156c4      0x140 common/built-in.o
                0x0000000023e156c4                do_usbstar
 .text.do_estar
                0x0000000023e15804      0x12c common/built-in.o
                0x0000000023e15804                do_estar
 .text.do_dstar
                0x0000000023e15930      0x4b4 common/built-in.o
                0x0000000023e15930                do_dstar
 .text.do_ustar
                0x0000000023e15de4      0x49c common/built-in.o
                0x0000000023e15de4                do_ustar
 .text.do_setclk
                0x0000000023e16280      0x128 common/built-in.o
                0x0000000023e16280                do_setclk
 .text.writeSpinandCIS
                0x0000000023e163a8      0x230 common/built-in.o
                0x0000000023e163a8                writeSpinandCIS
 .text.do_readcisblk
                0x0000000023e165d8       0x30 common/built-in.o
                0x0000000023e165d8                do_readcisblk
 .text.do_readBBM
                0x0000000023e16608       0x90 common/built-in.o
                0x0000000023e16608                do_readBBM
 .text.do_swapBlock
                0x0000000023e16698       0x84 common/built-in.o
                0x0000000023e16698                do_swapBlock
 .text.do_ECC   0x0000000023e1671c       0x80 common/built-in.o
                0x0000000023e1671c                do_ECC
 .text.do_mxp   0x0000000023e1679c      0x3e4 common/built-in.o
                0x0000000023e1679c                do_mxp
 .text.do_aesdma
                0x0000000023e16b80      0x30c common/built-in.o
                0x0000000023e16b80                do_aesdma
 .text.do_uart  0x0000000023e16e8c      0x14c common/built-in.o
                0x0000000023e16e8c                do_uart
 .text.do_fat_fsread
                0x0000000023e16fd8      0x1c4 common/built-in.o
                0x0000000023e16fd8                do_fat_fsread
 .text.halt     0x0000000023e1719c       0x14 common/built-in.o
                0x0000000023e1719c                halt
 .text.do_auth  0x0000000023e171b0      0x378 common/built-in.o
                0x0000000023e171b0                do_auth
 .text.UPDPrintLineSize
                0x0000000023e17528        0x4 common/built-in.o
                0x0000000023e17528                UPDPrintLineSize
 .text.do_io_std_test
                0x0000000023e1752c       0x50 common/built-in.o
                0x0000000023e1752c                do_io_std_test
 .text.do_io_std_burntest
                0x0000000023e1757c       0x78 common/built-in.o
                0x0000000023e1757c                do_io_std_burntest
 .text.do_sdmmc_test
                0x0000000023e175f4      0x4e8 common/built-in.o
                0x0000000023e175f4                do_sdmmc_test
 .text.do_customer_init
                0x0000000023e17adc        0x8 common/built-in.o
                0x0000000023e17adc                do_customer_init
 .text._initDebugLevel
                0x0000000023e17ae4       0xb8 common/built-in.o
 .text.do_set_debugging_message_level
                0x0000000023e17b9c      0x118 common/built-in.o
                0x0000000023e17b9c                do_set_debugging_message_level
 .text.do_initDebugLevel
                0x0000000023e17cb4       0x30 common/built-in.o
                0x0000000023e17cb4                do_initDebugLevel
 .text.do_gpio  0x0000000023e17ce4      0x288 common/built-in.o
                0x0000000023e17ce4                do_gpio
 .text.ReadByte
                0x0000000023e17f6c       0x4c common/built-in.o
                0x0000000023e17f6c                ReadByte
 .text.Read2Byte
                0x0000000023e17fb8       0x44 common/built-in.o
                0x0000000023e17fb8                Read2Byte
 .text.WriteByte
                0x0000000023e17ffc       0x4c common/built-in.o
                0x0000000023e17ffc                WriteByte
 .text.Write2Byte
                0x0000000023e18048       0x48 common/built-in.o
                0x0000000023e18048                Write2Byte
 .text.WriteRegBit
                0x0000000023e18090       0x30 common/built-in.o
                0x0000000023e18090                WriteRegBit
 .text.WriteRegBitPos
                0x0000000023e180c0       0x50 common/built-in.o
                0x0000000023e180c0                WriteRegBitPos
 .text.do_riu   0x0000000023e18110      0x384 common/built-in.o
                0x0000000023e18110                do_riu
 .text.do_sensor_cfg
                0x0000000023e18494       0xec common/built-in.o
                0x0000000023e18494                do_sensor_cfg
 .text.get_dev_hwpart.part.0
                0x0000000023e18580       0x98 disk/built-in.o
 .text.get_dev  0x0000000023e18618       0x10 disk/built-in.o
                0x0000000023e18618                get_dev
 .text.dev_print
                0x0000000023e18628      0x214 disk/built-in.o
                0x0000000023e18628                dev_print
 .text.init_part
                0x0000000023e1883c       0x20 disk/built-in.o
                0x0000000023e1883c                init_part
 .text.print_part
                0x0000000023e1885c       0xf4 disk/built-in.o
                0x0000000023e1885c                print_part
 .text.get_partition_info
                0x0000000023e18950       0x2c disk/built-in.o
                0x0000000023e18950                get_partition_info
 .text.get_device
                0x0000000023e1897c      0x124 disk/built-in.o
                0x0000000023e1897c                get_device
 .text.get_device_and_partition
                0x0000000023e18aa0      0x438 disk/built-in.o
                0x0000000023e18aa0                get_device_and_partition
 .text.test_block_type
                0x0000000023e18ed8       0x84 disk/built-in.o
 .text.print_partition_extended
                0x0000000023e18f5c      0x270 disk/built-in.o
 .text.get_partition_info_extended.constprop.1
                0x0000000023e191cc      0x430 disk/built-in.o
 .text.test_part_dos
                0x0000000023e195fc       0x64 disk/built-in.o
                0x0000000023e195fc                test_part_dos
 .text.print_part_dos
                0x0000000023e19660       0x34 disk/built-in.o
                0x0000000023e19660                print_part_dos
 .text.get_partition_info_dos
                0x0000000023e19694       0x20 disk/built-in.o
                0x0000000023e19694                get_partition_info_dos
 .text.ms_uart_padmux
                0x0000000023e196b4       0x18 drivers/built-in.o
                0x0000000023e196b4                ms_uart_padmux
 .text.ms_serial_tstc
                0x0000000023e196cc       0x14 drivers/built-in.o
                0x0000000023e196cc                ms_serial_tstc
 .text.ms_serial_setbrg
                0x0000000023e196e0       0x60 drivers/built-in.o
                0x0000000023e196e0                ms_serial_setbrg
 .text.ms_serial_init
                0x0000000023e19740       0x60 drivers/built-in.o
                0x0000000023e19740                ms_serial_init
 .text.ms_serial_getc
                0x0000000023e197a0       0x24 drivers/built-in.o
                0x0000000023e197a0                ms_serial_getc
 .text.ms_putc  0x0000000023e197c4       0x1c drivers/built-in.o
                0x0000000023e197c4                ms_putc
 .text.ms_serial_putc
                0x0000000023e197e0       0x24 drivers/built-in.o
                0x0000000023e197e0                ms_serial_putc
 .text.ms_serial_initialize
                0x0000000023e19804        0xc drivers/built-in.o
                0x0000000023e19804                ms_serial_initialize
 .text.default_serial_console
                0x0000000023e19810        0xc drivers/built-in.o
                0x0000000023e19810                default_serial_console
 .text.ms_uart_getc
                0x0000000023e1981c       0x28 drivers/built-in.o
                0x0000000023e1981c                ms_uart_getc
 .text.ms_uart_putc
                0x0000000023e19844       0x5c drivers/built-in.o
                0x0000000023e19844                ms_uart_putc
 .text.ms_uart_init
                0x0000000023e198a0      0x140 drivers/built-in.o
                0x0000000023e198a0                ms_uart_init
 .text.Hal_CREG_SET_PORT
                0x0000000023e199e0       0x10 drivers/built-in.o
                0x0000000023e199e0                Hal_CREG_SET_PORT
 .text.Hal_CREG_GET_PORT
                0x0000000023e199f0       0x10 drivers/built-in.o
                0x0000000023e199f0                Hal_CREG_GET_PORT
 .text.Hal_CREG_GET_REG_BANK
                0x0000000023e19a00       0x50 drivers/built-in.o
                0x0000000023e19a00                Hal_CREG_GET_REG_BANK
 .text.Hal_Timer_mDelay
                0x0000000023e19a50       0x14 drivers/built-in.o
                0x0000000023e19a50                Hal_Timer_mDelay
 .text.Hal_Timer_uDelay
                0x0000000023e19a64       0x14 drivers/built-in.o
                0x0000000023e19a64                Hal_Timer_uDelay
 .text._REG_WaitEvent
                0x0000000023e19a78       0x88 drivers/built-in.o
 .text._REG_ResetIP
                0x0000000023e19b00       0xd0 drivers/built-in.o
 .text._SDMMC_EndProcess.isra.0
                0x0000000023e19bd0      0x534 drivers/built-in.o
 .text._REG_ClearMIEEvent.constprop.3
                0x0000000023e1a104       0x5c drivers/built-in.o
 .text._REG_ClearSDSTS.constprop.4
                0x0000000023e1a160       0x60 drivers/built-in.o
 .text._BUF_CIFD_DATA_IO
                0x0000000023e1a1c0       0x70 drivers/built-in.o
                0x0000000023e1a1c0                _BUF_CIFD_DATA_IO
 .text._BUF_CIFD_WaitEvent
                0x0000000023e1a230      0x15c drivers/built-in.o
 .text.Hal_SDMMC_SetSDIODevice
                0x0000000023e1a38c       0x1c drivers/built-in.o
                0x0000000023e1a38c                Hal_SDMMC_SetSDIODevice
 .text.Hal_SDMMC_SetDataWidth
                0x0000000023e1a3a8       0x18 drivers/built-in.o
                0x0000000023e1a3a8                Hal_SDMMC_SetDataWidth
 .text.Hal_SDMMC_SetBusTiming
                0x0000000023e1a3c0       0x34 drivers/built-in.o
                0x0000000023e1a3c0                Hal_SDMMC_SetBusTiming
 .text.Hal_SDMMC_SetNrcDelay
                0x0000000023e1a3f4      0x100 drivers/built-in.o
                0x0000000023e1a3f4                Hal_SDMMC_SetNrcDelay
 .text.Hal_SDMMC_SetCmdToken
                0x0000000023e1a4f4       0x84 drivers/built-in.o
                0x0000000023e1a4f4                Hal_SDMMC_SetCmdToken
 .text.Hal_SDMMC_GetRspToken
                0x0000000023e1a578       0x90 drivers/built-in.o
                0x0000000023e1a578                Hal_SDMMC_GetRspToken
 .text.Hal_SDMMC_TransCmdSetting
                0x0000000023e1a608       0xf0 drivers/built-in.o
                0x0000000023e1a608                Hal_SDMMC_TransCmdSetting
 .text.Hal_SDMMC_SendCmdAndWaitProcess
                0x0000000023e1a6f8      0x408 drivers/built-in.o
                0x0000000023e1a6f8                Hal_SDMMC_SendCmdAndWaitProcess
 .text.Hal_SDMMC_ADMASetting
                0x0000000023e1ab00       0x54 drivers/built-in.o
                0x0000000023e1ab00                Hal_SDMMC_ADMASetting
 .text.Hal_SDMMC_ErrGroup
                0x0000000023e1ab54       0x74 drivers/built-in.o
                0x0000000023e1ab54                Hal_SDMMC_ErrGroup
 .text.Hal_SDMMC_ClkCtrl
                0x0000000023e1abc8       0x7c drivers/built-in.o
                0x0000000023e1abc8                Hal_SDMMC_ClkCtrl
 .text.Hal_SDMMC_Reset
                0x0000000023e1ac44        0x4 drivers/built-in.o
                0x0000000023e1ac44                Hal_SDMMC_Reset
 .text.Hal_CARD_IPOnceSetting
                0x0000000023e1ac48       0x84 drivers/built-in.o
                0x0000000023e1ac48                Hal_CARD_IPOnceSetting
 .text.Hal_CARD_IPBeginSetting
                0x0000000023e1accc        0x4 drivers/built-in.o
                0x0000000023e1accc                Hal_CARD_IPBeginSetting
 .text.Hal_CARD_InitPADPin
                0x0000000023e1acd0       0x58 drivers/built-in.o
                0x0000000023e1acd0                Hal_CARD_InitPADPin
 .text.Hal_CARD_SetPADToPortPath
                0x0000000023e1ad28       0x90 drivers/built-in.o
                0x0000000023e1ad28                Hal_CARD_SetPADToPortPath
 .text.Hal_CARD_PullPADPin
                0x0000000023e1adb8      0x354 drivers/built-in.o
                0x0000000023e1adb8                Hal_CARD_PullPADPin
 .text.Hal_CARD_SetClock
                0x0000000023e1b10c      0x204 drivers/built-in.o
                0x0000000023e1b10c                Hal_CARD_SetClock
 .text.Hal_CARD_FindClockSetting
                0x0000000023e1b310       0xa8 drivers/built-in.o
                0x0000000023e1b310                Hal_CARD_FindClockSetting
 .text.Hal_CARD_SetBusTiming
                0x0000000023e1b3b8       0x10 drivers/built-in.o
                0x0000000023e1b3b8                Hal_CARD_SetBusTiming
 .text.Hal_CARD_PowerOn
                0x0000000023e1b3c8       0x60 drivers/built-in.o
                0x0000000023e1b3c8                Hal_CARD_PowerOn
 .text.Hal_CARD_PowerOff
                0x0000000023e1b428       0x54 drivers/built-in.o
                0x0000000023e1b428                Hal_CARD_PowerOff
 .text.Hal_CARD_InitGPIO
                0x0000000023e1b47c       0x20 drivers/built-in.o
                0x0000000023e1b47c                Hal_CARD_InitGPIO
 .text.Hal_CARD_GetGPIOState
                0x0000000023e1b49c       0x28 drivers/built-in.o
                0x0000000023e1b49c                Hal_CARD_GetGPIOState
 .text.Hal_CARD_TransMIUAddr
                0x0000000023e1b4c4       0x2c drivers/built-in.o
                0x0000000023e1b4c4                Hal_CARD_TransMIUAddr
 .text.mmc_send_cmd
                0x0000000023e1b4f0      0x278 drivers/built-in.o
 .text.mmc_set_ios
                0x0000000023e1b768       0xf0 drivers/built-in.o
 .text.mmc_core_init
                0x0000000023e1b858      0x10c drivers/built-in.o
 .text.board_mmc_init
                0x0000000023e1b964       0xa4 drivers/built-in.o
                0x0000000023e1b964                board_mmc_init
 .text._RetArrToU32
                0x0000000023e1ba08       0x24 drivers/built-in.o
 .text._SDMMC_CMDReq
                0x0000000023e1ba2c       0x48 drivers/built-in.o
 .text._SDMMC_DATAReq
                0x0000000023e1ba74       0x8c drivers/built-in.o
 .text._SDMMC_SD_SWITCH_FUNC
                0x0000000023e1bb00       0x5c drivers/built-in.o
 .text.SDMMC_SwitchPAD
                0x0000000023e1bb5c       0x5c drivers/built-in.o
                0x0000000023e1bb5c                SDMMC_SwitchPAD
 .text.SDMMC_SetPAD
                0x0000000023e1bbb8       0x28 drivers/built-in.o
                0x0000000023e1bbb8                SDMMC_SetPAD
 .text.SDMMC_SetPower
                0x0000000023e1bbe0       0x98 drivers/built-in.o
                0x0000000023e1bbe0                SDMMC_SetPower
 .text.SDMMC_SetClock
                0x0000000023e1bc78       0x70 drivers/built-in.o
                0x0000000023e1bc78                SDMMC_SetClock
 .text.SDMMC_SetBusTiming
                0x0000000023e1bce8       0x2c drivers/built-in.o
                0x0000000023e1bce8                SDMMC_SetBusTiming
 .text.SDMMC_CardDetect
                0x0000000023e1bd14       0x18 drivers/built-in.o
                0x0000000023e1bd14                SDMMC_CardDetect
 .text.SDMMC_SetWideBus
                0x0000000023e1bd2c       0xb4 drivers/built-in.o
                0x0000000023e1bd2c                SDMMC_SetWideBus
 .text.SDMMC_SwitchHighBus
                0x0000000023e1bde0      0x300 drivers/built-in.o
                0x0000000023e1bde0                SDMMC_SwitchHighBus
 .text.SDMMC_Init
                0x0000000023e1c0e0      0x6dc drivers/built-in.o
                0x0000000023e1c0e0                SDMMC_Init
 .text.SDMMC_CIF_BLK_R
                0x0000000023e1c7bc       0x64 drivers/built-in.o
                0x0000000023e1c7bc                SDMMC_CIF_BLK_R
 .text.SDMMC_CIF_BLK_W
                0x0000000023e1c820       0x64 drivers/built-in.o
                0x0000000023e1c820                SDMMC_CIF_BLK_W
 .text.SDMMC_DMA_BLK_R
                0x0000000023e1c884       0x9c drivers/built-in.o
                0x0000000023e1c884                SDMMC_DMA_BLK_R
 .text.SDMMC_DMA_BLK_W
                0x0000000023e1c920       0x9c drivers/built-in.o
                0x0000000023e1c920                SDMMC_DMA_BLK_W
 .text.SDMMC_ADMA_BLK_R
                0x0000000023e1c9bc      0x130 drivers/built-in.o
                0x0000000023e1c9bc                SDMMC_ADMA_BLK_R
 .text.SDMMC_ADMA_BLK_W
                0x0000000023e1caec      0x130 drivers/built-in.o
                0x0000000023e1caec                SDMMC_ADMA_BLK_W
 .text._PRT_MSG.part.0
                0x0000000023e1cc1c       0x64 drivers/built-in.o
 .text._PRT_VALUE.part.1
                0x0000000023e1cc80       0x6c drivers/built-in.o
 .text._PRT_LINE
                0x0000000023e1ccec       0x14 drivers/built-in.o
                0x0000000023e1ccec                _PRT_LINE
 .text._PRT_ENTER
                0x0000000023e1cd00       0x14 drivers/built-in.o
                0x0000000023e1cd00                _PRT_ENTER
 .text._PRT_MSG
                0x0000000023e1cd14       0x8c drivers/built-in.o
                0x0000000023e1cd14                _PRT_MSG
 .text._DUMP_MEM_ARR
                0x0000000023e1cda0       0x98 drivers/built-in.o
                0x0000000023e1cda0                _DUMP_MEM_ARR
 .text._MEM_COMPARE
                0x0000000023e1ce38       0x4c drivers/built-in.o
                0x0000000023e1ce38                _MEM_COMPARE
 .text._SET_MEM_PATTERN
                0x0000000023e1ce84      0x178 drivers/built-in.o
                0x0000000023e1ce84                _SET_MEM_PATTERN
 .text.IPV_SDMMC_DMA_RW.part.3
                0x0000000023e1cffc      0x13c drivers/built-in.o
 .text.IPV_SDMMC_TimerTest
                0x0000000023e1d138       0x80 drivers/built-in.o
                0x0000000023e1d138                IPV_SDMMC_TimerTest
 .text.IPV_SDMMC_CardDetect
                0x0000000023e1d1b8       0x54 drivers/built-in.o
                0x0000000023e1d1b8                IPV_SDMMC_CardDetect
 .text.IPV_SDMMC_Init
                0x0000000023e1d20c       0x50 drivers/built-in.o
                0x0000000023e1d20c                IPV_SDMMC_Init
 .text.IPV_SDMMC_SetWideBus
                0x0000000023e1d25c       0x50 drivers/built-in.o
                0x0000000023e1d25c                IPV_SDMMC_SetWideBus
 .text.IPV_SDMMC_SetHighBus
                0x0000000023e1d2ac       0x50 drivers/built-in.o
                0x0000000023e1d2ac                IPV_SDMMC_SetHighBus
 .text.IPV_SDMMC_SetClock
                0x0000000023e1d2fc       0x50 drivers/built-in.o
                0x0000000023e1d2fc                IPV_SDMMC_SetClock
 .text.IPV_SDMMC_SetBusTiming
                0x0000000023e1d34c       0x48 drivers/built-in.o
                0x0000000023e1d34c                IPV_SDMMC_SetBusTiming
 .text.IPV_SDMMC_CIFD_RW
                0x0000000023e1d394      0x128 drivers/built-in.o
                0x0000000023e1d394                IPV_SDMMC_CIFD_RW
 .text.IPV_SDMMC_DMA_RW
                0x0000000023e1d4bc        0xc drivers/built-in.o
                0x0000000023e1d4bc                IPV_SDMMC_DMA_RW
 .text.IPV_SDMMC_ADMA_RW
                0x0000000023e1d4c8      0x194 drivers/built-in.o
                0x0000000023e1d4c8                IPV_SDMMC_ADMA_RW
 .text.IPV_SDMMC_TestPattern
                0x0000000023e1d65c       0x48 drivers/built-in.o
                0x0000000023e1d65c                IPV_SDMMC_TestPattern
 .text.IPV_SDMMC_BurnRW
                0x0000000023e1d6a4      0x1d8 drivers/built-in.o
                0x0000000023e1d6a4                IPV_SDMMC_BurnRW
 .text.IPV_SDMMC_SetPAD
                0x0000000023e1d87c       0x5c drivers/built-in.o
                0x0000000023e1d87c                IPV_SDMMC_SetPAD
 .text.IPV_SDMMC_PowerSavingModeVerify
                0x0000000023e1d8d8      0x3a4 drivers/built-in.o
                0x0000000023e1d8d8                IPV_SDMMC_PowerSavingModeVerify
 .text._Hal_GetMsTime.constprop.10
                0x0000000023e1dc7c       0x28 drivers/built-in.o
 .text._HAL_FSP_WaitDone
                0x0000000023e1dca4       0x8c drivers/built-in.o
 .text.HAL_SERFLASH_SelectReadMode
                0x0000000023e1dd30       0xd8 drivers/built-in.o
                0x0000000023e1dd30                HAL_SERFLASH_SelectReadMode
 .text.msFlash_ActiveFlash_Set_HW_WP
                0x0000000023e1de08       0x20 drivers/built-in.o
                0x0000000023e1de08                msFlash_ActiveFlash_Set_HW_WP
 .text.HAL_SERFLASH_ClkDiv
                0x0000000023e1de28       0xc8 drivers/built-in.o
                0x0000000023e1de28                HAL_SERFLASH_ClkDiv
 .text.HAL_SERFLASH_Config
                0x0000000023e1def0       0x18 drivers/built-in.o
                0x0000000023e1def0                HAL_SERFLASH_Config
 .text.HAL_SERFLASH_Init
                0x0000000023e1df08       0x7c drivers/built-in.o
                0x0000000023e1df08                HAL_SERFLASH_Init
 .text.HAL_SERFLASH_DetectSize
                0x0000000023e1df84       0x18 drivers/built-in.o
                0x0000000023e1df84                HAL_SERFLASH_DetectSize
 .text.HAL_SERFLASH_AddressToBlock
                0x0000000023e1df9c       0xc0 drivers/built-in.o
                0x0000000023e1df9c                HAL_SERFLASH_AddressToBlock
 .text.HAL_SERFLASH_BlockToAddress
                0x0000000023e1e05c       0xa4 drivers/built-in.o
                0x0000000023e1e05c                HAL_SERFLASH_BlockToAddress
 .text.HAL_FSP_ReadBufs
                0x0000000023e1e100       0xf0 drivers/built-in.o
                0x0000000023e1e100                HAL_FSP_ReadBufs
 .text.HAL_FSP_WriteBufs
                0x0000000023e1e1f0      0x114 drivers/built-in.o
                0x0000000023e1e1f0                HAL_FSP_WriteBufs
 .text.HAL_FSP_Read
                0x0000000023e1e304      0x1a4 drivers/built-in.o
                0x0000000023e1e304                HAL_FSP_Read
 .text.HAL_SERFLASH_Read
                0x0000000023e1e4a8       0xac drivers/built-in.o
                0x0000000023e1e4a8                HAL_SERFLASH_Read
 .text.HAL_FSP_WriteStatus
                0x0000000023e1e554      0x1a8 drivers/built-in.o
                0x0000000023e1e554                HAL_FSP_WriteStatus
 .text.HAL_FSP_WriteProtect
                0x0000000023e1e6fc       0xbc drivers/built-in.o
                0x0000000023e1e6fc                HAL_FSP_WriteProtect
 .text.HAL_SERFLASH_WriteProtect
                0x0000000023e1e7b8       0x80 drivers/built-in.o
                0x0000000023e1e7b8                HAL_SERFLASH_WriteProtect
 .text.HAL_FSP_ReadID
                0x0000000023e1e838      0x180 drivers/built-in.o
                0x0000000023e1e838                HAL_FSP_ReadID
 .text.HAL_SERFLASH_ReadID
                0x0000000023e1e9b8       0x60 drivers/built-in.o
                0x0000000023e1e9b8                HAL_SERFLASH_ReadID
 .text.HAL_FSP_ReadREMS4
                0x0000000023e1ea18      0x1c8 drivers/built-in.o
                0x0000000023e1ea18                HAL_FSP_ReadREMS4
 .text.HAL_FSP_WriteStatusReg
                0x0000000023e1ebe0      0x16c drivers/built-in.o
                0x0000000023e1ebe0                HAL_FSP_WriteStatusReg
 .text.HAL_FSP_Entry
                0x0000000023e1ed4c       0x7c drivers/built-in.o
                0x0000000023e1ed4c                HAL_FSP_Entry
 .text.HAL_FSP_Exit
                0x0000000023e1edc8       0x3c drivers/built-in.o
                0x0000000023e1edc8                HAL_FSP_Exit
 .text.HAL_FSP_WriteExtAddrReg
                0x0000000023e1ee04      0x184 drivers/built-in.o
                0x0000000023e1ee04                HAL_FSP_WriteExtAddrReg
 .text.HAL_SERFLASH_DetectType
                0x0000000023e1ef88      0x2d4 drivers/built-in.o
                0x0000000023e1ef88                HAL_SERFLASH_DetectType
 .text.HAL_SERFLASH_WriteExtAddrRegister
                0x0000000023e1f25c       0x58 drivers/built-in.o
                0x0000000023e1f25c                HAL_SERFLASH_WriteExtAddrRegister
 .text._HAL_FSP_BlockErase
                0x0000000023e1f2b4      0x170 drivers/built-in.o
 .text.HAL_FSP_BlockErase
                0x0000000023e1f424       0xdc drivers/built-in.o
                0x0000000023e1f424                HAL_FSP_BlockErase
 .text.HAL_SERFLASH_BlockErase
                0x0000000023e1f500        0x4 drivers/built-in.o
                0x0000000023e1f500                HAL_SERFLASH_BlockErase
 .text.HAL_FSP_SectorErase
                0x0000000023e1f504       0x2c drivers/built-in.o
                0x0000000023e1f504                HAL_FSP_SectorErase
 .text.HAL_SERFLASH_SectorErase
                0x0000000023e1f530        0x8 drivers/built-in.o
                0x0000000023e1f530                HAL_SERFLASH_SectorErase
 .text._HAL_PP_BDMAToFSP
                0x0000000023e1f538      0x2d0 drivers/built-in.o
 .text.HAL_FSP_Write_BDMA
                0x0000000023e1f808      0x170 drivers/built-in.o
                0x0000000023e1f808                HAL_FSP_Write_BDMA
 .text.HAL_SERFLASH_Write
                0x0000000023e1f978       0x80 drivers/built-in.o
                0x0000000023e1f978                HAL_SERFLASH_Write
 .text.MDrv_SERFLASH_DetectSize
                0x0000000023e1f9f8       0x3c drivers/built-in.o
                0x0000000023e1f9f8                MDrv_SERFLASH_DetectSize
 .text.MDrv_SERFLASH_Init
                0x0000000023e1fa34       0x60 drivers/built-in.o
                0x0000000023e1fa34                MDrv_SERFLASH_Init
 .text.MDrv_SERFLASH_AddressToBlock
                0x0000000023e1fa94       0x4c drivers/built-in.o
                0x0000000023e1fa94                MDrv_SERFLASH_AddressToBlock
 .text.MDrv_SERFLASH_BlockErase
                0x0000000023e1fae0       0x5c drivers/built-in.o
                0x0000000023e1fae0                MDrv_SERFLASH_BlockErase
 .text.MDrv_SERFLASH_AddressErase
                0x0000000023e1fb3c       0x8c drivers/built-in.o
                0x0000000023e1fb3c                MDrv_SERFLASH_AddressErase
 .text.MDrv_SERFLASH_Write
                0x0000000023e1fbc8       0x5c drivers/built-in.o
                0x0000000023e1fbc8                MDrv_SERFLASH_Write
 .text.MDrv_SERFLASH_Read
                0x0000000023e1fc24       0x5c drivers/built-in.o
                0x0000000023e1fc24                MDrv_SERFLASH_Read
 .text.MDrv_SERFLASH_SectorErase
                0x0000000023e1fc80      0x128 drivers/built-in.o
                0x0000000023e1fc80                MDrv_SERFLASH_SectorErase
 .text.MDrv_SERFLASH_WriteProtect
                0x0000000023e1fda8       0x40 drivers/built-in.o
                0x0000000023e1fda8                MDrv_SERFLASH_WriteProtect
 .text.MDrv_SERFLASH_WriteExtAddrRegister
                0x0000000023e1fde8       0x40 drivers/built-in.o
                0x0000000023e1fde8                MDrv_SERFLASH_WriteExtAddrRegister
 .text.MS_SERFLASH_CREATE_MUTEX
                0x0000000023e1fe28        0x8 drivers/built-in.o
                0x0000000023e1fe28                MS_SERFLASH_CREATE_MUTEX
 .text.MS_SERFLASH_OBTAIN_MUTEX
                0x0000000023e1fe30        0x8 drivers/built-in.o
                0x0000000023e1fe30                MS_SERFLASH_OBTAIN_MUTEX
 .text.MS_SERFLASH_RELEASE_MUTEX
                0x0000000023e1fe38        0x8 drivers/built-in.o
                0x0000000023e1fe38                MS_SERFLASH_RELEASE_MUTEX
 .text._spi_flash_read
                0x0000000023e1fe40       0xa8 drivers/built-in.o
                0x0000000023e1fe40                _spi_flash_read
 .text._spi_flash_write
                0x0000000023e1fee8       0xbc drivers/built-in.o
                0x0000000023e1fee8                _spi_flash_write
 .text._spi_flash_erase
                0x0000000023e1ffa4      0x13c drivers/built-in.o
                0x0000000023e1ffa4                _spi_flash_erase
 .text.spi_flash_probe
                0x0000000023e200e0       0xc0 drivers/built-in.o
                0x0000000023e200e0                spi_flash_probe
 .text.spi_flash_free
                0x0000000023e201a0        0x4 drivers/built-in.o
                0x0000000023e201a0                spi_flash_free
 .text.HAL_AESDMA_SetXIULength
                0x0000000023e201a4       0x1c drivers/built-in.o
                0x0000000023e201a4                HAL_AESDMA_SetXIULength
 .text.HAL_AESDMA_UseHwKey
                0x0000000023e201c0       0x20 drivers/built-in.o
                0x0000000023e201c0                HAL_AESDMA_UseHwKey
 .text.HAL_AESDMA_UseEfuseKey
                0x0000000023e201e0       0x20 drivers/built-in.o
                0x0000000023e201e0                HAL_AESDMA_UseEfuseKey
 .text.HAL_AESDMA_UseCipherKey
                0x0000000023e20200       0x1c drivers/built-in.o
                0x0000000023e20200                HAL_AESDMA_UseCipherKey
 .text.HAL_AESDMA_CipherEncrypt
                0x0000000023e2021c       0x1c drivers/built-in.o
                0x0000000023e2021c                HAL_AESDMA_CipherEncrypt
 .text.HAL_AESDMA_CipherDecrypt
                0x0000000023e20238       0x18 drivers/built-in.o
                0x0000000023e20238                HAL_AESDMA_CipherDecrypt
 .text.HAL_AESDMA_Enable
                0x0000000023e20250       0x18 drivers/built-in.o
                0x0000000023e20250                HAL_AESDMA_Enable
 .text.HAL_AESDMA_FileOutEnable
                0x0000000023e20268       0x28 drivers/built-in.o
                0x0000000023e20268                HAL_AESDMA_FileOutEnable
 .text.HAL_AESDMA_SetFileinAddr
                0x0000000023e20290       0x20 drivers/built-in.o
                0x0000000023e20290                HAL_AESDMA_SetFileinAddr
 .text.HAL_AESDMA_SetFileoutAddr
                0x0000000023e202b0       0x3c drivers/built-in.o
                0x0000000023e202b0                HAL_AESDMA_SetFileoutAddr
 .text.HAL_AESDMA_SetCipherKey
                0x0000000023e202ec       0x34 drivers/built-in.o
                0x0000000023e202ec                HAL_AESDMA_SetCipherKey
 .text.HAL_AESDMA_SetIV
                0x0000000023e20320       0x34 drivers/built-in.o
                0x0000000023e20320                HAL_AESDMA_SetIV
 .text.HAL_AESDMA_SetChainModeECB
                0x0000000023e20354       0x1c drivers/built-in.o
                0x0000000023e20354                HAL_AESDMA_SetChainModeECB
 .text.HAL_AESDMA_SetChainModeCTR
                0x0000000023e20370       0x20 drivers/built-in.o
                0x0000000023e20370                HAL_AESDMA_SetChainModeCTR
 .text.HAL_AESDMA_SetChainModeCBC
                0x0000000023e20390       0x20 drivers/built-in.o
                0x0000000023e20390                HAL_AESDMA_SetChainModeCBC
 .text.HAL_AESDMA_Reset
                0x0000000023e203b0       0x94 drivers/built-in.o
                0x0000000023e203b0                HAL_AESDMA_Reset
 .text.HAL_AESDMA_Start
                0x0000000023e20444       0x2c drivers/built-in.o
                0x0000000023e20444                HAL_AESDMA_Start
 .text.HAL_AESDMA_GetStatus
                0x0000000023e20470       0x10 drivers/built-in.o
                0x0000000023e20470                HAL_AESDMA_GetStatus
 .text.HAL_RSA_Reset
                0x0000000023e20480       0x28 drivers/built-in.o
                0x0000000023e20480                HAL_RSA_Reset
 .text.HAL_RSA_Ind32Ctrl
                0x0000000023e204a8       0x40 drivers/built-in.o
                0x0000000023e204a8                HAL_RSA_Ind32Ctrl
 .text.HAL_RSA_LoadSignInverse_2byte
                0x0000000023e204e8       0x68 drivers/built-in.o
                0x0000000023e204e8                HAL_RSA_LoadSignInverse_2byte
 .text.HAL_RSA_LoadKeyE
                0x0000000023e20550       0x3c drivers/built-in.o
                0x0000000023e20550                HAL_RSA_LoadKeyE
 .text.HAL_RSA_LoadKeyNInverse
                0x0000000023e2058c       0x64 drivers/built-in.o
                0x0000000023e2058c                HAL_RSA_LoadKeyNInverse
 .text.HAL_RSA_SetKeyLength
                0x0000000023e205f0       0x1c drivers/built-in.o
                0x0000000023e205f0                HAL_RSA_SetKeyLength
 .text.HAL_RSA_SetKeyType
                0x0000000023e2060c       0x44 drivers/built-in.o
                0x0000000023e2060c                HAL_RSA_SetKeyType
 .text.HAL_RSA_ExponetialStart
                0x0000000023e20650       0x18 drivers/built-in.o
                0x0000000023e20650                HAL_RSA_ExponetialStart
 .text.HAL_RSA_GetStatus
                0x0000000023e20668       0x10 drivers/built-in.o
                0x0000000023e20668                HAL_RSA_GetStatus
 .text.HAL_RSA_FileOutStart
                0x0000000023e20678       0x18 drivers/built-in.o
                0x0000000023e20678                HAL_RSA_FileOutStart
 .text.HAL_RSA_FileOutEnd
                0x0000000023e20690       0x1c drivers/built-in.o
                0x0000000023e20690                HAL_RSA_FileOutEnd
 .text.HAL_RSA_SetFileOutAddr
                0x0000000023e206ac       0x18 drivers/built-in.o
                0x0000000023e206ac                HAL_RSA_SetFileOutAddr
 .text.HAL_RSA_FileOut
                0x0000000023e206c4       0x18 drivers/built-in.o
                0x0000000023e206c4                HAL_RSA_FileOut
 .text.HAL_SHA_Reset
                0x0000000023e206dc       0x34 drivers/built-in.o
                0x0000000023e206dc                HAL_SHA_Reset
 .text.HAL_SHA_SetAddress
                0x0000000023e20710       0x2c drivers/built-in.o
                0x0000000023e20710                HAL_SHA_SetAddress
 .text.HAL_SHA_SetLength
                0x0000000023e2073c       0x1c drivers/built-in.o
                0x0000000023e2073c                HAL_SHA_SetLength
 .text.HAL_SHA_SelMode
                0x0000000023e20758       0x28 drivers/built-in.o
                0x0000000023e20758                HAL_SHA_SelMode
 .text.HAL_SHA_GetStatus
                0x0000000023e20780       0x10 drivers/built-in.o
                0x0000000023e20780                HAL_SHA_GetStatus
 .text.HAL_SHA_Clear
                0x0000000023e20790       0x28 drivers/built-in.o
                0x0000000023e20790                HAL_SHA_Clear
 .text.HAL_SHA_Start
                0x0000000023e207b8       0x28 drivers/built-in.o
                0x0000000023e207b8                HAL_SHA_Start
 .text.HAL_SHA_Out
                0x0000000023e207e0       0x24 drivers/built-in.o
                0x0000000023e207e0                HAL_SHA_Out
 .text.MDrv_AESDMA_Run
                0x0000000023e20804       0xf8 drivers/built-in.o
                0x0000000023e20804                MDrv_AESDMA_Run
 .text.MDrv_SHA_Run
                0x0000000023e208fc       0x64 drivers/built-in.o
                0x0000000023e208fc                MDrv_SHA_Run
 .text.MDrv_RSA_Run
                0x0000000023e20960       0xcc drivers/built-in.o
                0x0000000023e20960                MDrv_RSA_Run
 .text.runAuthenticate
                0x0000000023e20a2c       0xdc drivers/built-in.o
                0x0000000023e20a2c                runAuthenticate
 .text._HAL_FSP_ChkWaitDone
                0x0000000023e20b08       0x34 drivers/built-in.o
 .text._HAL_FSP_GetRData
                0x0000000023e20b3c       0x4c drivers/built-in.o
 .text._HAL_SPINAND_BDMA_Write.isra.0
                0x0000000023e20b88       0x74 drivers/built-in.o
 .text.FSP_WRITE_BYTE
                0x0000000023e20bfc       0x4c drivers/built-in.o
 .text._HAL_FSP_CHECK_SPINAND_DONE
                0x0000000023e20c48       0xec drivers/built-in.o
                0x0000000023e20c48                _HAL_FSP_CHECK_SPINAND_DONE
 .text._HAL_FSP_SendOneCmd3A.constprop.11
                0x0000000023e20d34       0xe0 drivers/built-in.o
 .text._HAL_FSP_SendOneCmd
                0x0000000023e20e14       0x98 drivers/built-in.o
                0x0000000023e20e14                _HAL_FSP_SendOneCmd
 .text.HAL_SPINAND_PLANE_HANDLER
                0x0000000023e20eac       0x64 drivers/built-in.o
                0x0000000023e20eac                HAL_SPINAND_PLANE_HANDLER
 .text.HAL_SPINAND_RFC
                0x0000000023e20f10       0xbc drivers/built-in.o
                0x0000000023e20f10                HAL_SPINAND_RFC
 .text.HAL_SPINAND_Read
                0x0000000023e20fcc      0x110 drivers/built-in.o
                0x0000000023e20fcc                HAL_SPINAND_Read
 .text.HAL_SPINAND_ReadID
                0x0000000023e210dc      0x100 drivers/built-in.o
                0x0000000023e210dc                HAL_SPINAND_ReadID
 .text.HAL_SPINAND_SetCKG
                0x0000000023e211dc      0x208 drivers/built-in.o
                0x0000000023e211dc                HAL_SPINAND_SetCKG
 .text.HAL_SPINAND_DumpCkg
                0x0000000023e213e4      0x1d8 drivers/built-in.o
                0x0000000023e21528                HAL_SPINAND_DumpCkg
 .text.HAL_SPINAND_CSCONFIG
                0x0000000023e215bc        0x4 drivers/built-in.o
                0x0000000023e215bc                HAL_SPINAND_CSCONFIG
 .text.HAL_SPINAND_Read_RandomIn
                0x0000000023e215c0       0x90 drivers/built-in.o
                0x0000000023e215c0                HAL_SPINAND_Read_RandomIn
 .text.HAL_SPINAND_ReadStatusRegister
                0x0000000023e21650       0xb4 drivers/built-in.o
                0x0000000023e21650                HAL_SPINAND_ReadStatusRegister
 .text.HAL_SPINAND_WriteStatusRegister
                0x0000000023e21704       0xac drivers/built-in.o
                0x0000000023e21704                HAL_SPINAND_WriteStatusRegister
 .text.HAL_SPINAND_EnableOtp
                0x0000000023e217b0       0x9c drivers/built-in.o
                0x0000000023e217b0                HAL_SPINAND_EnableOtp
 .text.HAL_SPINAND_LockOtp
                0x0000000023e2184c       0x94 drivers/built-in.o
                0x0000000023e2184c                HAL_SPINAND_LockOtp
 .text.HAL_SPINAND_WriteProtect
                0x0000000023e218e0       0x18 drivers/built-in.o
                0x0000000023e218e0                HAL_SPINAND_WriteProtect
 .text.HAL_SPINAND_PROGRAM_BY_BDMA
                0x0000000023e218f8      0x188 drivers/built-in.o
                0x0000000023e218f8                HAL_SPINAND_PROGRAM_BY_BDMA
 .text.HAL_SPINAND_PROGRAM_LOAD_DATA
                0x0000000023e21a80      0x1a8 drivers/built-in.o
                0x0000000023e21a80                HAL_SPINAND_PROGRAM_LOAD_DATA
 .text.HAL_SPINAND_Write
                0x0000000023e21c28      0x18c drivers/built-in.o
                0x0000000023e21c28                HAL_SPINAND_Write
 .text.HAL_SPINAND_BLOCKERASE
                0x0000000023e21db4      0x120 drivers/built-in.o
                0x0000000023e21db4                HAL_SPINAND_BLOCKERASE
 .text.HAL_SPINAND_WB_BBM
                0x0000000023e21ed4       0xd8 drivers/built-in.o
                0x0000000023e21ed4                HAL_SPINAND_WB_BBM
 .text.HAL_SPINAND_WB_DumpBBM
                0x0000000023e21fac       0xc0 drivers/built-in.o
                0x0000000023e21fac                HAL_SPINAND_WB_DumpBBM
 .text.HAL_SPINAND_DieSelect
                0x0000000023e2206c       0xa4 drivers/built-in.o
                0x0000000023e2206c                HAL_SPINAND_DieSelect
 .text.PalSpinand_SetDriving
                0x0000000023e22110      0x178 drivers/built-in.o
                0x0000000023e22128                PalSpinand_SetDriving
 .text.HAL_SPINAND_Init
                0x0000000023e22288       0x54 drivers/built-in.o
                0x0000000023e22288                HAL_SPINAND_Init
 .text._MDrv_SPINAND_GET_INFO
                0x0000000023e222dc      0x158 drivers/built-in.o
 .text.MDrv_SPINAND_Init
                0x0000000023e22434      0x138 drivers/built-in.o
                0x0000000023e22434                MDrv_SPINAND_Init
 .text.MDrv_SPINAND_Read
                0x0000000023e2256c      0x110 drivers/built-in.o
                0x0000000023e2256c                MDrv_SPINAND_Read
 .text.MDrv_SPINAND_Read_RandomIn
                0x0000000023e2267c        0x4 drivers/built-in.o
                0x0000000023e2267c                MDrv_SPINAND_Read_RandomIn
 .text.MDrv_SPINAND_ReadStatusRegister
                0x0000000023e22680        0xc drivers/built-in.o
                0x0000000023e22680                MDrv_SPINAND_ReadStatusRegister
 .text.MDrv_SPINAND_WriteStatusRegister
                0x0000000023e2268c       0x10 drivers/built-in.o
                0x0000000023e2268c                MDrv_SPINAND_WriteStatusRegister
 .text.MDrv_SPINAND_Write
                0x0000000023e2269c       0x70 drivers/built-in.o
                0x0000000023e2269c                MDrv_SPINAND_Write
 .text.MDrv_SPINAND_BLOCK_ERASE
                0x0000000023e2270c       0x60 drivers/built-in.o
                0x0000000023e2270c                MDrv_SPINAND_BLOCK_ERASE
 .text.MDrv_SPINAND_EnableOtp
                0x0000000023e2276c        0x4 drivers/built-in.o
                0x0000000023e2276c                MDrv_SPINAND_EnableOtp
 .text.MDrv_SPINAND_LockOtp
                0x0000000023e22770        0x4 drivers/built-in.o
                0x0000000023e22770                MDrv_SPINAND_LockOtp
 .text.MDrv_SPINAND_WB_BBM
                0x0000000023e22774       0x30 drivers/built-in.o
                0x0000000023e22774                MDrv_SPINAND_WB_BBM
 .text.MDrv_SPINAND_WB_DumpBBM
                0x0000000023e227a4        0x4 drivers/built-in.o
                0x0000000023e227a4                MDrv_SPINAND_WB_DumpBBM
 .text.MDrv_SPINAND_SetDevDriving
                0x0000000023e227a8       0x38 drivers/built-in.o
                0x0000000023e227a8                MDrv_SPINAND_SetDevDriving
 .text._MDrv_SPINAND_GetMtdPartsFromPNI
                0x0000000023e227e0      0x490 drivers/built-in.o
 .text.MDrv_SPINAND_WriteCIS_for_ROM
                0x0000000023e22c70      0x144 drivers/built-in.o
                0x0000000023e22c70                MDrv_SPINAND_WriteCIS_for_ROM
 .text.MDrv_SPINAND_SearchCIS_in_DRAM
                0x0000000023e22db4      0x1a8 drivers/built-in.o
                0x0000000023e22db4                MDrv_SPINAND_SearchCIS_in_DRAM
 .text.MDrv_SPINAND_GetMtdParts
                0x0000000023e22f5c      0x24c drivers/built-in.o
                0x0000000023e22f5c                MDrv_SPINAND_GetMtdParts
 .text.MDrv_SPINAND_SearchPartition
                0x0000000023e231a8       0x48 drivers/built-in.o
                0x0000000023e231a8                MDrv_SPINAND_SearchPartition
 .text.MDrv_SPINAND_GetPartOffset
                0x0000000023e231f0       0xe8 drivers/built-in.o
                0x0000000023e231f0                MDrv_SPINAND_GetPartOffset
 .text.MDrv_SPINAND_ReadCISBlk
                0x0000000023e232d8       0x7c drivers/built-in.o
                0x0000000023e232d8                MDrv_SPINAND_ReadCISBlk
 .text.GD_SPINAND_SetDriving
                0x0000000023e23354      0x100 drivers/built-in.o
                0x0000000023e23354                GD_SPINAND_SetDriving
 .text.spi_nand_read_byte
                0x0000000023e23454       0x38 drivers/built-in.o
                0x0000000023e23454                spi_nand_read_byte
 .text.spi_nand_read_word
                0x0000000023e2348c       0x2c drivers/built-in.o
                0x0000000023e2348c                spi_nand_read_word
 .text.spi_nand_write_buf
                0x0000000023e234b8        0x4 drivers/built-in.o
                0x0000000023e234b8                spi_nand_write_buf
 .text.spi_nand_select_chip
                0x0000000023e234bc        0x4 drivers/built-in.o
                0x0000000023e234bc                spi_nand_select_chip
 .text.spi_nand_cmd_ctrl
                0x0000000023e234c0        0x4 drivers/built-in.o
                0x0000000023e234c0                spi_nand_cmd_ctrl
 .text.spi_nand_dev_ready
                0x0000000023e234c4        0x8 drivers/built-in.o
                0x0000000023e234c4                spi_nand_dev_ready
 .text.spi_nand_waitfunc
                0x0000000023e234cc       0x10 drivers/built-in.o
                0x0000000023e234cc                spi_nand_waitfunc
 .text.spi_nand_ecc_calculate
                0x0000000023e234dc        0x8 drivers/built-in.o
                0x0000000023e234dc                spi_nand_ecc_calculate
 .text.spi_nand_ecc_correct
                0x0000000023e234e4        0x8 drivers/built-in.o
                0x0000000023e234e4                spi_nand_ecc_correct
 .text.spi_nand_ecc_write_page_raw
                0x0000000023e234ec        0x8 drivers/built-in.o
                0x0000000023e234ec                spi_nand_ecc_write_page_raw
 .text.spi_nand_ecc_read_page_raw
                0x0000000023e234f4       0x5c drivers/built-in.o
                0x0000000023e234f4                spi_nand_ecc_read_page_raw
 .text.spi_nand_ecc_read_page
                0x0000000023e23550       0x68 drivers/built-in.o
                0x0000000023e23550                spi_nand_ecc_read_page
 .text.spi_nand_cmdfunc
                0x0000000023e235b8      0x148 drivers/built-in.o
                0x0000000023e235b8                spi_nand_cmdfunc
 .text.spi_nand_write_page
                0x0000000023e23700       0x50 drivers/built-in.o
                0x0000000023e23700                spi_nand_write_page
 .text.spi_nand_ecc_write_oob
                0x0000000023e23750       0x60 drivers/built-in.o
                0x0000000023e23750                spi_nand_ecc_write_oob
 .text.spi_nand_ecc_read_subpage
                0x0000000023e237b0       0xac drivers/built-in.o
                0x0000000023e237b0                spi_nand_ecc_read_subpage
 .text.spi_nand_ecc_read_oob
                0x0000000023e2385c       0x44 drivers/built-in.o
                0x0000000023e2385c                spi_nand_ecc_read_oob
 .text.spi_nand_ecc_write_page
                0x0000000023e238a0        0x8 drivers/built-in.o
                0x0000000023e238a0                spi_nand_ecc_write_page
 .text.spi_nand_read_buf
                0x0000000023e238a8        0x4 drivers/built-in.o
                0x0000000023e238a8                spi_nand_read_buf
 .text.spi_nand_ecc_hwctl
                0x0000000023e238ac        0x4 drivers/built-in.o
                0x0000000023e238ac                spi_nand_ecc_hwctl
 .text.drvSPINAND_get_DrvContext_address
                0x0000000023e238b0        0xc drivers/built-in.o
                0x0000000023e238b0                drvSPINAND_get_DrvContext_address
 .text.MDrv_SPINAND_CountBits
                0x0000000023e238bc       0x28 drivers/built-in.o
                0x0000000023e238bc                MDrv_SPINAND_CountBits
 .text.setNandInformation
                0x0000000023e238e4       0x90 drivers/built-in.o
                0x0000000023e238e4                setNandInformation
 .text.board_nand_init
                0x0000000023e23974      0x2b4 drivers/built-in.o
                0x0000000023e23974                board_nand_init
 .text.MsOS_USB_PA2KSEG1
                0x0000000023e23c28        0x4 drivers/built-in.o
                0x0000000023e23c28                MsOS_USB_PA2KSEG1
 .text.MsOS_USB_VA2PA
                0x0000000023e23c2c        0x4 drivers/built-in.o
                0x0000000023e23c2c                MsOS_USB_VA2PA
 .text.mwHost20Port
                0x0000000023e23c30       0x18 drivers/built-in.o
                0x0000000023e23c30                mwHost20Port
 .text.mwHost20Port_wr
                0x0000000023e23c48       0x18 drivers/built-in.o
                0x0000000023e23c48                mwHost20Port_wr
 .text.mwHost20Portw
                0x0000000023e23c60       0x18 drivers/built-in.o
                0x0000000023e23c60                mwHost20Portw
 .text.mwHost20Bit_Set
                0x0000000023e23c78       0x20 drivers/built-in.o
                0x0000000023e23c78                mwHost20Bit_Set
 .text.mwHost20Bit_Clr
                0x0000000023e23c98       0x20 drivers/built-in.o
                0x0000000023e23c98                mwHost20Bit_Clr
 .text.flib_Host20_Periodic_Setting
                0x0000000023e23cb8       0xdc drivers/built-in.o
                0x0000000023e23cb8                flib_Host20_Periodic_Setting
 .text.flib_Host20_Fix_DataLength_ByteAlign
                0x0000000023e23d94       0x10 drivers/built-in.o
                0x0000000023e23d94                flib_Host20_Fix_DataLength_ByteAlign
 .text.flib_Host20_StopRun_Setting
                0x0000000023e23da4       0xe8 drivers/built-in.o
                0x0000000023e23da4                flib_Host20_StopRun_Setting
 .text.flib_Host20_Reset_HC
                0x0000000023e23e8c       0x50 drivers/built-in.o
                0x0000000023e23e8c                flib_Host20_Reset_HC
 .text.flib_Host20_Asynchronous_Setting
                0x0000000023e23edc       0xdc drivers/built-in.o
                0x0000000023e23edc                flib_Host20_Asynchronous_Setting
 .text.flib_Host20_Bulk_Init
                0x0000000023e23fb8      0x254 drivers/built-in.o
                0x0000000023e23fb8                flib_Host20_Bulk_Init
 .text.flib_Host20_PortBusReset
                0x0000000023e2420c      0x140 drivers/built-in.o
                0x0000000023e2420c                flib_Host20_PortBusReset
 .text.Dump_QTD
                0x0000000023e2434c       0x78 drivers/built-in.o
                0x0000000023e2434c                Dump_QTD
 .text.flib_Host20_GetStructure
                0x0000000023e243c4       0xa0 drivers/built-in.o
                0x0000000023e243c4                flib_Host20_GetStructure
 .text.flib_Host20_ReleaseStructure
                0x0000000023e24464       0x60 drivers/built-in.o
                0x0000000023e24464                flib_Host20_ReleaseStructure
 .text.flib_Host20_QHD_Control_Init
                0x0000000023e244c4       0xb4 drivers/built-in.o
                0x0000000023e244c4                flib_Host20_QHD_Control_Init
 .text.flib_Host20_Allocate_QHD
                0x0000000023e24578       0x98 drivers/built-in.o
                0x0000000023e24578                flib_Host20_Allocate_QHD
 .text.flib_Host20_InitStructure
                0x0000000023e24610      0x1fc drivers/built-in.o
                0x0000000023e24610                flib_Host20_InitStructure
 .text.flib_Host20_Init
                0x0000000023e2480c      0x18c drivers/built-in.o
                0x0000000023e2480c                flib_Host20_Init
 .text.flib_Host20_CheckingForResult_QHD
                0x0000000023e24998      0x1a0 drivers/built-in.o
                0x0000000023e24998                flib_Host20_CheckingForResult_QHD
 .text.flib_Host20_Send_qTD_Intr
                0x0000000023e24b38       0xf0 drivers/built-in.o
                0x0000000023e24b38                flib_Host20_Send_qTD_Intr
 .text.flib_Host20_Issue_Interrupt_NonBlock
                0x0000000023e24c28      0x140 drivers/built-in.o
                0x0000000023e24c28                flib_Host20_Issue_Interrupt_NonBlock
 .text.flib_Host20_Send_qTD
                0x0000000023e24d68      0x2e0 drivers/built-in.o
                0x0000000023e24d68                flib_Host20_Send_qTD
 .text.flib_Host20_Issue_Control
                0x0000000023e25048      0x18c drivers/built-in.o
                0x0000000023e25048                flib_Host20_Issue_Control
 .text.flib_Host20_Issue_Bulk
                0x0000000023e251d4      0x17c drivers/built-in.o
                0x0000000023e251d4                flib_Host20_Issue_Bulk
 .text.flib_Host20_Send_Receive_Bulk_Data
                0x0000000023e25350       0x60 drivers/built-in.o
                0x0000000023e25350                flib_Host20_Send_Receive_Bulk_Data
 .text.xhci_enable_clock
                0x0000000023e253b0        0x4 drivers/built-in.o
                0x0000000023e253b0                xhci_enable_clock
 .text.xhci_ssport_set_state
                0x0000000023e253b4       0x94 drivers/built-in.o
                0x0000000023e253b4                xhci_ssport_set_state
 .text.VA2PA    0x0000000023e25448       0x34 drivers/built-in.o
                0x0000000023e25448                VA2PA
 .text.PA2VA    0x0000000023e2547c       0x2c drivers/built-in.o
                0x0000000023e2547c                PA2VA
 .text.xhci_ppc
                0x0000000023e254a8       0xb8 drivers/built-in.o
                0x0000000023e254a8                xhci_ppc
 .text.MIU_select_setting_ehc
                0x0000000023e25560       0x6c drivers/built-in.o
                0x0000000023e25560                MIU_select_setting_ehc
 .text.TV_usb_init
                0x0000000023e255cc      0x414 drivers/built-in.o
                0x0000000023e255cc                TV_usb_init
 .text.Usb_host_Init
                0x0000000023e259e0       0x68 drivers/built-in.o
                0x0000000023e259e0                Usb_host_Init
 .text._usb_lowlevel_init
                0x0000000023e25a48      0x184 drivers/built-in.o
                0x0000000023e25a48                _usb_lowlevel_init
 .text.usb_lowlevel_init
                0x0000000023e25bcc        0x8 drivers/built-in.o
                0x0000000023e25bcc                usb_lowlevel_init
 .text.usb_lowlevel_postinit
                0x0000000023e25bd4        0x8 drivers/built-in.o
                0x0000000023e25bd4                usb_lowlevel_postinit
 .text.usb_lowlevel_stop
                0x0000000023e25bdc       0xa0 drivers/built-in.o
                0x0000000023e25bdc                usb_lowlevel_stop
 .text.Usb_host_SetEverInited
                0x0000000023e25c7c       0x28 drivers/built-in.o
                0x0000000023e25c7c                Usb_host_SetEverInited
 .text.USB_Bulk_InitEx
                0x0000000023e25ca4       0x54 drivers/built-in.o
                0x0000000023e25ca4                USB_Bulk_InitEx
 .text.submit_bulk_msg
                0x0000000023e25cf8       0xa4 drivers/built-in.o
                0x0000000023e25cf8                submit_bulk_msg
 .text.submit_control_msg
                0x0000000023e25d9c       0x70 drivers/built-in.o
                0x0000000023e25d9c                submit_control_msg
 .text.submit_int_msg
                0x0000000023e25e0c       0xe0 drivers/built-in.o
                0x0000000023e25e0c                submit_int_msg
 .text.USB_Power_On
                0x0000000023e25eec        0x4 drivers/built-in.o
                0x0000000023e25eec                USB_Power_On
 .text.MHal_EMAC_Ewavetest_100M
                0x0000000023e25ef0       0x78 drivers/built-in.o
                0x0000000023e25ef0                MHal_EMAC_Ewavetest_100M
 .text.MHal_EMAC_Ewavetest_10M_LTP
                0x0000000023e25f68       0x78 drivers/built-in.o
                0x0000000023e25f68                MHal_EMAC_Ewavetest_10M_LTP
 .text.MHal_EMAC_Ewavetest_10M_ALLONE
                0x0000000023e25fe0       0xb8 drivers/built-in.o
                0x0000000023e25fe0                MHal_EMAC_Ewavetest_10M_ALLONE
 .text.MHal_EMAC_Ewavetest_10M_TPIDLE
                0x0000000023e26098       0xbc drivers/built-in.o
                0x0000000023e26098                MHal_EMAC_Ewavetest_10M_TPIDLE
 .text.MHal_EMAC_WritRam32
                0x0000000023e26154        0x8 drivers/built-in.o
                0x0000000023e26154                MHal_EMAC_WritRam32
 .text.MHal_EMAC_ReadReg32
                0x0000000023e2615c       0x44 drivers/built-in.o
                0x0000000023e2615c                MHal_EMAC_ReadReg32
 .text.MHal_EMAC_WritReg32
                0x0000000023e261a0       0x20 drivers/built-in.o
                0x0000000023e261a0                MHal_EMAC_WritReg32
 .text.MHal_EMAC_Write_SA1_MAC_Address
                0x0000000023e261c0       0x40 drivers/built-in.o
                0x0000000023e261c0                MHal_EMAC_Write_SA1_MAC_Address
 .text.MHal_EMAC_Write_SA2_MAC_Address
                0x0000000023e26200       0x40 drivers/built-in.o
                0x0000000023e26200                MHal_EMAC_Write_SA2_MAC_Address
 .text.MHal_EMAC_Write_SA3_MAC_Address
                0x0000000023e26240       0x40 drivers/built-in.o
                0x0000000023e26240                MHal_EMAC_Write_SA3_MAC_Address
 .text.MHal_EMAC_Write_SA4_MAC_Address
                0x0000000023e26280       0x40 drivers/built-in.o
                0x0000000023e26280                MHal_EMAC_Write_SA4_MAC_Address
 .text.MHal_EMAC_Read_CTL
                0x0000000023e262c0       0x1c drivers/built-in.o
                0x0000000023e262c0                MHal_EMAC_Read_CTL
 .text.MHal_EMAC_Write_CTL
                0x0000000023e262dc       0x1c drivers/built-in.o
                0x0000000023e262dc                MHal_EMAC_Write_CTL
 .text.MHal_EMAC_Write_CFG
                0x0000000023e262f8       0x1c drivers/built-in.o
                0x0000000023e262f8                MHal_EMAC_Write_CFG
 .text.MHal_EMAC_Write_RBQP
                0x0000000023e26314       0x1c drivers/built-in.o
                0x0000000023e26314                MHal_EMAC_Write_RBQP
 .text.MHal_EMAC_Write_TAR
                0x0000000023e26330       0x1c drivers/built-in.o
                0x0000000023e26330                MHal_EMAC_Write_TAR
 .text.MHal_EMAC_Write_TCR
                0x0000000023e2634c       0x1c drivers/built-in.o
                0x0000000023e2634c                MHal_EMAC_Write_TCR
 .text.MHal_EMAC_Read_TSR
                0x0000000023e26368       0x1c drivers/built-in.o
                0x0000000023e26368                MHal_EMAC_Read_TSR
 .text.MHal_EMAC_Write_IDR
                0x0000000023e26384       0x1c drivers/built-in.o
                0x0000000023e26384                MHal_EMAC_Write_IDR
 .text.MHal_EMAC_Read_MAN
                0x0000000023e263a0       0x1c drivers/built-in.o
                0x0000000023e263a0                MHal_EMAC_Read_MAN
 .text.MHal_EMAC_Write_MAN
                0x0000000023e263bc       0x30 drivers/built-in.o
                0x0000000023e263bc                MHal_EMAC_Write_MAN
 .text.MHal_EMAC_Write_BUFF
                0x0000000023e263ec       0x1c drivers/built-in.o
                0x0000000023e263ec                MHal_EMAC_Write_BUFF
 .text.MHal_EMAC_Read_BUFF
                0x0000000023e26408       0x1c drivers/built-in.o
                0x0000000023e26408                MHal_EMAC_Read_BUFF
 .text.MHal_EMAC_Read_RDPTR
                0x0000000023e26424       0x1c drivers/built-in.o
                0x0000000023e26424                MHal_EMAC_Read_RDPTR
 .text.MHal_EMAC_Write_RDPTR
                0x0000000023e26440       0x1c drivers/built-in.o
                0x0000000023e26440                MHal_EMAC_Write_RDPTR
 .text.MHal_EMAC_Write_WRPTR
                0x0000000023e2645c       0x1c drivers/built-in.o
                0x0000000023e2645c                MHal_EMAC_Write_WRPTR
 .text.MHal_EMAC_Write_JULIAN_0100
                0x0000000023e26478       0x1c drivers/built-in.o
                0x0000000023e26478                MHal_EMAC_Write_JULIAN_0100
 .text.MHal_EMAC_Write_JULIAN_0104
                0x0000000023e26494       0x1c drivers/built-in.o
                0x0000000023e26494                MHal_EMAC_Write_JULIAN_0104
 .text.MHal_EMAC_enable_mdi
                0x0000000023e264b0       0x20 drivers/built-in.o
                0x0000000023e264b0                MHal_EMAC_enable_mdi
 .text.MHal_EMAC_write_phy
                0x0000000023e264d0       0x74 drivers/built-in.o
                0x0000000023e264d0                MHal_EMAC_write_phy
 .text.MHal_EMAC_read_phy
                0x0000000023e26544       0x7c drivers/built-in.o
                0x0000000023e26544                MHal_EMAC_read_phy
 .text.MHal_EMAC_enable_phyirq
                0x0000000023e265c0        0x4 drivers/built-in.o
                0x0000000023e265c0                MHal_EMAC_enable_phyirq
 .text.MHal_EMAC_disable_phyirq
                0x0000000023e265c4        0x4 drivers/built-in.o
                0x0000000023e265c4                MHal_EMAC_disable_phyirq
 .text.MHal_EMAC_CableConnection
                0x0000000023e265c8      0x130 drivers/built-in.o
                0x0000000023e265c8                MHal_EMAC_CableConnection
 .text.MHal_EMAC_CheckTSR
                0x0000000023e266f8       0x34 drivers/built-in.o
                0x0000000023e266f8                MHal_EMAC_CheckTSR
 .text.MHal_EMAC_NegotiationPHY
                0x0000000023e2672c       0x64 drivers/built-in.o
                0x0000000023e2672c                MHal_EMAC_NegotiationPHY
 .text.MHal_EMAC_Set_Tx_JULIAN_T
                0x0000000023e26790       0x24 drivers/built-in.o
                0x0000000023e26790                MHal_EMAC_Set_Tx_JULIAN_T
 .text.MHal_EMAC_Set_Rx_FIFO_Enlarge
                0x0000000023e267b4       0x24 drivers/built-in.o
                0x0000000023e267b4                MHal_EMAC_Set_Rx_FIFO_Enlarge
 .text.MHal_EMAC_Set_Miu_Priority
                0x0000000023e267d8       0x24 drivers/built-in.o
                0x0000000023e267d8                MHal_EMAC_Set_Miu_Priority
 .text.MHal_EMAC_Set_Tx_Hang_Fix_ECO
                0x0000000023e267fc       0x24 drivers/built-in.o
                0x0000000023e267fc                MHal_EMAC_Set_Tx_Hang_Fix_ECO
 .text.MHal_EMAC_Set_MIU_Out_Of_Range_Fix
                0x0000000023e26820       0x24 drivers/built-in.o
                0x0000000023e26820                MHal_EMAC_Set_MIU_Out_Of_Range_Fix
 .text.MHal_EMAC_Set_Rx_Tx_Burst16_Mode
                0x0000000023e26844       0x24 drivers/built-in.o
                0x0000000023e26844                MHal_EMAC_Set_Rx_Tx_Burst16_Mode
 .text.MHal_EMAC_ClkGen
                0x0000000023e26868      0x1b4 drivers/built-in.o
                0x0000000023e26868                MHal_EMAC_ClkGen
 .text.MHal_EMAC_eWave_Table_Init
                0x0000000023e26a1c       0x3c drivers/built-in.o
                0x0000000023e26a1c                MHal_EMAC_eWave_Table_Init
 .text.MHal_EMAC_Power_On_Clk
                0x0000000023e26a58       0x10 drivers/built-in.o
                0x0000000023e26a58                MHal_EMAC_Power_On_Clk
 .text.MHal_EMAC1_Write_SA1_MAC_Address
                0x0000000023e26a68       0x40 drivers/built-in.o
                0x0000000023e26a68                MHal_EMAC1_Write_SA1_MAC_Address
 .text.MHal_EMAC_HW_init
                0x0000000023e26aa8       0xe0 drivers/built-in.o
                0x0000000023e26aa8                MHal_EMAC_HW_init
 .text.MHal_EMAC_PHY_reset
                0x0000000023e26b88       0x18 drivers/built-in.o
                0x0000000023e26b88                MHal_EMAC_PHY_reset
 .text.MDrv_EMAC_close
                0x0000000023e26ba0       0x20 drivers/built-in.o
                0x0000000023e26ba0                MDrv_EMAC_close
 .text.MDrv_EMAC_open
                0x0000000023e26bc0       0xf0 drivers/built-in.o
 .text.MDrv_EMAC_PhyAddrScan
                0x0000000023e26cb0       0xc8 drivers/built-in.o
                0x0000000023e26cb0                MDrv_EMAC_PhyAddrScan
 .text.MDrv_EMAC_VarInit
                0x0000000023e26d78      0x1a4 drivers/built-in.o
                0x0000000023e26d78                MDrv_EMAC_VarInit
 .text.MDrv_EMAC_DumpMem
                0x0000000023e26f1c       0x90 drivers/built-in.o
                0x0000000023e26f1c                MDrv_EMAC_DumpMem
 .text.MDrv_EMAC_tx
                0x0000000023e26fac       0x98 drivers/built-in.o
 .text.MDrv_EMAC_rx
                0x0000000023e27044      0x1d8 drivers/built-in.o
 .text.MDrv_EMAC_PatchPHY
                0x0000000023e2721c       0x68 drivers/built-in.o
                0x0000000023e2721c                MDrv_EMAC_PatchPHY
 .text.MDrv_EMAC_initialize
                0x0000000023e27284      0x2ec drivers/built-in.o
                0x0000000023e27284                MDrv_EMAC_initialize
 .text.MDrv_EMAC_SwReset
                0x0000000023e27570       0x14 drivers/built-in.o
                0x0000000023e27570                MDrv_EMAC_SwReset
 .text.board_eth_init
                0x0000000023e27584       0x28 drivers/built-in.o
                0x0000000023e27584                board_eth_init
 .text.do_emac  0x0000000023e275ac       0x20 drivers/built-in.o
                0x0000000023e275ac                do_emac
 .text.do_setMac
                0x0000000023e275cc      0x1f0 drivers/built-in.o
                0x0000000023e275cc                do_setMac
 .text.MHal_GPIO_Pad_Set
                0x0000000023e277bc       0x50 drivers/built-in.o
                0x0000000023e277bc                MHal_GPIO_Pad_Set
 .text.MHal_GPIO_PadGroupMode_Set
                0x0000000023e2780c        0x4 drivers/built-in.o
                0x0000000023e2780c                MHal_GPIO_PadGroupMode_Set
 .text.MHal_GPIO_Pad_Oen
                0x0000000023e27810       0x68 drivers/built-in.o
                0x0000000023e27810                MHal_GPIO_Pad_Oen
 .text.MHal_GPIO_Pad_Level
                0x0000000023e27878       0x74 drivers/built-in.o
                0x0000000023e27878                MHal_GPIO_Pad_Level
 .text.MHal_GPIO_Set_High
                0x0000000023e278ec       0x94 drivers/built-in.o
                0x0000000023e278ec                MHal_GPIO_Set_High
 .text.MHal_GPIO_Set_Low
                0x0000000023e27980       0x94 drivers/built-in.o
                0x0000000023e27980                MHal_GPIO_Set_Low
 .text.MHal_GPIO_Set_Input
                0x0000000023e27a14       0x68 drivers/built-in.o
                0x0000000023e27a14                MHal_GPIO_Set_Input
 .text.MHal_GPIO_Get_InOut
                0x0000000023e27a7c       0x78 drivers/built-in.o
                0x0000000023e27a7c                MHal_GPIO_Get_InOut
 .text._HalPadDisablePadMux
                0x0000000023e27af4       0x30 drivers/built-in.o
 .text.HalPadSetMode_General
                0x0000000023e27b24       0xa0 drivers/built-in.o
 .text.HalPadSetVal
                0x0000000023e27bc4      0x344 drivers/built-in.o
                0x0000000023e27bc4                HalPadSetVal
 .text.HalPadSetMode
                0x0000000023e27f08       0x58 drivers/built-in.o
                0x0000000023e27f08                HalPadSetMode
 .text.MDrv_GPIO_Pad_Set
                0x0000000023e27f60        0x4 drivers/built-in.o
                0x0000000023e27f60                MDrv_GPIO_Pad_Set
 .text.mdrv_gpio_set_high
                0x0000000023e27f64        0x4 drivers/built-in.o
                0x0000000023e27f64                mdrv_gpio_set_high
 .text.mdrv_gpio_set_low
                0x0000000023e27f68        0x4 drivers/built-in.o
                0x0000000023e27f68                mdrv_gpio_set_low
 .text.mdrv_gpio_set_input
                0x0000000023e27f6c        0x4 drivers/built-in.o
                0x0000000023e27f6c                mdrv_gpio_set_input
 .text.mdrv_gpio_get_inout
                0x0000000023e27f70        0x4 drivers/built-in.o
                0x0000000023e27f70                mdrv_gpio_get_inout
 .text.mdrv_gpio_get_level
                0x0000000023e27f74        0x4 drivers/built-in.o
                0x0000000023e27f74                mdrv_gpio_get_level
 .text.chk_magic_seq
                0x0000000023e27f78       0x6c drivers/built-in.o
 .text.fill_init_record
                0x0000000023e27fe4       0x60 drivers/built-in.o
 .text.mxp_check_table_magic
                0x0000000023e28044       0x50 drivers/built-in.o
                0x0000000023e28044                mxp_check_table_magic
 .text.mxp_init
                0x0000000023e28094       0xf8 drivers/built-in.o
                0x0000000023e28094                mxp_init
 .text.mxp_init_table
                0x0000000023e2818c       0x94 drivers/built-in.o
                0x0000000023e2818c                mxp_init_table
 .text.mxp_get_total_record_count
                0x0000000023e28220       0x10 drivers/built-in.o
                0x0000000023e28220                mxp_get_total_record_count
 .text.mxp_save_table
                0x0000000023e28230       0x38 drivers/built-in.o
                0x0000000023e28230                mxp_save_table
 .text.mxp_save_table_from_mem
                0x0000000023e28268       0xf8 drivers/built-in.o
                0x0000000023e28268                mxp_save_table_from_mem
 .text.mxp_get_record_by_index
                0x0000000023e28360       0x58 drivers/built-in.o
                0x0000000023e28360                mxp_get_record_by_index
 .text.mxp_delete_record_by_index
                0x0000000023e283b8       0x78 drivers/built-in.o
                0x0000000023e283b8                mxp_delete_record_by_index
 .text.mxp_get_record_index
                0x0000000023e28430       0x5c drivers/built-in.o
                0x0000000023e28430                mxp_get_record_index
 .text.mxp_set_record
                0x0000000023e2848c      0x10c drivers/built-in.o
                0x0000000023e2848c                mxp_set_record
 .text.mxp_load_table
                0x0000000023e28598      0x124 drivers/built-in.o
                0x0000000023e28598                mxp_load_table
 .text.nor_flash_mxp_get_storage_info
                0x0000000023e286bc       0x2c drivers/built-in.o
 .text.nor_flash_mxp_write_bytes
                0x0000000023e286e8       0x78 drivers/built-in.o
 .text.nor_flash_mxp_update_byte
                0x0000000023e28760       0xd0 drivers/built-in.o
 .text.nor_flash_mxp_read_bytes
                0x0000000023e28830       0x4c drivers/built-in.o
 .text.mxp_init_nor_flash
                0x0000000023e2887c       0xf4 drivers/built-in.o
                0x0000000023e2887c                mxp_init_nor_flash
 .text.Select_SR_IOPad
                0x0000000023e28970       0x18 drivers/built-in.o
                0x0000000023e28970                Select_SR_IOPad
 .text.Set_SR_MCLK
                0x0000000023e28988       0xa4 drivers/built-in.o
                0x0000000023e28988                Set_SR_MCLK
 .text.ISP_SrPwdn
                0x0000000023e28a2c       0x38 drivers/built-in.o
                0x0000000023e28a2c                ISP_SrPwdn
 .text.ISP_SrRst
                0x0000000023e28a64       0x38 drivers/built-in.o
                0x0000000023e28a64                ISP_SrRst
 .text.HAL_HWI2C_ExtraDelay
                0x0000000023e28a9c       0x44 drivers/built-in.o
                0x0000000023e28a9c                HAL_HWI2C_ExtraDelay
 .text.HAL_HWI2C_ReadChipByte
                0x0000000023e28ae0       0x38 drivers/built-in.o
                0x0000000023e28ae0                HAL_HWI2C_ReadChipByte
 .text.HAL_HWI2C_WriteChipByte
                0x0000000023e28b18       0x48 drivers/built-in.o
                0x0000000023e28b18                HAL_HWI2C_WriteChipByte
 .text.HAL_HWI2C_WriteChipByteMask
                0x0000000023e28b60       0x30 drivers/built-in.o
                0x0000000023e28b60                HAL_HWI2C_WriteChipByteMask
 .text.HAL_HWI2C_WriteClk2Byte
                0x0000000023e28b90       0x30 drivers/built-in.o
                0x0000000023e28b90                HAL_HWI2C_WriteClk2Byte
 .text._I2CTurnOn
                0x0000000023e28bc0        0xc drivers/built-in.o
                0x0000000023e28bc0                _I2CTurnOn
 .text.HAL_HWI2C_SetPortRegOffset
                0x0000000023e28bcc       0x2c drivers/built-in.o
                0x0000000023e28bcc                HAL_HWI2C_SetPortRegOffset
 .text._Hal_HWI2C_GetPortRegOffset
                0x0000000023e28bf8       0x2c drivers/built-in.o
                0x0000000023e28bf8                _Hal_HWI2C_GetPortRegOffset
 .text.HAL_HWI2C_GetPortIdxByOffset
                0x0000000023e28c24       0x48 drivers/built-in.o
                0x0000000023e28c24                HAL_HWI2C_GetPortIdxByOffset
 .text.HAL_HWI2C_ReadByte
                0x0000000023e28c6c       0x44 drivers/built-in.o
                0x0000000023e28c6c                HAL_HWI2C_ReadByte
 .text.HAL_HWI2C_WriteByte
                0x0000000023e28cb0       0x60 drivers/built-in.o
                0x0000000023e28cb0                HAL_HWI2C_WriteByte
 .text.HAL_HWI2C_WriteRegBit
                0x0000000023e28d10       0x34 drivers/built-in.o
                0x0000000023e28d10                HAL_HWI2C_WriteRegBit
 .text.HAL_HWI2C_DMA_MiuReset
                0x0000000023e28d44       0x10 drivers/built-in.o
 .text.HAL_HWI2C_DMA_Reset
                0x0000000023e28d54       0x10 drivers/built-in.o
 .text.HAL_HWI2C_DMA_TxfrDone
                0x0000000023e28d64       0x10 drivers/built-in.o
 .text.HAL_HWI2C_DMA_SetTxfrCmd.part.4
                0x0000000023e28d74       0x60 drivers/built-in.o
 .text.HAL_HWI2C_Write2Byte
                0x0000000023e28dd4       0x40 drivers/built-in.o
                0x0000000023e28dd4                HAL_HWI2C_Write2Byte
 .text.HAL_HWI2C_Write4Byte
                0x0000000023e28e14       0x28 drivers/built-in.o
                0x0000000023e28e14                HAL_HWI2C_Write4Byte
 .text.HAL_HWI2C_DMA_SetSlaveAddr
                0x0000000023e28e3c       0x24 drivers/built-in.o
 .text.HAL_HWI2C_GetPortIdxByPort
                0x0000000023e28e60       0x54 drivers/built-in.o
                0x0000000023e28e60                HAL_HWI2C_GetPortIdxByPort
 .text.HAL_HWI2C_SelectPort
                0x0000000023e28eb4      0x170 drivers/built-in.o
                0x0000000023e28eb4                HAL_HWI2C_SelectPort
 .text.HAL_HWI2C_SetClk
                0x0000000023e29024       0x7c drivers/built-in.o
                0x0000000023e29024                HAL_HWI2C_SetClk
 .text._Hal_HWI2C_SetClk
                0x0000000023e290a0       0x84 drivers/built-in.o
                0x0000000023e290a0                _Hal_HWI2C_SetClk
 .text.ms_i2c_set_bus_speed
                0x0000000023e29124       0x78 drivers/built-in.o
 .text.HAL_HWI2C_ReadRdy
                0x0000000023e2919c       0x4c drivers/built-in.o
                0x0000000023e2919c                HAL_HWI2C_ReadRdy
 .text.HAL_HWI2C_SendData
                0x0000000023e291e8        0x8 drivers/built-in.o
                0x0000000023e291e8                HAL_HWI2C_SendData
 .text.HAL_HWI2C_RecvData
                0x0000000023e291f0        0x8 drivers/built-in.o
                0x0000000023e291f0                HAL_HWI2C_RecvData
 .text.HAL_HWI2C_Get_SendAck
                0x0000000023e291f8       0x18 drivers/built-in.o
                0x0000000023e291f8                HAL_HWI2C_Get_SendAck
 .text.HAL_HWI2C_DMA_WaitDone
                0x0000000023e29210       0xf0 drivers/built-in.o
 .text.HAL_HWI2C_NoAck
                0x0000000023e29300       0x2c drivers/built-in.o
                0x0000000023e29300                HAL_HWI2C_NoAck
 .text.HAL_HWI2C_GetState
                0x0000000023e2932c       0x64 drivers/built-in.o
                0x0000000023e2932c                HAL_HWI2C_GetState
 .text.HAL_HWI2C_Is_Idle
                0x0000000023e29390       0x14 drivers/built-in.o
                0x0000000023e29390                HAL_HWI2C_Is_Idle
 .text.HAL_HWI2C_Is_INT
                0x0000000023e293a4       0x14 drivers/built-in.o
                0x0000000023e293a4                HAL_HWI2C_Is_INT
 .text.HAL_HWI2C_Clear_INT
                0x0000000023e293b8       0x10 drivers/built-in.o
                0x0000000023e293b8                HAL_HWI2C_Clear_INT
 .text.HAL_HWI2C_Start
                0x0000000023e293c8       0x54 drivers/built-in.o
                0x0000000023e293c8                HAL_HWI2C_Start
 .text.HAL_HWI2C_Stop
                0x0000000023e2941c       0x64 drivers/built-in.o
                0x0000000023e2941c                HAL_HWI2C_Stop
 .text.HAL_HWI2C_Reset
                0x0000000023e29480        0xc drivers/built-in.o
                0x0000000023e29480                HAL_HWI2C_Reset
 .text.HAL_HWI2C_Master_Enable
                0x0000000023e2948c       0xb4 drivers/built-in.o
                0x0000000023e2948c                HAL_HWI2C_Master_Enable
 .text._Hal_HWI2C_SelectPort
                0x0000000023e29540       0x58 drivers/built-in.o
                0x0000000023e29540                _Hal_HWI2C_SelectPort
 .text.HAL_HWI2C_Send_Byte
                0x0000000023e29598       0xd8 drivers/built-in.o
                0x0000000023e29598                HAL_HWI2C_Send_Byte
 .text.ms_i2c_probe
                0x0000000023e29670       0xc0 drivers/built-in.o
 .text.HAL_HWI2C_Recv_Byte
                0x0000000023e29730       0x78 drivers/built-in.o
                0x0000000023e29730                HAL_HWI2C_Recv_Byte
 .text.HAL_HWI2C_DMA_Enable
                0x0000000023e297a8       0x3c drivers/built-in.o
                0x0000000023e297a8                HAL_HWI2C_DMA_Enable
 .text.HAL_HWI2C_DMA_Init
                0x0000000023e297e4      0x1c0 drivers/built-in.o
                0x0000000023e297e4                HAL_HWI2C_DMA_Init
 .text._Hal_HWI2C_InitPort
                0x0000000023e299a4      0x19c drivers/built-in.o
                0x0000000023e299a4                _Hal_HWI2C_InitPort
 .text.Hal_HWI2C_Init
                0x0000000023e29b40       0x58 drivers/built-in.o
                0x0000000023e29b40                Hal_HWI2C_Init
 .text.Hal_HW_IIC_Init.part.11
                0x0000000023e29b98      0x104 drivers/built-in.o
 .text.HalI2cInitStandard
                0x0000000023e29c9c       0x60 drivers/built-in.o
                0x0000000023e29c9c                HalI2cInitStandard
 .text.ms_i2c_init
                0x0000000023e29cfc       0x28 drivers/built-in.o
 .text.HAL_HWI2C_DMA_WriteBytes
                0x0000000023e29d24       0xfc drivers/built-in.o
                0x0000000023e29d24                HAL_HWI2C_DMA_WriteBytes
 .text.HAL_HWI2C_DMA_ReadBytes
                0x0000000023e29e20      0x1a0 drivers/built-in.o
                0x0000000023e29e20                HAL_HWI2C_DMA_ReadBytes
 .text.HAL_HWI2C_XferWrite
                0x0000000023e29fc0      0x2c8 drivers/built-in.o
                0x0000000023e29fc0                HAL_HWI2C_XferWrite
 .text.HAL_HWI2C_XferRead
                0x0000000023e2a288      0x27c drivers/built-in.o
                0x0000000023e2a288                HAL_HWI2C_XferRead
 .text.ms_i2c_read
                0x0000000023e2a504       0x10 drivers/built-in.o
 .text.ms_i2c_write
                0x0000000023e2a514       0x10 drivers/built-in.o
 .text.hw_watchdog_disable
                0x0000000023e2a524        0x4 drivers/built-in.o
                0x0000000023e2a524                hw_watchdog_disable
 .text.hw_watchdog_reset
                0x0000000023e2a528        0x4 drivers/built-in.o
                0x0000000023e2a528                hw_watchdog_reset
 .text.hw_watchdog_init
                0x0000000023e2a52c        0x4 drivers/built-in.o
                0x0000000023e2a52c                hw_watchdog_init
 .text.DrvDispOsMemAlloc
                0x0000000023e2a530        0x4 drivers/built-in.o
                0x0000000023e2a530                DrvDispOsMemAlloc
 .text.DrvDispOsMemRelease
                0x0000000023e2a534        0x4 drivers/built-in.o
                0x0000000023e2a534                DrvDispOsMemRelease
 .text.DrvDispOsImiHeapAlloc
                0x0000000023e2a538        0x8 drivers/built-in.o
                0x0000000023e2a538                DrvDispOsImiHeapAlloc
 .text.DrvDispOsSetClkOn
                0x0000000023e2a540        0x8 drivers/built-in.o
                0x0000000023e2a540                DrvDispOsSetClkOn
 .text.__DrvDispCtxBindInputPortWidthVidLayer
                0x0000000023e2a548       0xc8 drivers/built-in.o
                0x0000000023e2a548                __DrvDispCtxBindInputPortWidthVidLayer
 .text._DrvDispCtxInitDeviceContain
                0x0000000023e2a610       0x50 drivers/built-in.o
                0x0000000023e2a610                _DrvDispCtxInitDeviceContain
 .text._DrvDispCtxDeInitDeviceContain
                0x0000000023e2a660       0x28 drivers/built-in.o
                0x0000000023e2a660                _DrvDispCtxDeInitDeviceContain
 .text._DrvDispCtxInitVidLayerContain
                0x0000000023e2a688       0x64 drivers/built-in.o
                0x0000000023e2a688                _DrvDispCtxInitVidLayerContain
 .text._DrvDispCtxDeInitVidLayerContain
                0x0000000023e2a6ec       0x44 drivers/built-in.o
                0x0000000023e2a6ec                _DrvDispCtxDeInitVidLayerContain
 .text._DrvDispCtxInitInputPortContain
                0x0000000023e2a730       0x60 drivers/built-in.o
                0x0000000023e2a730                _DrvDispCtxInitInputPortContain
 .text._DrvDispCtxDeInitInputPortContain
                0x0000000023e2a790       0x3c drivers/built-in.o
                0x0000000023e2a790                _DrvDispCtxDeInitInputPortContain
 .text._DrvDispCtxInitHalContain
                0x0000000023e2a7cc       0x48 drivers/built-in.o
                0x0000000023e2a7cc                _DrvDispCtxInitHalContain
 .text._DrvDispCtxDeInitHalContain
                0x0000000023e2a814       0x28 drivers/built-in.o
                0x0000000023e2a814                _DrvDispCtxDeInitHalContain
 .text._DrvDispCtxAllocDevContain
                0x0000000023e2a83c      0x10c drivers/built-in.o
                0x0000000023e2a83c                _DrvDispCtxAllocDevContain
 .text._DrvDispCtxAllocVidLayerContain
                0x0000000023e2a948      0x120 drivers/built-in.o
                0x0000000023e2a948                _DrvDispCtxAllocVidLayerContain
 .text._DrvDispCtxAllocInputPortContain
                0x0000000023e2aa68      0x168 drivers/built-in.o
                0x0000000023e2aa68                _DrvDispCtxAllocInputPortContain
 .text.DrvDispCtxInit
                0x0000000023e2abd0      0x100 drivers/built-in.o
                0x0000000023e2abd0                DrvDispCtxInit
 .text.DrvDispCtxAllocate
                0x0000000023e2acd0       0x54 drivers/built-in.o
                0x0000000023e2acd0                DrvDispCtxAllocate
 .text.DrvDispCtxSetCurCtx
                0x0000000023e2ad24       0xac drivers/built-in.o
                0x0000000023e2ad24                DrvDispCtxSetCurCtx
 .text.DrvDispIrqCreateInternalIsr
                0x0000000023e2add0        0x8 drivers/built-in.o
                0x0000000023e2add0                DrvDispIrqCreateInternalIsr
 .text.__DrvDispIfTransDevTimingTypeToHal
                0x0000000023e2add8      0x118 drivers/built-in.o
                0x0000000023e2add8                __DrvDispIfTransDevTimingTypeToHal
 .text.__DrvDispIfTransCompressToHal
                0x0000000023e2aef0       0x28 drivers/built-in.o
                0x0000000023e2aef0                __DrvDispIfTransCompressToHal
 .text.__DrvDispIfTransTileModeToHal
                0x0000000023e2af18       0x28 drivers/built-in.o
                0x0000000023e2af18                __DrvDispIfTransTileModeToHal
 .text.__DrvDispIfTransPixelFormatToHal
                0x0000000023e2af40       0x68 drivers/built-in.o
                0x0000000023e2af40                __DrvDispIfTransPixelFormatToHal
 .text.__DrvDispIfGetTimingFromTbl
                0x0000000023e2afa8       0x50 drivers/built-in.o
                0x0000000023e2afa8                __DrvDispIfGetTimingFromTbl
 .text._DrvDispIfTransDeviceOutpuTimingInfoToHal
                0x0000000023e2aff8      0x2e4 drivers/built-in.o
                0x0000000023e2aff8                _DrvDispIfTransDeviceOutpuTimingInfoToHal
 .text._DrvDispIfTransInputPortFrameDataToHal
                0x0000000023e2b2dc      0x208 drivers/built-in.o
                0x0000000023e2b2dc                _DrvDispIfTransInputPortFrameDataToHal
 .text._DrvDispIfTransInputPortAttrToHal
                0x0000000023e2b4e4       0x78 drivers/built-in.o
                0x0000000023e2b4e4                _DrvDispIfTransInputPortAttrToHal
 .text._DrvDispIfExecuteQuery
                0x0000000023e2b55c      0x2e4 drivers/built-in.o
                0x0000000023e2b55c                _DrvDispIfExecuteQuery
 .text.DrvDispIfSetClk
                0x0000000023e2b840       0xbc drivers/built-in.o
                0x0000000023e2b840                DrvDispIfSetClk
 .text.DrvDispIfInitPanelConfig
                0x0000000023e2b8fc      0x160 drivers/built-in.o
                0x0000000023e2b8fc                DrvDispIfInitPanelConfig
 .text.DrvDispIfDeviceCreateInstance
                0x0000000023e2ba5c      0x140 drivers/built-in.o
                0x0000000023e2ba5c                DrvDispIfDeviceCreateInstance
 .text.DrvDispIfDeviceEnable
                0x0000000023e2bb9c       0x58 drivers/built-in.o
                0x0000000023e2bb9c                DrvDispIfDeviceEnable
 .text.DrvDispIfDeviceSetBackGroundColor
                0x0000000023e2bbf4       0x58 drivers/built-in.o
                0x0000000023e2bbf4                DrvDispIfDeviceSetBackGroundColor
 .text.DrvDispIfDeviceAddOutInterface
                0x0000000023e2bc4c       0x5c drivers/built-in.o
                0x0000000023e2bc4c                DrvDispIfDeviceAddOutInterface
 .text.DrvDispIfDeviceSetOutputTiming
                0x0000000023e2bca8       0x74 drivers/built-in.o
                0x0000000023e2bca8                DrvDispIfDeviceSetOutputTiming
 .text.DrvDispIfVideoLayerCreateInstance
                0x0000000023e2bd1c       0xac drivers/built-in.o
                0x0000000023e2bd1c                DrvDispIfVideoLayerCreateInstance
 .text.DrvDispIfInputPortCreateInstance
                0x0000000023e2bdc8       0xb0 drivers/built-in.o
                0x0000000023e2bdc8                DrvDispIfInputPortCreateInstance
 .text.DrvDispIfInputPortFlip
                0x0000000023e2be78       0x54 drivers/built-in.o
                0x0000000023e2be78                DrvDispIfInputPortFlip
 .text.DrvDispIfInputPortEnable
                0x0000000023e2becc       0x4c drivers/built-in.o
                0x0000000023e2becc                DrvDispIfInputPortEnable
 .text.DrvDispIfInputPortSetAttr
                0x0000000023e2bf18       0x54 drivers/built-in.o
                0x0000000023e2bf18                DrvDispIfInputPortSetAttr
 .text.DrvDispIfSetDbgLevel
                0x0000000023e2bf6c       0x18 drivers/built-in.o
                0x0000000023e2bf6c                DrvDispIfSetDbgLevel
 .text.MHAL_DISP_InitPanelConfig
                0x0000000023e2bf84       0x58 drivers/built-in.o
                0x0000000023e2bf84                MHAL_DISP_InitPanelConfig
 .text.MHAL_DISP_DeviceCreateInstance
                0x0000000023e2bfdc       0x54 drivers/built-in.o
                0x0000000023e2bfdc                MHAL_DISP_DeviceCreateInstance
 .text.MHAL_DISP_DeviceEnable
                0x0000000023e2c030       0x5c drivers/built-in.o
                0x0000000023e2c030                MHAL_DISP_DeviceEnable
 .text.MHAL_DISP_DeviceSetBackGroundColor
                0x0000000023e2c08c       0x54 drivers/built-in.o
                0x0000000023e2c08c                MHAL_DISP_DeviceSetBackGroundColor
 .text.MHAL_DISP_DeviceAddOutInterface
                0x0000000023e2c0e0       0x54 drivers/built-in.o
                0x0000000023e2c0e0                MHAL_DISP_DeviceAddOutInterface
 .text.MHAL_DISP_DeviceSetOutputTiming
                0x0000000023e2c134       0x58 drivers/built-in.o
                0x0000000023e2c134                MHAL_DISP_DeviceSetOutputTiming
 .text.MHAL_DISP_VideoLayerCreateInstance
                0x0000000023e2c18c       0x54 drivers/built-in.o
                0x0000000023e2c18c                MHAL_DISP_VideoLayerCreateInstance
 .text.MHAL_DISP_InputPortCreateInstance
                0x0000000023e2c1e0       0x58 drivers/built-in.o
                0x0000000023e2c1e0                MHAL_DISP_InputPortCreateInstance
 .text.MHAL_DISP_InputPortFlip
                0x0000000023e2c238       0x58 drivers/built-in.o
                0x0000000023e2c238                MHAL_DISP_InputPortFlip
 .text.MHAL_DISP_InputPortEnable
                0x0000000023e2c290       0x5c drivers/built-in.o
                0x0000000023e2c290                MHAL_DISP_InputPortEnable
 .text.MHAL_DISP_InputPortSetAttr
                0x0000000023e2c2ec       0x58 drivers/built-in.o
                0x0000000023e2c2ec                MHAL_DISP_InputPortSetAttr
 .text.MHAL_DISP_DbgLevel
                0x0000000023e2c344       0x54 drivers/built-in.o
                0x0000000023e2c344                MHAL_DISP_DbgLevel
 .text._HalDispIfGetInfoDeviceInit
                0x0000000023e2c398       0x44 drivers/built-in.o
                0x0000000023e2c398                _HalDispIfGetInfoDeviceInit
 .text._HalDispIfGetInfoDeviceAttach
                0x0000000023e2c3dc        0x8 drivers/built-in.o
                0x0000000023e2c3dc                _HalDispIfGetInfoDeviceAttach
 .text._HalDispIfSetDeviceAttach
                0x0000000023e2c3e4        0x4 drivers/built-in.o
                0x0000000023e2c3e4                _HalDispIfSetDeviceAttach
 .text._HalDispIfGetInfoDevicDisplayInfo
                0x0000000023e2c3e8       0x4c drivers/built-in.o
                0x0000000023e2c3e8                _HalDispIfGetInfoDevicDisplayInfo
 .text._HalDispIfGetInfoVidLayerInit
                0x0000000023e2c434        0x8 drivers/built-in.o
                0x0000000023e2c434                _HalDispIfGetInfoVidLayerInit
 .text._HalDispIfGetInfoVidLayerEnable
                0x0000000023e2c43c        0x8 drivers/built-in.o
                0x0000000023e2c43c                _HalDispIfGetInfoVidLayerEnable
 .text._HalDispIfGetInfoDeviceEnable
                0x0000000023e2c444       0x58 drivers/built-in.o
                0x0000000023e2c444                _HalDispIfGetInfoDeviceEnable
 .text._HalDispIfGetInfoDeviceBackGroundColor
                0x0000000023e2c49c       0x58 drivers/built-in.o
                0x0000000023e2c49c                _HalDispIfGetInfoDeviceBackGroundColor
 .text._HalDispIfGetInfoDeviceInterface
                0x0000000023e2c4f4       0xb8 drivers/built-in.o
                0x0000000023e2c4f4                _HalDispIfGetInfoDeviceInterface
 .text._HalDispIfGetInfoInputPortInit
                0x0000000023e2c5ac       0x44 drivers/built-in.o
                0x0000000023e2c5ac                _HalDispIfGetInfoInputPortInit
 .text._HalDispIfGetInfoInputPortEnable
                0x0000000023e2c5f0       0xac drivers/built-in.o
                0x0000000023e2c5f0                _HalDispIfGetInfoInputPortEnable
 .text._HalDispIfGetInfoClkSet
                0x0000000023e2c69c       0x40 drivers/built-in.o
                0x0000000023e2c69c                _HalDispIfGetInfoClkSet
 .text._HalDispIfSetDeviceBackGroundColor
                0x0000000023e2c6dc       0x14 drivers/built-in.o
                0x0000000023e2c6dc                _HalDispIfSetDeviceBackGroundColor
 .text._HalDispIfSetDeviceEnable
                0x0000000023e2c6f0        0xc drivers/built-in.o
                0x0000000023e2c6f0                _HalDispIfSetDeviceEnable
 .text._HalDispIfSetDeviceInit
                0x0000000023e2c6fc       0xac drivers/built-in.o
                0x0000000023e2c6fc                _HalDispIfSetDeviceInit
 .text._HalDispIfGetInfoDeviceOutputTiming
                0x0000000023e2c7a8       0xc4 drivers/built-in.o
                0x0000000023e2c7a8                _HalDispIfGetInfoDeviceOutputTiming
 .text._HalDispIfGetInfoDeviceLcdParam
                0x0000000023e2c86c      0x168 drivers/built-in.o
                0x0000000023e2c86c                _HalDispIfGetInfoDeviceLcdParam
 .text._HalDispIfGetInfoDeviceColorTemp
                0x0000000023e2c9d4       0x28 drivers/built-in.o
                0x0000000023e2c9d4                _HalDispIfGetInfoDeviceColorTemp
 .text._HalDispIfGetInfoInputPortAttr
                0x0000000023e2c9fc       0xdc drivers/built-in.o
                0x0000000023e2c9fc                _HalDispIfGetInfoInputPortAttr
 .text._HalDispIfGetInfoInputPortFlip
                0x0000000023e2cad8      0x24c drivers/built-in.o
                0x0000000023e2cad8                _HalDispIfGetInfoInputPortFlip
 .text._HalDispIfGetInfoInputPortCrop
                0x0000000023e2cd24      0x11c drivers/built-in.o
                0x0000000023e2cd24                _HalDispIfGetInfoInputPortCrop
 .text._HalDispIfGetInfoDeviceGammaParam
                0x0000000023e2ce40      0x13c drivers/built-in.o
                0x0000000023e2ce40                _HalDispIfGetInfoDeviceGammaParam
 .text._HalDispIfSetDeviceGammaParam
                0x0000000023e2cf7c       0x5c drivers/built-in.o
                0x0000000023e2cf7c                _HalDispIfSetDeviceGammaParam
 .text._HalDispIfSetDeviceColorTemp
                0x0000000023e2cfd8       0x14 drivers/built-in.o
                0x0000000023e2cfd8                _HalDispIfSetDeviceColorTemp
 .text._HalDispIfGetInfoDevicTimeZone
                0x0000000023e2cfec       0x80 drivers/built-in.o
                0x0000000023e2cfec                _HalDispIfGetInfoDevicTimeZone
 .text._HalDispIfSetInputPortInit
                0x0000000023e2d06c      0x2c8 drivers/built-in.o
                0x0000000023e2d06c                _HalDispIfSetInputPortInit
 .text._HalDispIfGetInfoInputPortRotate
                0x0000000023e2d334      0x22c drivers/built-in.o
                0x0000000023e2d334                _HalDispIfGetInfoInputPortRotate
 .text._HalDispIfSetInputPortRotate
                0x0000000023e2d560      0x440 drivers/built-in.o
                0x0000000023e2d560                _HalDispIfSetInputPortRotate
 .text._HalDispIfSetInputPortCrop
                0x0000000023e2d9a0      0x2a0 drivers/built-in.o
                0x0000000023e2d9a0                _HalDispIfSetInputPortCrop
 .text._HalDispIfGetInfoClkGet
                0x0000000023e2dc40       0x70 drivers/built-in.o
                0x0000000023e2dc40                _HalDispIfGetInfoClkGet
 .text._HalDispIfSetClkSet
                0x0000000023e2dcb0       0x90 drivers/built-in.o
                0x0000000023e2dcb0                _HalDispIfSetClkSet
 .text._HalDispIfGetInfoVidLayerAttr
                0x0000000023e2dd40        0x8 drivers/built-in.o
                0x0000000023e2dd40                _HalDispIfGetInfoVidLayerAttr
 .text._HalDispIfSetDeviceOutputTiming
                0x0000000023e2dd48        0x4 drivers/built-in.o
                0x0000000023e2dd48                _HalDispIfSetDeviceOutputTiming
 .text._HalDispIfGetInfoInputPortBegin
                0x0000000023e2dd4c        0x8 drivers/built-in.o
                0x0000000023e2dd4c                _HalDispIfGetInfoInputPortBegin
 .text._HalDispIfGetInfoInputPortEnd
                0x0000000023e2dd54        0x8 drivers/built-in.o
                0x0000000023e2dd54                _HalDispIfGetInfoInputPortEnd
 .text._HalDispIfGetInfoDeviceDetach
                0x0000000023e2dd5c        0x8 drivers/built-in.o
                0x0000000023e2dd5c                _HalDispIfGetInfoDeviceDetach
 .text._HalDispIfGetInfoDeviceVgaParam
                0x0000000023e2dd64        0x8 drivers/built-in.o
                0x0000000023e2dd64                _HalDispIfGetInfoDeviceVgaParam
 .text._HalDispIfGetInfoDeviceHdmiParam
                0x0000000023e2dd6c        0x8 drivers/built-in.o
                0x0000000023e2dd6c                _HalDispIfGetInfoDeviceHdmiParam
 .text._HalDispIfGetInfoDeviceCvbsParam
                0x0000000023e2dd74        0x8 drivers/built-in.o
                0x0000000023e2dd74                _HalDispIfGetInfoDeviceCvbsParam
 .text._HalDispIfGetInfoVidLayerBind
                0x0000000023e2dd7c        0x8 drivers/built-in.o
                0x0000000023e2dd7c                _HalDispIfGetInfoVidLayerBind
 .text._HalDispIfGetInfoVidLayerUnBind
                0x0000000023e2dd84        0x8 drivers/built-in.o
                0x0000000023e2dd84                _HalDispIfGetInfoVidLayerUnBind
 .text._HalDispIfGetInfoVidLayerCompress
                0x0000000023e2dd8c        0x8 drivers/built-in.o
                0x0000000023e2dd8c                _HalDispIfGetInfoVidLayerCompress
 .text._HalDispIfGetInfoVidLayerPriority
                0x0000000023e2dd94        0x8 drivers/built-in.o
                0x0000000023e2dd94                _HalDispIfGetInfoVidLayerPriority
 .text._HalDispIfGetInfoVidLayerBufferFire
                0x0000000023e2dd9c        0x8 drivers/built-in.o
                0x0000000023e2dd9c                _HalDispIfGetInfoVidLayerBufferFire
 .text._HalDispIfGetInfoVidLayerCheckFire
                0x0000000023e2dda4        0x8 drivers/built-in.o
                0x0000000023e2dda4                _HalDispIfGetInfoVidLayerCheckFire
 .text._HalDispIfGetInfoInputPortShow
                0x0000000023e2ddac        0x8 drivers/built-in.o
                0x0000000023e2ddac                _HalDispIfGetInfoInputPortShow
 .text._HalDispIfGetInfoInputPortHide
                0x0000000023e2ddb4        0x8 drivers/built-in.o
                0x0000000023e2ddb4                _HalDispIfGetInfoInputPortHide
 .text._HalDispIfSetInputPortHide
                0x0000000023e2ddbc        0x4 drivers/built-in.o
                0x0000000023e2ddbc                _HalDispIfSetInputPortHide
 .text._HalDispIfSetInputPortBegin
                0x0000000023e2ddc0        0x4 drivers/built-in.o
                0x0000000023e2ddc0                _HalDispIfSetInputPortBegin
 .text._HalDispIfSetVidLayerAttr
                0x0000000023e2ddc4        0x4 drivers/built-in.o
                0x0000000023e2ddc4                _HalDispIfSetVidLayerAttr
 .text._HalDispIfSetVidLayerComporess
                0x0000000023e2ddc8        0x4 drivers/built-in.o
                0x0000000023e2ddc8                _HalDispIfSetVidLayerComporess
 .text._HalDispIfSetVidLayerBind
                0x0000000023e2ddcc        0x4 drivers/built-in.o
                0x0000000023e2ddcc                _HalDispIfSetVidLayerBind
 .text._HalDispIfSetVidLayerUnBind
                0x0000000023e2ddd0        0x4 drivers/built-in.o
                0x0000000023e2ddd0                _HalDispIfSetVidLayerUnBind
 .text._HalDispIfSetVidLayerCheckFire
                0x0000000023e2ddd4        0x4 drivers/built-in.o
                0x0000000023e2ddd4                _HalDispIfSetVidLayerCheckFire
 .text._HalDispIfSetInputPortShow
                0x0000000023e2ddd8        0x4 drivers/built-in.o
                0x0000000023e2ddd8                _HalDispIfSetInputPortShow
 .text._HalDispIfSetVidLayerPriority
                0x0000000023e2dddc        0x4 drivers/built-in.o
                0x0000000023e2dddc                _HalDispIfSetVidLayerPriority
 .text._HalDispIfSetVidLayerBufferFire
                0x0000000023e2dde0        0x4 drivers/built-in.o
                0x0000000023e2dde0                _HalDispIfSetVidLayerBufferFire
 .text._HalDispIfSetInputPortEnd
                0x0000000023e2dde4        0x4 drivers/built-in.o
                0x0000000023e2dde4                _HalDispIfSetInputPortEnd
 .text._HalDispIfSetClkGet
                0x0000000023e2dde8        0x4 drivers/built-in.o
                0x0000000023e2dde8                _HalDispIfSetClkGet
 .text._HalDispIfSetDeviceTimeZone
                0x0000000023e2ddec        0x4 drivers/built-in.o
                0x0000000023e2ddec                _HalDispIfSetDeviceTimeZone
 .text._HalDispIfSetDeviceDisplayInfo
                0x0000000023e2ddf0        0x4 drivers/built-in.o
                0x0000000023e2ddf0                _HalDispIfSetDeviceDisplayInfo
 .text._HalDispIfSetVidLayerInit
                0x0000000023e2ddf4        0x4 drivers/built-in.o
                0x0000000023e2ddf4                _HalDispIfSetVidLayerInit
 .text._HalDispIfSetVidLayerEnable
                0x0000000023e2ddf8        0x4 drivers/built-in.o
                0x0000000023e2ddf8                _HalDispIfSetVidLayerEnable
 .text._HalDispIfSetDeviceVgaParam
                0x0000000023e2ddfc        0x4 drivers/built-in.o
                0x0000000023e2ddfc                _HalDispIfSetDeviceVgaParam
 .text._HalDispIfSetDeviceCvbsParam
                0x0000000023e2de00        0x4 drivers/built-in.o
                0x0000000023e2de00                _HalDispIfSetDeviceCvbsParam
 .text._HalDispIfSetDeviceHdmiParam
                0x0000000023e2de04        0x4 drivers/built-in.o
                0x0000000023e2de04                _HalDispIfSetDeviceHdmiParam
 .text._HalDispIfSetDeviceDetach
                0x0000000023e2de08        0x4 drivers/built-in.o
                0x0000000023e2de08                _HalDispIfSetDeviceDetach
 .text._HalDispIfSetDeviceInterface
                0x0000000023e2de0c        0x4 drivers/built-in.o
                0x0000000023e2de0c                _HalDispIfSetDeviceInterface
 .text.__HalDispIfGetNonLinearCurve
                0x0000000023e2de10       0x50 drivers/built-in.o
                0x0000000023e2de10                __HalDispIfGetNonLinearCurve
 .text.__HalDispIfCalculateNonLinear
                0x0000000023e2de60       0xb4 drivers/built-in.o
                0x0000000023e2de60                __HalDispIfCalculateNonLinear
 .text.__HalDispIfPictureTransNonLinear
                0x0000000023e2df14      0x2e0 drivers/built-in.o
                0x0000000023e2df14                __HalDispIfPictureTransNonLinear
 .text.__HalDispIfSetCscConfig
                0x0000000023e2e1f4       0x6c drivers/built-in.o
                0x0000000023e2e1f4                __HalDispIfSetCscConfig
 .text._HalDispIfSetDeviceLcdParam
                0x0000000023e2e260       0x9c drivers/built-in.o
                0x0000000023e2e260                _HalDispIfSetDeviceLcdParam
 .text._HalDispIfSetAllMopgLineBufVal
                0x0000000023e2e2fc       0xec drivers/built-in.o
                0x0000000023e2e2fc                _HalDispIfSetAllMopgLineBufVal
 .text._HalDispIfSetMopgWinIsUsedForLbstart
                0x0000000023e2e3e8       0x78 drivers/built-in.o
                0x0000000023e2e3e8                _HalDispIfSetMopgWinIsUsedForLbstart
 .text._HalDispIfSetInputPortEnable
                0x0000000023e2e460       0x84 drivers/built-in.o
                0x0000000023e2e460                _HalDispIfSetInputPortEnable
 .text._HalDispIfSetMopgLineBufOrder
                0x0000000023e2e4e4      0x1f4 drivers/built-in.o
                0x0000000023e2e4e4                _HalDispIfSetMopgLineBufOrder
 .text._HalDispIfSetInputPortAttr
                0x0000000023e2e6d8      0x168 drivers/built-in.o
                0x0000000023e2e6d8                _HalDispIfSetInputPortAttr
 .text._HalDispIfSetMopRotImiAddrManage
                0x0000000023e2e840       0xa4 drivers/built-in.o
                0x0000000023e2e840                _HalDispIfSetMopRotImiAddrManage
 .text._HalDispIfSetInputPortFlip
                0x0000000023e2e8e4      0x3ac drivers/built-in.o
                0x0000000023e2e8e4                _HalDispIfSetInputPortFlip
 .text._HalDispIfGetCallBack
                0x0000000023e2ec90      0x488 drivers/built-in.o
                0x0000000023e2ec90                _HalDispIfGetCallBack
 .text.HalDispIfInit
                0x0000000023e2f118      0x4a4 drivers/built-in.o
                0x0000000023e2f118                HalDispIfInit
 .text.HalDispIfQuery
                0x0000000023e2f5bc       0x50 drivers/built-in.o
                0x0000000023e2f5bc                HalDispIfQuery
 .text.HalDispIrqIoCtl
                0x0000000023e2f60c      0x5ac drivers/built-in.o
                0x0000000023e2f60c                HalDispIrqIoCtl
 .text.HalDispSetMaceSrc
                0x0000000023e2fbb8       0x20 drivers/built-in.o
                0x0000000023e2fbb8                HalDispSetMaceSrc
 .text.HalDispSetClkDisp432
                0x0000000023e2fbd8       0x3c drivers/built-in.o
                0x0000000023e2fbd8                HalDispSetClkDisp432
 .text.HalDispSetClkDisp216
                0x0000000023e2fc14       0x44 drivers/built-in.o
                0x0000000023e2fc14                HalDispSetClkDisp216
 .text.HalDispSetFrameColor
                0x0000000023e2fc58       0x38 drivers/built-in.o
                0x0000000023e2fc58                HalDispSetFrameColor
 .text.HalDispSetDispWinColor
                0x0000000023e2fc90       0x38 drivers/built-in.o
                0x0000000023e2fc90                HalDispSetDispWinColor
 .text.HalDispSetDispWinColorForce
                0x0000000023e2fcc8       0x30 drivers/built-in.o
                0x0000000023e2fcc8                HalDispSetDispWinColorForce
 .text._HalDispPqPeakingSetPeakEn
                0x0000000023e2fcf8       0x30 drivers/built-in.o
                0x0000000023e2fcf8                _HalDispPqPeakingSetPeakEn
 .text._HalDispPqPeakingSetLtiEn
                0x0000000023e2fd28       0x30 drivers/built-in.o
                0x0000000023e2fd28                _HalDispPqPeakingSetLtiEn
 .text._HalDispPqPeakingSetLtiMedianFilterOn
                0x0000000023e2fd58       0x30 drivers/built-in.o
                0x0000000023e2fd58                _HalDispPqPeakingSetLtiMedianFilterOn
 .text._HalDispPqPeakingSetCtiEn
                0x0000000023e2fd88       0x30 drivers/built-in.o
                0x0000000023e2fd88                _HalDispPqPeakingSetCtiEn
 .text._HalDispPqPeakingSetCtiMedianFilterOn
                0x0000000023e2fdb8       0x30 drivers/built-in.o
                0x0000000023e2fdb8                _HalDispPqPeakingSetCtiMedianFilterOn
 .text._HalDispPqPeakingSetDiffAdapEn
                0x0000000023e2fde8       0x30 drivers/built-in.o
                0x0000000023e2fde8                _HalDispPqPeakingSetDiffAdapEn
 .text._HalDispPqPeakingSetBand1Coef
                0x0000000023e2fe18       0x24 drivers/built-in.o
                0x0000000023e2fe18                _HalDispPqPeakingSetBand1Coef
 .text._HalDispPqPeakingSetBand1Step
                0x0000000023e2fe3c       0x28 drivers/built-in.o
                0x0000000023e2fe3c                _HalDispPqPeakingSetBand1Step
 .text._HalDispPqPeakingSetBand2Coef
                0x0000000023e2fe64       0x28 drivers/built-in.o
                0x0000000023e2fe64                _HalDispPqPeakingSetBand2Coef
 .text._HalDispPqPeakingSetBand2Step
                0x0000000023e2fe8c       0x20 drivers/built-in.o
                0x0000000023e2fe8c                _HalDispPqPeakingSetBand2Step
 .text._HalDispPqPeakingSetLtiCoef
                0x0000000023e2feac       0x24 drivers/built-in.o
                0x0000000023e2feac                _HalDispPqPeakingSetLtiCoef
 .text._HalDispPqPeakingSetLtiStep
                0x0000000023e2fed0       0x28 drivers/built-in.o
                0x0000000023e2fed0                _HalDispPqPeakingSetLtiStep
 .text._HalDispPqPeakingSetPeakTerm1Sel
                0x0000000023e2fef8       0x28 drivers/built-in.o
                0x0000000023e2fef8                _HalDispPqPeakingSetPeakTerm1Sel
 .text._HalDispPqPeakingSetPeakTerm2Sel
                0x0000000023e2ff20       0x28 drivers/built-in.o
                0x0000000023e2ff20                _HalDispPqPeakingSetPeakTerm2Sel
 .text._HalDispPqPeakingSetPeakTerm3Sel
                0x0000000023e2ff48       0x28 drivers/built-in.o
                0x0000000023e2ff48                _HalDispPqPeakingSetPeakTerm3Sel
 .text._HalDispPqPeakingSetPeakTerm4Sel
                0x0000000023e2ff70       0x20 drivers/built-in.o
                0x0000000023e2ff70                _HalDispPqPeakingSetPeakTerm4Sel
 .text._HalDispPqPeakingSetCoringTh1
                0x0000000023e2ff90       0x24 drivers/built-in.o
                0x0000000023e2ff90                _HalDispPqPeakingSetCoringTh1
 .text._HalDispPqPeakingSetCoringTh2
                0x0000000023e2ffb4       0x28 drivers/built-in.o
                0x0000000023e2ffb4                _HalDispPqPeakingSetCoringTh2
 .text._HalDispPqPeakingSetCtiCoef
                0x0000000023e2ffdc       0x28 drivers/built-in.o
                0x0000000023e2ffdc                _HalDispPqPeakingSetCtiCoef
 .text._HalDispPqPeakingSetCtiStep
                0x0000000023e30004       0x28 drivers/built-in.o
                0x0000000023e30004                _HalDispPqPeakingSetCtiStep
 .text._HalDispPqPeakingSetBand1PosLimitTh
                0x0000000023e3002c       0x20 drivers/built-in.o
                0x0000000023e3002c                _HalDispPqPeakingSetBand1PosLimitTh
 .text._HalDispPqPeakingSetBand1NegLimitTh
                0x0000000023e3004c       0x20 drivers/built-in.o
                0x0000000023e3004c                _HalDispPqPeakingSetBand1NegLimitTh
 .text._HalDispPqPeakingSetBand2PosLimitTh
                0x0000000023e3006c       0x20 drivers/built-in.o
                0x0000000023e3006c                _HalDispPqPeakingSetBand2PosLimitTh
 .text._HalDispPqPeakingSetBand2NegLimitTh
                0x0000000023e3008c       0x20 drivers/built-in.o
                0x0000000023e3008c                _HalDispPqPeakingSetBand2NegLimitTh
 .text._HalDispPqPeakingSetPosLimitTh
                0x0000000023e300ac       0x20 drivers/built-in.o
                0x0000000023e300ac                _HalDispPqPeakingSetPosLimitTh
 .text._HalDispPqPeakingSetNegLimitTh
                0x0000000023e300cc       0x20 drivers/built-in.o
                0x0000000023e300cc                _HalDispPqPeakingSetNegLimitTh
 .text._HalDispPqPeakingSetBand2DiffAdapEn
                0x0000000023e300ec       0x28 drivers/built-in.o
                0x0000000023e300ec                _HalDispPqPeakingSetBand2DiffAdapEn
 .text._HalDispPqPeakingSetBand1DiffAdapEn
                0x0000000023e30114       0x30 drivers/built-in.o
                0x0000000023e30114                _HalDispPqPeakingSetBand1DiffAdapEn
 .text._HalDispPqSetGammaR
                0x0000000023e30144       0x54 drivers/built-in.o
                0x0000000023e30144                _HalDispPqSetGammaR
 .text._HalDispPqSetGammaG
                0x0000000023e30198       0x54 drivers/built-in.o
                0x0000000023e30198                _HalDispPqSetGammaG
 .text._HalDispPqSetGammaB
                0x0000000023e301ec       0x54 drivers/built-in.o
                0x0000000023e301ec                _HalDispPqSetGammaB
 .text._HalDispPqSetGammaEn
                0x0000000023e30240       0x28 drivers/built-in.o
                0x0000000023e30240                _HalDispPqSetGammaEn
 .text.HalDispPqGetHwCtx
                0x0000000023e30268       0x10 drivers/built-in.o
                0x0000000023e30268                HalDispPqGetHwCtx
 .text.HalDispPqSetHwCtxFlag
                0x0000000023e30278       0x18 drivers/built-in.o
                0x0000000023e30278                HalDispPqSetHwCtxFlag
 .text.HalDispPqSetPeaking
                0x0000000023e30290      0x144 drivers/built-in.o
                0x0000000023e30290                HalDispPqSetPeaking
 .text.HalDispPqSetGammaConfig
                0x0000000023e303d4       0x74 drivers/built-in.o
                0x0000000023e303d4                HalDispPqSetGammaConfig
 .text.sine     0x0000000023e30448       0x70 drivers/built-in.o
                0x0000000023e30448                sine
 .text.cosine   0x0000000023e304b8       0x70 drivers/built-in.o
                0x0000000023e304b8                cosine
 .text.ArrayMultiply
                0x0000000023e30528       0x64 drivers/built-in.o
                0x0000000023e30528                ArrayMultiply
 .text.SetVideoSatHueMatrix
                0x0000000023e3058c       0xa4 drivers/built-in.o
                0x0000000023e3058c                SetVideoSatHueMatrix
 .text.SetVideoContrastMatrix
                0x0000000023e30630       0xb0 drivers/built-in.o
                0x0000000023e30630                SetVideoContrastMatrix
 .text.WriteColorMatrix
                0x0000000023e306e0       0x90 drivers/built-in.o
                0x0000000023e306e0                WriteColorMatrix
 .text.SetVideoColorMatrix
                0x0000000023e30770       0xc4 drivers/built-in.o
                0x0000000023e30770                SetVideoColorMatrix
 .text.SetBrightnessEn
                0x0000000023e30834       0x60 drivers/built-in.o
                0x0000000023e30834                SetBrightnessEn
 .text.SetBrightness
                0x0000000023e30894       0x94 drivers/built-in.o
                0x0000000023e30894                SetBrightness
 .text.HalDispColorInitVar
                0x0000000023e30928      0x12c drivers/built-in.o
                0x0000000023e30928                HalDispColorInitVar
 .text.HalDispColorSetColorCorrectMatrix
                0x0000000023e30a54       0xf0 drivers/built-in.o
                0x0000000023e30a54                HalDispColorSetColorCorrectMatrix
 .text.HalDispColorSeletYuvToRgbMatrix
                0x0000000023e30b44      0x144 drivers/built-in.o
                0x0000000023e30b44                HalDispColorSeletYuvToRgbMatrix
 .text.HalDispColorAdjustBrightness
                0x0000000023e30c88       0x70 drivers/built-in.o
                0x0000000023e30c88                HalDispColorAdjustBrightness
 .text.HalDispColorAdjustHCS
                0x0000000023e30cf8       0x8c drivers/built-in.o
                0x0000000023e30cf8                HalDispColorAdjustHCS
 .text.HalDispColorAdjustVideoRGB
                0x0000000023e30d84       0x88 drivers/built-in.o
                0x0000000023e30d84                HalDispColorAdjustVideoRGB
 .text.HalMopsShadowInit
                0x0000000023e30e0c      0x1ac drivers/built-in.o
                0x0000000023e30e0c                HalMopsShadowInit
 .text._HalMopGetSwShadow
                0x0000000023e30fb8       0x64 drivers/built-in.o
                0x0000000023e30fb8                _HalMopGetSwShadow
 .text._HalMopSetSwShadow
                0x0000000023e3101c       0x5c drivers/built-in.o
                0x0000000023e3101c                _HalMopSetSwShadow
 .text._HalMopGetShadowReg
                0x0000000023e31078       0x58 drivers/built-in.o
                0x0000000023e31078                _HalMopGetShadowReg
 .text._HalMopSwShadowHandler
                0x0000000023e310d0       0x50 drivers/built-in.o
                0x0000000023e310d0                _HalMopSwShadowHandler
 .text._HalDispMopgGwinRegBkMap
                0x0000000023e31120       0x50 drivers/built-in.o
                0x0000000023e31120                _HalDispMopgGwinRegBkMap
 .text._HalDispMopgGwinRegShiftMap
                0x0000000023e31170       0x40 drivers/built-in.o
                0x0000000023e31170                _HalDispMopgGwinRegShiftMap
 .text._HalDispMopgGwinRegSwShadowMap
                0x0000000023e311b0       0x40 drivers/built-in.o
                0x0000000023e311b0                _HalDispMopgGwinRegSwShadowMap
 .text.HalDispMopgSwReset
                0x0000000023e311f0       0x28 drivers/built-in.o
                0x0000000023e311f0                HalDispMopgSwReset
 .text.HalDispMopgSetAutoStretchWinSizeEn
                0x0000000023e31218       0x30 drivers/built-in.o
                0x0000000023e31218                HalDispMopgSetAutoStretchWinSizeEn
 .text.HalDispMopgSetPipeDelay
                0x0000000023e31248       0x24 drivers/built-in.o
                0x0000000023e31248                HalDispMopgSetPipeDelay
 .text.HalDispMopsSwReset
                0x0000000023e3126c       0x28 drivers/built-in.o
                0x0000000023e3126c                HalDispMopsSwReset
 .text.HalDispMopsSetAutoStretchWinSizeEn
                0x0000000023e31294       0x30 drivers/built-in.o
                0x0000000023e31294                HalDispMopsSetAutoStretchWinSizeEn
 .text.HalDispMopsSetPipeDelay
                0x0000000023e312c4       0x24 drivers/built-in.o
                0x0000000023e312c4                HalDispMopsSetPipeDelay
 .text.HalDispMopSetClk
                0x0000000023e312e8       0x64 drivers/built-in.o
                0x0000000023e312e8                HalDispMopSetClk
 .text.HalDispMopGetClk
                0x0000000023e3134c       0x58 drivers/built-in.o
                0x0000000023e3134c                HalDispMopGetClk
 .text.HalDispMopDbBfWr
                0x0000000023e313a4       0x28 drivers/built-in.o
                0x0000000023e313a4                HalDispMopDbBfWr
 .text.HalDispMopgInit
                0x0000000023e313cc       0xb8 drivers/built-in.o
                0x0000000023e313cc                HalDispMopgInit
 .text.HalDispMopgGwinEn
                0x0000000023e31484       0x60 drivers/built-in.o
                0x0000000023e31484                HalDispMopgGwinEn
 .text.HalDispMopgSetYAddr
                0x0000000023e314e4       0x88 drivers/built-in.o
                0x0000000023e314e4                HalDispMopgSetYAddr
 .text.HalDispMopgSetAddr16Offset
                0x0000000023e3156c       0x3c drivers/built-in.o
                0x0000000023e3156c                HalDispMopgSetAddr16Offset
 .text.HalDispMopgSetCAddr
                0x0000000023e315a8       0x88 drivers/built-in.o
                0x0000000023e315a8                HalDispMopgSetCAddr
 .text.HalDispMopgSetGwinParam
                0x0000000023e31630      0x114 drivers/built-in.o
                0x0000000023e31630                HalDispMopgSetGwinParam
 .text.HalDispMopgSetPitch
                0x0000000023e31744       0x60 drivers/built-in.o
                0x0000000023e31744                HalDispMopgSetPitch
 .text.HalDispMopgSetSourceParam
                0x0000000023e317a4       0xa4 drivers/built-in.o
                0x0000000023e317a4                HalDispMopgSetSourceParam
 .text.HalDispMopgSetHScaleFac
                0x0000000023e31848       0x64 drivers/built-in.o
                0x0000000023e31848                HalDispMopgSetHScaleFac
 .text.HalDispMopgSetVScaleFac
                0x0000000023e318ac       0x64 drivers/built-in.o
                0x0000000023e318ac                HalDispMopgSetVScaleFac
 .text.HalDispMopgSetLineBufStr
                0x0000000023e31910       0x4c drivers/built-in.o
                0x0000000023e31910                HalDispMopgSetLineBufStr
 .text.HalDispMopsInit
                0x0000000023e3195c       0xb8 drivers/built-in.o
                0x0000000023e3195c                HalDispMopsInit
 .text.HalDispMopsGwinEn
                0x0000000023e31a14       0x20 drivers/built-in.o
                0x0000000023e31a14                HalDispMopsGwinEn
 .text.HalDispMopsSetYAddr
                0x0000000023e31a34       0x28 drivers/built-in.o
                0x0000000023e31a34                HalDispMopsSetYAddr
 .text.HalDispMopsSetAddr16Offset
                0x0000000023e31a5c       0x28 drivers/built-in.o
                0x0000000023e31a5c                HalDispMopsSetAddr16Offset
 .text.HalDispMopsSetCAddr
                0x0000000023e31a84       0x28 drivers/built-in.o
                0x0000000023e31a84                HalDispMopsSetCAddr
 .text.HalDispMopsSetGwinParam
                0x0000000023e31aac       0x7c drivers/built-in.o
                0x0000000023e31aac                HalDispMopsSetGwinParam
 .text.HalDispMopsSetPitch
                0x0000000023e31b28       0x1c drivers/built-in.o
                0x0000000023e31b28                HalDispMopsSetPitch
 .text.HalDispMopsSetSourceParam
                0x0000000023e31b44       0x4c drivers/built-in.o
                0x0000000023e31b44                HalDispMopsSetSourceParam
 .text.HalDispMopsSetHScaleFac
                0x0000000023e31b90       0x20 drivers/built-in.o
                0x0000000023e31b90                HalDispMopsSetHScaleFac
 .text.HalDispMopsSetVScaleFac
                0x0000000023e31bb0       0x20 drivers/built-in.o
                0x0000000023e31bb0                HalDispMopsSetVScaleFac
 .text.HalDispMopRotDbBfWr
                0x0000000023e31bd0       0x30 drivers/built-in.o
                0x0000000023e31bd0                HalDispMopRotDbBfWr
 .text.HalDispMopRot0DbfEn
                0x0000000023e31c00       0x20 drivers/built-in.o
                0x0000000023e31c00                HalDispMopRot0DbfEn
 .text.HalDispMopRot1DbfEn
                0x0000000023e31c20       0x30 drivers/built-in.o
                0x0000000023e31c20                HalDispMopRot1DbfEn
 .text.HalDispMopRot0En
                0x0000000023e31c50       0x5c drivers/built-in.o
                0x0000000023e31c50                HalDispMopRot0En
 .text.HalDispMopRot1En
                0x0000000023e31cac       0x5c drivers/built-in.o
                0x0000000023e31cac                HalDispMopRot1En
 .text.HalDispMopRot0SourceWidth
                0x0000000023e31d08       0x40 drivers/built-in.o
                0x0000000023e31d08                HalDispMopRot0SourceWidth
 .text.HalDispMopRot0SourceHeight
                0x0000000023e31d48       0x40 drivers/built-in.o
                0x0000000023e31d48                HalDispMopRot0SourceHeight
 .text.HalDispMopRot1SourceWidth
                0x0000000023e31d88       0x44 drivers/built-in.o
                0x0000000023e31d88                HalDispMopRot1SourceWidth
 .text.HalDispMopRot1SourceHeight
                0x0000000023e31dcc       0x44 drivers/built-in.o
                0x0000000023e31dcc                HalDispMopRot1SourceHeight
 .text.HalDispMopRot0SetReadYAddr
                0x0000000023e31e10       0x2c drivers/built-in.o
                0x0000000023e31e10                HalDispMopRot0SetReadYAddr
 .text.HalDispMopRot0SetReadCAddr
                0x0000000023e31e3c       0x2c drivers/built-in.o
                0x0000000023e31e3c                HalDispMopRot0SetReadCAddr
 .text.HalDispMopRot1SetReadYAddr
                0x0000000023e31e68       0x2c drivers/built-in.o
                0x0000000023e31e68                HalDispMopRot1SetReadYAddr
 .text.HalDispMopRot1SetReadCAddr
                0x0000000023e31e94       0x2c drivers/built-in.o
                0x0000000023e31e94                HalDispMopRot1SetReadCAddr
 .text.HalDispMopRot0SetWriteYAddr
                0x0000000023e31ec0       0x2c drivers/built-in.o
                0x0000000023e31ec0                HalDispMopRot0SetWriteYAddr
 .text.HalDispMopRot0SetWriteCAddr
                0x0000000023e31eec       0x2c drivers/built-in.o
                0x0000000023e31eec                HalDispMopRot0SetWriteCAddr
 .text.HalDispMopRot1SetWriteYAddr
                0x0000000023e31f18       0x2c drivers/built-in.o
                0x0000000023e31f18                HalDispMopRot1SetWriteYAddr
 .text.HalDispMopRot1SetWriteCAddr
                0x0000000023e31f44       0x2c drivers/built-in.o
                0x0000000023e31f44                HalDispMopRot1SetWriteCAddr
 .text.HalDispMopRot0SetRotateMode
                0x0000000023e31f70       0x54 drivers/built-in.o
                0x0000000023e31f70                HalDispMopRot0SetRotateMode
 .text.HalDispMopRot1SetRotateMode
                0x0000000023e31fc4       0x54 drivers/built-in.o
                0x0000000023e31fc4                HalDispMopRot1SetRotateMode
 .text.HalDispMopRot0SetPixDummy
                0x0000000023e32018       0x40 drivers/built-in.o
                0x0000000023e32018                HalDispMopRot0SetPixDummy
 .text.HalDispMopRot1SetPixDummy
                0x0000000023e32058       0x44 drivers/built-in.o
                0x0000000023e32058                HalDispMopRot1SetPixDummy
 .text.HalDispMopRotInit
                0x0000000023e3209c      0x10c drivers/built-in.o
                0x0000000023e3209c                HalDispMopRotInit
 .text.DrvPnlOsMemAlloc
                0x0000000023e321a8        0x4 drivers/built-in.o
                0x0000000023e321a8                DrvPnlOsMemAlloc
 .text.DrvPnlOsMemRelease
                0x0000000023e321ac        0x4 drivers/built-in.o
                0x0000000023e321ac                DrvPnlOsMemRelease
 .text.DrvPnlOsMsSleep
                0x0000000023e321b0        0x4 drivers/built-in.o
                0x0000000023e321b0                DrvPnlOsMsSleep
 .text.DrvPnlOsUsSleep
                0x0000000023e321b4        0x4 drivers/built-in.o
                0x0000000023e321b4                DrvPnlOsUsSleep
 .text.DrvPnlOsPadMuxActive
                0x0000000023e321b8        0x8 drivers/built-in.o
                0x0000000023e321b8                DrvPnlOsPadMuxActive
 .text.DrvPnlOsSetClkOn
                0x0000000023e321c0        0x8 drivers/built-in.o
                0x0000000023e321c0                DrvPnlOsSetClkOn
 .text.DrvPnlCtxInit
                0x0000000023e321c8       0xa0 drivers/built-in.o
                0x0000000023e321c8                DrvPnlCtxInit
 .text.DrvPnlCtxAllocate
                0x0000000023e32268       0xb8 drivers/built-in.o
                0x0000000023e32268                DrvPnlCtxAllocate
 .text._DrvPnlIfTransMipiDsiConfigToHal
                0x0000000023e32320      0x1ac drivers/built-in.o
                0x0000000023e32320                _DrvPnlIfTransMipiDsiConfigToHal
 .text._DrvPnlIfTransParamToHal
                0x0000000023e324cc      0x3bc drivers/built-in.o
                0x0000000023e324cc                _DrvPnlIfTransParamToHal
 .text._DrvPnlIfExecuteQuery
                0x0000000023e32888      0x174 drivers/built-in.o
                0x0000000023e32888                _DrvPnlIfExecuteQuery
 .text.DrvPnlIfSetClkConfig
                0x0000000023e329fc       0xbc drivers/built-in.o
                0x0000000023e329fc                DrvPnlIfSetClkConfig
 .text.DrvPnlIfCreateInstance
                0x0000000023e32ab8      0x11c drivers/built-in.o
                0x0000000023e32ab8                DrvPnlIfCreateInstance
 .text.DrvPnlIfSetParamConfig
                0x0000000023e32bd4       0x68 drivers/built-in.o
                0x0000000023e32bd4                DrvPnlIfSetParamConfig
 .text.DrvPnlIfSetMipiDsiConfig
                0x0000000023e32c3c       0x68 drivers/built-in.o
                0x0000000023e32c3c                DrvPnlIfSetMipiDsiConfig
 .text.DrvPnlIfSetDbgLevel
                0x0000000023e32ca4       0x18 drivers/built-in.o
                0x0000000023e32ca4                DrvPnlIfSetDbgLevel
 .text.MhalPnlCreateInstance
                0x0000000023e32cbc        0x8 drivers/built-in.o
                0x0000000023e32cbc                MhalPnlCreateInstance
 .text.MhalPnlSetParamConfig
                0x0000000023e32cc4       0x34 drivers/built-in.o
                0x0000000023e32cc4                MhalPnlSetParamConfig
 .text.MhalPnlSetMipiDsiConfig
                0x0000000023e32cf8       0x34 drivers/built-in.o
                0x0000000023e32cf8                MhalPnlSetMipiDsiConfig
 .text.MhalPnlSetDebugLevel
                0x0000000023e32d2c       0x34 drivers/built-in.o
                0x0000000023e32d2c                MhalPnlSetDebugLevel
 .text._HalPnlIfGetInfoInitConfig
                0x0000000023e32d60        0x8 drivers/built-in.o
                0x0000000023e32d60                _HalPnlIfGetInfoInitConfig
 .text._HalPnlIfGetInfoPowerConfig
                0x0000000023e32d68        0x8 drivers/built-in.o
                0x0000000023e32d68                _HalPnlIfGetInfoPowerConfig
 .text._HalPnlIfGetInfoClkSetConfig
                0x0000000023e32d70       0x40 drivers/built-in.o
                0x0000000023e32d70                _HalPnlIfGetInfoClkSetConfig
 .text._HalPnlIfGetInfoParamConfig
                0x0000000023e32db0      0x2b4 drivers/built-in.o
                0x0000000023e32db0                _HalPnlIfGetInfoParamConfig
 .text._HalPnlIfGetInfoSscConfig
                0x0000000023e33064       0x1c drivers/built-in.o
                0x0000000023e33064                _HalPnlIfGetInfoSscConfig
 .text._HalPnlIfGetInfoTimingConfig
                0x0000000023e33080       0x24 drivers/built-in.o
                0x0000000023e33080                _HalPnlIfGetInfoTimingConfig
 .text._HalPnlIfGetInfoTestPatConfig
                0x0000000023e330a4       0x1c drivers/built-in.o
                0x0000000023e330a4                _HalPnlIfGetInfoTestPatConfig
 .text._HalPnlIfGetInfoMipiDsiParamConfig
                0x0000000023e330c0      0x1a4 drivers/built-in.o
                0x0000000023e330c0                _HalPnlIfGetInfoMipiDsiParamConfig
 .text._HalPnlIfSetClkSetConfig
                0x0000000023e33264       0xc8 drivers/built-in.o
                0x0000000023e33264                _HalPnlIfSetClkSetConfig
 .text._HalPnlIfGetInfoClkGetConfig
                0x0000000023e3332c      0x120 drivers/built-in.o
                0x0000000023e3332c                _HalPnlIfGetInfoClkGetConfig
 .text._HalPnlIfSetInitConfig
                0x0000000023e3344c       0x20 drivers/built-in.o
                0x0000000023e3344c                _HalPnlIfSetInitConfig
 .text._HalPnlIfGetInfoBackLightLevelConfig
                0x0000000023e3346c        0x8 drivers/built-in.o
                0x0000000023e3346c                _HalPnlIfGetInfoBackLightLevelConfig
 .text._HalPnlIfSetPowerConfig
                0x0000000023e33474        0x4 drivers/built-in.o
                0x0000000023e33474                _HalPnlIfSetPowerConfig
 .text._HalPnlIfGetInfoCurrentConfig
                0x0000000023e33478        0x8 drivers/built-in.o
                0x0000000023e33478                _HalPnlIfGetInfoCurrentConfig
 .text._HalPnlIfGetInfoBackLightOnOffConfig
                0x0000000023e33480        0x8 drivers/built-in.o
                0x0000000023e33480                _HalPnlIfGetInfoBackLightOnOffConfig
 .text._HalPnlIfSetBackLightOnOffConfig
                0x0000000023e33488        0x4 drivers/built-in.o
                0x0000000023e33488                _HalPnlIfSetBackLightOnOffConfig
 .text._HalPnlIfSetBackLightLevelConfig
                0x0000000023e3348c        0x4 drivers/built-in.o
                0x0000000023e3348c                _HalPnlIfSetBackLightLevelConfig
 .text._HalPnlIfSetCurrentConfig
                0x0000000023e33490        0x4 drivers/built-in.o
                0x0000000023e33490                _HalPnlIfSetCurrentConfig
 .text._HalPnlIfSetClkGetConfig
                0x0000000023e33494        0x4 drivers/built-in.o
                0x0000000023e33494                _HalPnlIfSetClkGetConfig
 .text.__HalPnlIfSetSscConfig
                0x0000000023e33498       0x68 drivers/built-in.o
                0x0000000023e33498                __HalPnlIfSetSscConfig
 .text._HalPnlIfSetSscConfig
                0x0000000023e33500        0x8 drivers/built-in.o
                0x0000000023e33500                _HalPnlIfSetSscConfig
 .text.__HalPnlIfSetPolarityConfig
                0x0000000023e33508      0x1ac drivers/built-in.o
                0x0000000023e33508                __HalPnlIfSetPolarityConfig
 .text.__HalPnlIfSetLpllConfig
                0x0000000023e336b4      0x34c drivers/built-in.o
                0x0000000023e336b4                __HalPnlIfSetLpllConfig
 .text.__HalPnlIfSetTimeGenConfig
                0x0000000023e33a00      0x37c drivers/built-in.o
                0x0000000023e33a00                __HalPnlIfSetTimeGenConfig
 .text._HalPnlIfSetParamConfig
                0x0000000023e33d7c       0x7c drivers/built-in.o
                0x0000000023e33d7c                _HalPnlIfSetParamConfig
 .text._HalPnlIfSetTimingConfig
                0x0000000023e33df8        0x4 drivers/built-in.o
                0x0000000023e33df8                _HalPnlIfSetTimingConfig
 .text.__HalPnlIfSetTestPatConfig
                0x0000000023e33dfc       0x70 drivers/built-in.o
                0x0000000023e33dfc                __HalPnlIfSetTestPatConfig
 .text._HalPnlIfSetTestPatConfig
                0x0000000023e33e6c        0x4 drivers/built-in.o
                0x0000000023e33e6c                _HalPnlIfSetTestPatConfig
 .text.__HalPnlIfSetMipiDsiPacket
                0x0000000023e33e70       0x90 drivers/built-in.o
                0x0000000023e33e70                __HalPnlIfSetMipiDsiPacket
 .text._HalPnlIfSetMipiDsiParamConfig
                0x0000000023e33f00      0x230 drivers/built-in.o
                0x0000000023e33f00                _HalPnlIfSetMipiDsiParamConfig
 .text._HalPnlIfGetCallBack
                0x0000000023e34130       0xa4 drivers/built-in.o
                0x0000000023e34130                _HalPnlIfGetCallBack
 .text.HalPnlIfInit
                0x0000000023e341d4      0x1b0 drivers/built-in.o
                0x0000000023e341d4                HalPnlIfInit
 .text.HalPnlIfQuery
                0x0000000023e34384       0x34 drivers/built-in.o
                0x0000000023e34384                HalPnlIfQuery
 .text._HalPnlGetMipiUi
                0x0000000023e343b8       0xb8 drivers/built-in.o
                0x0000000023e343b8                _HalPnlGetMipiUi
 .text.HalPnlGetLpllIdx
                0x0000000023e34470      0x190 drivers/built-in.o
                0x0000000023e34470                HalPnlGetLpllIdx
 .text.HalPnlGetLpllGain
                0x0000000023e34600       0x30 drivers/built-in.o
                0x0000000023e34600                HalPnlGetLpllGain
 .text.HalPnlGetLpllDiv
                0x0000000023e34630       0x30 drivers/built-in.o
                0x0000000023e34630                HalPnlGetLpllDiv
 .text.HalPnlSetTTLPadMux
                0x0000000023e34660       0x60 drivers/built-in.o
                0x0000000023e34660                HalPnlSetTTLPadMux
 .text.HalPnlSetTtlPadCotnrol
                0x0000000023e346c0       0x58 drivers/built-in.o
                0x0000000023e346c0                HalPnlSetTtlPadCotnrol
 .text.HalPnlSetMipiDisPadMux
                0x0000000023e34718       0x34 drivers/built-in.o
                0x0000000023e34718                HalPnlSetMipiDisPadMux
 .text.HalPnlDumpLpllSetting
                0x0000000023e3474c       0x48 drivers/built-in.o
                0x0000000023e3474c                HalPnlDumpLpllSetting
 .text.HalPnlSetLpllSet
                0x0000000023e34794       0x1c drivers/built-in.o
                0x0000000023e34794                HalPnlSetLpllSet
 .text.HalPnlSetVSyncSt
                0x0000000023e347b0       0x20 drivers/built-in.o
                0x0000000023e347b0                HalPnlSetVSyncSt
 .text.HalPnlSetVSyncEnd
                0x0000000023e347d0       0x20 drivers/built-in.o
                0x0000000023e347d0                HalPnlSetVSyncEnd
 .text.HalPnlSetVfdeSt
                0x0000000023e347f0       0x20 drivers/built-in.o
                0x0000000023e347f0                HalPnlSetVfdeSt
 .text.HalPnlSetVfdeEnd
                0x0000000023e34810       0x20 drivers/built-in.o
                0x0000000023e34810                HalPnlSetVfdeEnd
 .text.HalPnlSetVdeSt
                0x0000000023e34830       0x20 drivers/built-in.o
                0x0000000023e34830                HalPnlSetVdeSt
 .text.HalPnlSetVdeEnd
                0x0000000023e34850       0x20 drivers/built-in.o
                0x0000000023e34850                HalPnlSetVdeEnd
 .text.HalPnlSetVtt
                0x0000000023e34870       0x20 drivers/built-in.o
                0x0000000023e34870                HalPnlSetVtt
 .text.HalPnlSetHSyncSt
                0x0000000023e34890       0x20 drivers/built-in.o
                0x0000000023e34890                HalPnlSetHSyncSt
 .text.HalPnlSetHSyncEnd
                0x0000000023e348b0       0x20 drivers/built-in.o
                0x0000000023e348b0                HalPnlSetHSyncEnd
 .text.HalPnlSetHfdeSt
                0x0000000023e348d0       0x20 drivers/built-in.o
                0x0000000023e348d0                HalPnlSetHfdeSt
 .text.HalPnlSetHfdeEnd
                0x0000000023e348f0       0x20 drivers/built-in.o
                0x0000000023e348f0                HalPnlSetHfdeEnd
 .text.HalPnlSetHdeSt
                0x0000000023e34910       0x20 drivers/built-in.o
                0x0000000023e34910                HalPnlSetHdeSt
 .text.HalPnlSetHdeEnd
                0x0000000023e34930       0x20 drivers/built-in.o
                0x0000000023e34930                HalPnlSetHdeEnd
 .text.HalPnlSetHtt
                0x0000000023e34950       0x20 drivers/built-in.o
                0x0000000023e34950                HalPnlSetHtt
 .text.HalPnlSetClkHdmi
                0x0000000023e34970       0x34 drivers/built-in.o
                0x0000000023e34970                HalPnlSetClkHdmi
 .text.HalPnlGetClkHdmi
                0x0000000023e349a4       0x3c drivers/built-in.o
                0x0000000023e349a4                HalPnlGetClkHdmi
 .text.HalPnlSetClkDac
                0x0000000023e349e0       0x34 drivers/built-in.o
                0x0000000023e349e0                HalPnlSetClkDac
 .text.HalPnlGetClkDac
                0x0000000023e34a14       0x3c drivers/built-in.o
                0x0000000023e34a14                HalPnlGetClkDac
 .text.HalPnlSetClkMipiDsiAbp
                0x0000000023e34a50       0x34 drivers/built-in.o
                0x0000000023e34a50                HalPnlSetClkMipiDsiAbp
 .text.HalPnlGetClkMipiDsiAbp
                0x0000000023e34a84       0x3c drivers/built-in.o
                0x0000000023e34a84                HalPnlGetClkMipiDsiAbp
 .text.HalPnlSetClkScPixel
                0x0000000023e34ac0      0x124 drivers/built-in.o
                0x0000000023e34ac0                HalPnlSetClkScPixel
 .text.HalPnlGetClkScPixel
                0x0000000023e34be4       0xd4 drivers/built-in.o
                0x0000000023e34be4                HalPnlGetClkScPixel
 .text.HalPnlSetClkMipiDsi
                0x0000000023e34cb8       0x94 drivers/built-in.o
                0x0000000023e34cb8                HalPnlSetClkMipiDsi
 .text.HalPnlGetClkMipiDsi
                0x0000000023e34d4c       0x88 drivers/built-in.o
                0x0000000023e34d4c                HalPnlGetClkMipiDsi
 .text.HalPnlSetLpllSkew
                0x0000000023e34dd4       0x20 drivers/built-in.o
                0x0000000023e34dd4                HalPnlSetLpllSkew
 .text.HalPnlSetFrameColorEn
                0x0000000023e34df4       0x30 drivers/built-in.o
                0x0000000023e34df4                HalPnlSetFrameColorEn
 .text.HalPnlSetFrameColor
                0x0000000023e34e24       0x38 drivers/built-in.o
                0x0000000023e34e24                HalPnlSetFrameColor
 .text.HalPnlSetClkInv
                0x0000000023e34e5c        0x4 drivers/built-in.o
                0x0000000023e34e5c                HalPnlSetClkInv
 .text.HalPnlSetVsyncInv
                0x0000000023e34e60        0x4 drivers/built-in.o
                0x0000000023e34e60                HalPnlSetVsyncInv
 .text.HalPnlSetHsyncInv
                0x0000000023e34e64        0x4 drivers/built-in.o
                0x0000000023e34e64                HalPnlSetHsyncInv
 .text.HalPnlSetDeInv
                0x0000000023e34e68        0x4 drivers/built-in.o
                0x0000000023e34e68                HalPnlSetDeInv
 .text.HalPnlSetVsynRefMd
                0x0000000023e34e6c        0x4 drivers/built-in.o
                0x0000000023e34e6c                HalPnlSetVsynRefMd
 .text.HalPnlSetTgenExtHsEn
                0x0000000023e34e70       0x30 drivers/built-in.o
                0x0000000023e34e70                HalPnlSetTgenExtHsEn
 .text.HalPnlSetSwReste
                0x0000000023e34ea0       0x1c drivers/built-in.o
                0x0000000023e34ea0                HalPnlSetSwReste
 .text.HalPnlSetFifoRest
                0x0000000023e34ebc       0x28 drivers/built-in.o
                0x0000000023e34ebc                HalPnlSetFifoRest
 .text.HalPnlSetDispToDsiMd
                0x0000000023e34ee4       0x28 drivers/built-in.o
                0x0000000023e34ee4                HalPnlSetDispToDsiMd
 .text.HalPnlSetDitherEn
                0x0000000023e34f0c       0x20 drivers/built-in.o
                0x0000000023e34f0c                HalPnlSetDitherEn
 .text.HalPnlSetRgbMode
                0x0000000023e34f2c       0x38 drivers/built-in.o
                0x0000000023e34f2c                HalPnlSetRgbMode
 .text.HalPnlSetRgbSwap
                0x0000000023e34f64       0x8c drivers/built-in.o
                0x0000000023e34f64                HalPnlSetRgbSwap
 .text.HalPnlSetRgbMlSwap
                0x0000000023e34ff0       0x30 drivers/built-in.o
                0x0000000023e34ff0                HalPnlSetRgbMlSwap
 .text.HalPnlSetSscEn
                0x0000000023e35020       0x30 drivers/built-in.o
                0x0000000023e35020                HalPnlSetSscEn
 .text.HalPnlSetSscSpan
                0x0000000023e35050       0x20 drivers/built-in.o
                0x0000000023e35050                HalPnlSetSscSpan
 .text.HalPnlSetSscStep
                0x0000000023e35070       0x20 drivers/built-in.o
                0x0000000023e35070                HalPnlSetSscStep
 .text.HalPnlGetRevision
                0x0000000023e35090       0x1c drivers/built-in.o
                0x0000000023e35090                HalPnlGetRevision
 .text.HalPnlGetTtlMipiDsiSupported
                0x0000000023e350ac       0x68 drivers/built-in.o
                0x0000000023e350ac                HalPnlGetTtlMipiDsiSupported
 .text.HalPnlInitMipiDsiDphy
                0x0000000023e35114       0xac drivers/built-in.o
                0x0000000023e35114                HalPnlInitMipiDsiDphy
 .text.HalPnlSetMipiDsiPadOutSel
                0x0000000023e351c0        0x4 drivers/built-in.o
                0x0000000023e351c0                HalPnlSetMipiDsiPadOutSel
 .text.HalPnlResetMipiDsi
                0x0000000023e351c4       0x1c drivers/built-in.o
                0x0000000023e351c4                HalPnlResetMipiDsi
 .text.HalPnlEnableMipiDsiClk
                0x0000000023e351e0       0x24 drivers/built-in.o
                0x0000000023e351e0                HalPnlEnableMipiDsiClk
 .text.HalPnlSetMipiDsiLaneNum
                0x0000000023e35204       0x84 drivers/built-in.o
                0x0000000023e35204                HalPnlSetMipiDsiLaneNum
 .text.HalPnlSetMipiDsiCtrlMode
                0x0000000023e35288       0xec drivers/built-in.o
                0x0000000023e35288                HalPnlSetMipiDsiCtrlMode
 .text.HalPnlGetMipiDsiClkHsMode
                0x0000000023e35374       0x14 drivers/built-in.o
                0x0000000023e35374                HalPnlGetMipiDsiClkHsMode
 .text.HalPnlSetMpiDsiClkHsMode
                0x0000000023e35388       0x4c drivers/built-in.o
                0x0000000023e35388                HalPnlSetMpiDsiClkHsMode
 .text.HalPnlSetMipiDsiShortPacket
                0x0000000023e353d4      0x164 drivers/built-in.o
                0x0000000023e353d4                HalPnlSetMipiDsiShortPacket
 .text.HalPnlSetMipiDsiLongPacket
                0x0000000023e35538      0x250 drivers/built-in.o
                0x0000000023e35538                HalPnlSetMipiDsiLongPacket
 .text.HalPnlSetMipiDsiPhyTimConfig
                0x0000000023e35788      0x588 drivers/built-in.o
                0x0000000023e35788                HalPnlSetMipiDsiPhyTimConfig
 .text.HalPnlSetMipiDsiVideoTimingConfig
                0x0000000023e35d10      0x520 drivers/built-in.o
                0x0000000023e35d10                HalPnlSetMipiDsiVideoTimingConfig
 .text.HalPnlSetMipiDsiChSel
                0x0000000023e36230      0x140 drivers/built-in.o
                0x0000000023e36230                HalPnlSetMipiDsiChSel
 .text.HalPnlSetMipiDsiChPolarity
                0x0000000023e36370       0xdc drivers/built-in.o
                0x0000000023e36370                HalPnlSetMipiDsiChPolarity
 .text.jpeg_CreateDecompress
                0x0000000023e3644c       0xf4 drivers/built-in.o
                0x0000000023e3644c                jpeg_CreateDecompress
 .text.jpeg_destroy_decompress
                0x0000000023e36540        0x4 drivers/built-in.o
                0x0000000023e36540                jpeg_destroy_decompress
 .text.jpeg_consume_input
                0x0000000023e36544      0x2c8 drivers/built-in.o
                0x0000000023e36544                jpeg_consume_input
 .text.jpeg_read_header
                0x0000000023e3680c       0x80 drivers/built-in.o
                0x0000000023e3680c                jpeg_read_header
 .text.jpeg_finish_decompress
                0x0000000023e3688c       0xdc drivers/built-in.o
                0x0000000023e3688c                jpeg_finish_decompress
 .text.output_pass_setup
                0x0000000023e36968       0xec drivers/built-in.o
 .text.jpeg_start_decompress
                0x0000000023e36a54      0x108 drivers/built-in.o
                0x0000000023e36a54                jpeg_start_decompress
 .text.jpeg_read_scanlines
                0x0000000023e36b5c       0xc0 drivers/built-in.o
                0x0000000023e36b5c                jpeg_read_scanlines
 .text.jpeg_abort
                0x0000000023e36c1c       0x44 drivers/built-in.o
                0x0000000023e36c1c                jpeg_abort
 .text.jpeg_destroy
                0x0000000023e36c60       0x2c drivers/built-in.o
                0x0000000023e36c60                jpeg_destroy
 .text.jpeg_alloc_quant_table
                0x0000000023e36c8c       0x24 drivers/built-in.o
                0x0000000023e36c8c                jpeg_alloc_quant_table
 .text.jpeg_alloc_huff_table
                0x0000000023e36cb0       0x24 drivers/built-in.o
                0x0000000023e36cb0                jpeg_alloc_huff_table
 .text.prepare_for_output_pass
                0x0000000023e36cd4      0x1d0 drivers/built-in.o
 .text.finish_output_pass
                0x0000000023e36ea4       0x30 drivers/built-in.o
 .text.use_merged_upsample
                0x0000000023e36ed4       0xf8 drivers/built-in.o
 .text.jpeg_calc_output_dimensions
                0x0000000023e36fcc      0x208 drivers/built-in.o
                0x0000000023e36fcc                jpeg_calc_output_dimensions
 .text.jinit_master_decompress
                0x0000000023e371d4      0x354 drivers/built-in.o
                0x0000000023e371d4                jinit_master_decompress
 .text.finish_input_pass
                0x0000000023e37528       0x28 drivers/built-in.o
 .text.reset_input_controller
                0x0000000023e37550       0x50 drivers/built-in.o
 .text.start_input_pass
                0x0000000023e375a0      0x264 drivers/built-in.o
 .text.consume_markers
                0x0000000023e37804      0x4fc drivers/built-in.o
 .text.jpeg_core_output_dimensions
                0x0000000023e37d00      0x2d0 drivers/built-in.o
                0x0000000023e37d00                jpeg_core_output_dimensions
 .text.jinit_input_controller
                0x0000000023e37fd0       0x68 drivers/built-in.o
                0x0000000023e37fd0                jinit_input_controller
 .text.process_data_simple_main
                0x0000000023e38038       0x78 drivers/built-in.o
 .text.process_data_context_main
                0x0000000023e380b0      0x32c drivers/built-in.o
 .text.process_data_crank_post
                0x0000000023e383dc       0x28 drivers/built-in.o
 .text.start_pass_main
                0x0000000023e38404      0x190 drivers/built-in.o
 .text.jinit_d_main_controller
                0x0000000023e38594      0x1a4 drivers/built-in.o
                0x0000000023e38594                jinit_d_main_controller
 .text.start_iMCU_row
                0x0000000023e38738       0x44 drivers/built-in.o
 .text.dummy_consume_data
                0x0000000023e3877c        0x8 drivers/built-in.o
 .text.consume_data
                0x0000000023e38784      0x1f4 drivers/built-in.o
 .text.decompress_data
                0x0000000023e38978      0x19c drivers/built-in.o
 .text.start_output_pass
                0x0000000023e38b14      0x148 drivers/built-in.o
 .text.decompress_onepass
                0x0000000023e38c5c      0x264 drivers/built-in.o
 .text.decompress_smooth_data
                0x0000000023e38ec0      0x6c4 drivers/built-in.o
 .text.jinit_d_coef_controller
                0x0000000023e39584      0x154 drivers/built-in.o
                0x0000000023e39584                jinit_d_coef_controller
 .text.start_pass_dpost
                0x0000000023e396d8       0xf4 drivers/built-in.o
 .text.post_process_1pass
                0x0000000023e397cc       0x90 drivers/built-in.o
 .text.post_process_prepass
                0x0000000023e3985c       0xf0 drivers/built-in.o
 .text.post_process_2pass
                0x0000000023e3994c       0xd4 drivers/built-in.o
 .text.jinit_d_post_controller
                0x0000000023e39a20       0xc0 drivers/built-in.o
                0x0000000023e39a20                jinit_d_post_controller
 .text.get_sof  0x0000000023e39ae0      0x414 drivers/built-in.o
 .text.examine_app0
                0x0000000023e39ef4      0x228 drivers/built-in.o
 .text.skip_variable
                0x0000000023e3a11c       0xcc drivers/built-in.o
 .text.next_marker
                0x0000000023e3a1e8       0xec drivers/built-in.o
 .text.reset_marker_reader
                0x0000000023e3a2d4       0x28 drivers/built-in.o
 .text.get_dht  0x0000000023e3a2fc      0x334 drivers/built-in.o
 .text.read_markers
                0x0000000023e3a630     0x1220 drivers/built-in.o
 .text.examine_app14
                0x0000000023e3b850       0xd4 drivers/built-in.o
 .text.get_interesting_appn
                0x0000000023e3b924      0x160 drivers/built-in.o
 .text.read_restart_marker
                0x0000000023e3ba84       0xa0 drivers/built-in.o
 .text.jpeg_resync_to_restart
                0x0000000023e3bb24      0x100 drivers/built-in.o
                0x0000000023e3bb24                jpeg_resync_to_restart
 .text.jinit_marker_reader
                0x0000000023e3bc24       0x8c drivers/built-in.o
                0x0000000023e3bc24                jinit_marker_reader
 .text.jpeg_fill_bit_buffer
                0x0000000023e3bcb0      0x12c drivers/built-in.o
 .text.jpeg_huff_decode
                0x0000000023e3bddc       0xf4 drivers/built-in.o
 .text.finish_pass_huff
                0x0000000023e3bed0       0x30 drivers/built-in.o
 .text.process_restart
                0x0000000023e3bf00      0x164 drivers/built-in.o
 .text.decode_mcu_DC_first
                0x0000000023e3c064      0x414 drivers/built-in.o
 .text.decode_mcu_AC_first
                0x0000000023e3c478      0x420 drivers/built-in.o
 .text.decode_mcu_DC_refine
                0x0000000023e3c898      0x180 drivers/built-in.o
 .text.decode_mcu_AC_refine
                0x0000000023e3ca18      0x5dc drivers/built-in.o
 .text.decode_mcu_sub
                0x0000000023e3cff4      0x498 drivers/built-in.o
 .text.decode_mcu
                0x0000000023e3d48c      0x7c8 drivers/built-in.o
 .text.jpeg_make_d_derived_tbl
                0x0000000023e3dc54      0x31c drivers/built-in.o
 .text.start_pass_huff_decoder
                0x0000000023e3df70      0x534 drivers/built-in.o
 .text.jinit_huff_decoder
                0x0000000023e3e4a4       0xd8 drivers/built-in.o
                0x0000000023e3e4a4                jinit_huff_decoder
 .text.get_byte
                0x0000000023e3e57c       0x60 drivers/built-in.o
 .text.arith_decode
                0x0000000023e3e5dc      0x148 drivers/built-in.o
 .text.finish_pass
                0x0000000023e3e724        0x4 drivers/built-in.o
 .text.start_pass
                0x0000000023e3e728      0x8a4 drivers/built-in.o
 .text.jinit_arith_decoder
                0x0000000023e3efcc       0xbc drivers/built-in.o
                0x0000000023e3efcc                jinit_arith_decoder
 .text.jinit_inverse_dct
                0x0000000023e3f088       0x80 drivers/built-in.o
                0x0000000023e3f088                jinit_inverse_dct
 .text.jpeg_idct_islow
                0x0000000023e3f108      0x448 drivers/built-in.o
                0x0000000023e3f108                jpeg_idct_islow
 .text.jpeg_idct_7x7
                0x0000000023e3f550      0x350 drivers/built-in.o
                0x0000000023e3f550                jpeg_idct_7x7
 .text.jpeg_idct_6x6
                0x0000000023e3f8a0      0x228 drivers/built-in.o
                0x0000000023e3f8a0                jpeg_idct_6x6
 .text.jpeg_idct_5x5
                0x0000000023e3fac8      0x1f0 drivers/built-in.o
                0x0000000023e3fac8                jpeg_idct_5x5
 .text.jpeg_idct_4x4
                0x0000000023e3fcb8      0x180 drivers/built-in.o
                0x0000000023e3fcb8                jpeg_idct_4x4
 .text.jpeg_idct_3x3
                0x0000000023e3fe38      0x130 drivers/built-in.o
                0x0000000023e3fe38                jpeg_idct_3x3
 .text.jpeg_idct_2x2
                0x0000000023e3ff68       0xac drivers/built-in.o
                0x0000000023e3ff68                jpeg_idct_2x2
 .text.jpeg_idct_1x1
                0x0000000023e40014       0x34 drivers/built-in.o
                0x0000000023e40014                jpeg_idct_1x1
 .text.jpeg_idct_9x9
                0x0000000023e40048      0x3e0 drivers/built-in.o
                0x0000000023e40048                jpeg_idct_9x9
 .text.jpeg_idct_10x10
                0x0000000023e40428      0x438 drivers/built-in.o
                0x0000000023e40428                jpeg_idct_10x10
 .text.jpeg_idct_11x11
                0x0000000023e40860      0x584 drivers/built-in.o
                0x0000000023e40860                jpeg_idct_11x11
 .text.jpeg_idct_12x12
                0x0000000023e40de4      0x50c drivers/built-in.o
                0x0000000023e40de4                jpeg_idct_12x12
 .text.jpeg_idct_13x13
                0x0000000023e412f0      0x694 drivers/built-in.o
                0x0000000023e412f0                jpeg_idct_13x13
 .text.jpeg_idct_14x14
                0x0000000023e41984      0x5f4 drivers/built-in.o
                0x0000000023e41984                jpeg_idct_14x14
 .text.jpeg_idct_15x15
                0x0000000023e41f78      0x674 drivers/built-in.o
                0x0000000023e41f78                jpeg_idct_15x15
 .text.jpeg_idct_16x16
                0x0000000023e425ec      0x754 drivers/built-in.o
                0x0000000023e425ec                jpeg_idct_16x16
 .text.jpeg_idct_16x8
                0x0000000023e42d40      0x5dc drivers/built-in.o
                0x0000000023e42d40                jpeg_idct_16x8
 .text.jpeg_idct_14x7
                0x0000000023e4331c      0x4c4 drivers/built-in.o
                0x0000000023e4331c                jpeg_idct_14x7
 .text.jpeg_idct_12x6
                0x0000000023e437e0      0x3b0 drivers/built-in.o
                0x0000000023e437e0                jpeg_idct_12x6
 .text.jpeg_idct_10x5
                0x0000000023e43b90      0x310 drivers/built-in.o
                0x0000000023e43b90                jpeg_idct_10x5
 .text.jpeg_idct_8x4
                0x0000000023e43ea0      0x294 drivers/built-in.o
                0x0000000023e43ea0                jpeg_idct_8x4
 .text.jpeg_idct_6x3
                0x0000000023e44134      0x1a0 drivers/built-in.o
                0x0000000023e44134                jpeg_idct_6x3
 .text.jpeg_idct_4x2
                0x0000000023e442d4      0x118 drivers/built-in.o
                0x0000000023e442d4                jpeg_idct_4x2
 .text.jpeg_idct_2x1
                0x0000000023e443ec       0x5c drivers/built-in.o
                0x0000000023e443ec                jpeg_idct_2x1
 .text.jpeg_idct_8x16
                0x0000000023e44448      0x5a0 drivers/built-in.o
                0x0000000023e44448                jpeg_idct_8x16
 .text.jpeg_idct_7x14
                0x0000000023e449e8      0x4ac drivers/built-in.o
                0x0000000023e449e8                jpeg_idct_7x14
 .text.jpeg_idct_6x12
                0x0000000023e44e94      0x3a4 drivers/built-in.o
                0x0000000023e44e94                jpeg_idct_6x12
 .text.jpeg_idct_5x10
                0x0000000023e45238      0x310 drivers/built-in.o
                0x0000000023e45238                jpeg_idct_5x10
 .text.jpeg_idct_4x8
                0x0000000023e45548      0x2ec drivers/built-in.o
                0x0000000023e45548                jpeg_idct_4x8
 .text.jpeg_idct_3x6
                0x0000000023e45834      0x1ac drivers/built-in.o
                0x0000000023e45834                jpeg_idct_3x6
 .text.jpeg_idct_2x4
                0x0000000023e459e0      0x118 drivers/built-in.o
                0x0000000023e459e0                jpeg_idct_2x4
 .text.jpeg_idct_1x2
                0x0000000023e45af8       0x5c drivers/built-in.o
                0x0000000023e45af8                jpeg_idct_1x2
 .text.jpeg_idct_ifast
                0x0000000023e45b54      0x380 drivers/built-in.o
                0x0000000023e45b54                jpeg_idct_ifast
 .text.jpeg_idct_float
                0x0000000023e45ed4      0x640 drivers/built-in.o
                0x0000000023e45ed4                jpeg_idct_float
 .text.start_pass_upsample
                0x0000000023e46514       0x18 drivers/built-in.o
 .text.sep_upsample
                0x0000000023e4652c      0x114 drivers/built-in.o
 .text.fullsize_upsample
                0x0000000023e46640        0x8 drivers/built-in.o
 .text.noop_upsample
                0x0000000023e46648        0xc drivers/built-in.o
 .text.h2v1_upsample
                0x0000000023e46654       0x44 drivers/built-in.o
 .text.int_upsample
                0x0000000023e46698       0xac drivers/built-in.o
 .text.h2v2_upsample
                0x0000000023e46744       0x7c drivers/built-in.o
 .text.jinit_upsampler
                0x0000000023e467c0      0x1e8 drivers/built-in.o
                0x0000000023e467c0                jinit_upsampler
 .text.build_ycc_rgb_table
                0x0000000023e469a8      0x100 drivers/built-in.o
 .text.ycc_rgb_convert
                0x0000000023e46aa8       0xe8 drivers/built-in.o
 .text.rgb_gray_convert
                0x0000000023e46b90       0x84 drivers/built-in.o
 .text.rgb1_rgb_convert
                0x0000000023e46c14       0x78 drivers/built-in.o
 .text.rgb1_gray_convert
                0x0000000023e46c8c       0xa0 drivers/built-in.o
 .text.rgb_convert
                0x0000000023e46d2c       0x68 drivers/built-in.o
 .text.null_convert
                0x0000000023e46d94       0x64 drivers/built-in.o
 .text.gray_rgb_convert
                0x0000000023e46df8       0x4c drivers/built-in.o
 .text.ycck_cmyk_convert
                0x0000000023e46e44      0x10c drivers/built-in.o
 .text.start_pass_dcolor
                0x0000000023e46f50        0x4 drivers/built-in.o
 .text.grayscale_convert
                0x0000000023e46f54       0x34 drivers/built-in.o
 .text.jinit_color_deconverter
                0x0000000023e46f88      0x424 drivers/built-in.o
                0x0000000023e46f88                jinit_color_deconverter
 .text.start_pass_merged_upsample
                0x0000000023e473ac       0x18 drivers/built-in.o
 .text.merged_1v_upsample
                0x0000000023e473c4       0x44 drivers/built-in.o
 .text.h2v1_merged_upsample
                0x0000000023e47408      0x17c drivers/built-in.o
 .text.h2v2_merged_upsample
                0x0000000023e47584      0x218 drivers/built-in.o
 .text.merged_2v_upsample
                0x0000000023e4779c       0xd8 drivers/built-in.o
 .text.jinit_merged_upsampler
                0x0000000023e47874      0x290 drivers/built-in.o
                0x0000000023e47874                jinit_merged_upsampler
 .text.color_quantize
                0x0000000023e47b04       0x8c drivers/built-in.o
 .text.color_quantize3
                0x0000000023e47b90       0x64 drivers/built-in.o
 .text.quantize3_ord_dither
                0x0000000023e47bf4      0x10c drivers/built-in.o
 .text.alloc_fs_workspace
                0x0000000023e47d00       0x50 drivers/built-in.o
 .text.finish_pass_1_quant
                0x0000000023e47d50        0x4 drivers/built-in.o
 .text.new_color_map_1_quant
                0x0000000023e47d54       0x14 drivers/built-in.o
 .text.quantize_fs_dither
                0x0000000023e47d68      0x1f8 drivers/built-in.o
 .text.quantize_ord_dither
                0x0000000023e47f60      0x10c drivers/built-in.o
 .text.create_colorindex
                0x0000000023e4806c      0x144 drivers/built-in.o
 .text.start_pass_1_quant
                0x0000000023e481b0      0x220 drivers/built-in.o
 .text.jinit_1pass_quantizer
                0x0000000023e483d0      0x328 drivers/built-in.o
                0x0000000023e483d0                jinit_1pass_quantizer
 .text.prescan_quantize
                0x0000000023e486f8       0x7c drivers/built-in.o
 .text.init_error_limit
                0x0000000023e48774       0x9c drivers/built-in.o
 .text.finish_pass2
                0x0000000023e48810        0x4 drivers/built-in.o
 .text.new_color_map_2_quant
                0x0000000023e48814       0x10 drivers/built-in.o
 .text.start_pass_2_quant
                0x0000000023e48824      0x16c drivers/built-in.o
 .text.update_box.isra.0
                0x0000000023e48990      0x37c drivers/built-in.o
 .text.fill_inverse_cmap
                0x0000000023e48d0c      0x3fc drivers/built-in.o
 .text.pass2_no_dither
                0x0000000023e49108       0xc4 drivers/built-in.o
 .text.pass2_fs_dither
                0x0000000023e491cc      0x344 drivers/built-in.o
 .text.finish_pass1
                0x0000000023e49510      0x3a8 drivers/built-in.o
 .text.jinit_2pass_quantizer
                0x0000000023e498b8      0x184 drivers/built-in.o
                0x0000000023e498b8                jinit_2pass_quantizer
 .text.init_mem_source
                0x0000000023e49a3c        0x4 drivers/built-in.o
 .text.fill_mem_input_buffer
                0x0000000023e49a40       0x40 drivers/built-in.o
 .text.skip_input_data
                0x0000000023e49a80       0x4c drivers/built-in.o
 .text.term_source
                0x0000000023e49acc        0x4 drivers/built-in.o
 .text.jpeg_mem_src
                0x0000000023e49ad0       0x9c drivers/built-in.o
                0x0000000023e49ad0                jpeg_mem_src
 .text.emit_message
                0x0000000023e49b6c       0x60 drivers/built-in.o
 .text.reset_error_mgr
                0x0000000023e49bcc       0x14 drivers/built-in.o
 .text.format_message
                0x0000000023e49be0       0xec drivers/built-in.o
 .text.output_message
                0x0000000023e49ccc       0x30 drivers/built-in.o
 .text.error_exit
                0x0000000023e49cfc       0x20 drivers/built-in.o
 .text.jpeg_std_error
                0x0000000023e49d1c       0x70 drivers/built-in.o
                0x0000000023e49d1c                jpeg_std_error
 .text.out_of_memory
                0x0000000023e49d8c       0x18 drivers/built-in.o
 .text.do_barray_io
                0x0000000023e49da4       0xbc drivers/built-in.o
 .text.alloc_small
                0x0000000023e49e60      0x154 drivers/built-in.o
 .text.request_virt_barray
                0x0000000023e49fb4       0x78 drivers/built-in.o
 .text.request_virt_sarray
                0x0000000023e4a02c       0x78 drivers/built-in.o
 .text.free_pool
                0x0000000023e4a0a4      0x138 drivers/built-in.o
 .text.self_destruct
                0x0000000023e4a1dc       0x40 drivers/built-in.o
 .text.access_virt_barray
                0x0000000023e4a21c      0x1c0 drivers/built-in.o
 .text.alloc_large
                0x0000000023e4a3dc       0xac drivers/built-in.o
 .text.alloc_barray
                0x0000000023e4a488       0xc0 drivers/built-in.o
 .text.alloc_sarray
                0x0000000023e4a548       0xc0 drivers/built-in.o
 .text.realize_virt_arrays
                0x0000000023e4a608      0x208 drivers/built-in.o
 .text.access_virt_sarray
                0x0000000023e4a810      0x2ec drivers/built-in.o
 .text.jinit_memory_mgr
                0x0000000023e4aafc      0x110 drivers/built-in.o
                0x0000000023e4aafc                jinit_memory_mgr
 .text.jdiv_round_up
                0x0000000023e4ac0c       0x14 drivers/built-in.o
                0x0000000023e4ac0c                jdiv_round_up
 .text.jround_up
                0x0000000023e4ac20       0x1c drivers/built-in.o
                0x0000000023e4ac20                jround_up
 .text.jcopy_sample_rows
                0x0000000023e4ac3c       0x30 drivers/built-in.o
                0x0000000023e4ac3c                jcopy_sample_rows
 .text.jcopy_block_row
                0x0000000023e4ac6c       0x14 drivers/built-in.o
                0x0000000023e4ac6c                jcopy_block_row
 .text.jpeg_get_small
                0x0000000023e4ac80        0x8 drivers/built-in.o
                0x0000000023e4ac80                jpeg_get_small
 .text.jpeg_free_small
                0x0000000023e4ac88        0x8 drivers/built-in.o
                0x0000000023e4ac88                jpeg_free_small
 .text.jpeg_get_large
                0x0000000023e4ac90        0x8 drivers/built-in.o
                0x0000000023e4ac90                jpeg_get_large
 .text.jpeg_free_large
                0x0000000023e4ac98        0x8 drivers/built-in.o
                0x0000000023e4ac98                jpeg_free_large
 .text.jpeg_mem_available
                0x0000000023e4aca0        0x8 drivers/built-in.o
                0x0000000023e4aca0                jpeg_mem_available
 .text.jpeg_open_backing_store
                0x0000000023e4aca8       0x14 drivers/built-in.o
                0x0000000023e4aca8                jpeg_open_backing_store
 .text.jpeg_mem_init
                0x0000000023e4acbc        0x8 drivers/built-in.o
                0x0000000023e4acbc                jpeg_mem_init
 .text.jpeg_mem_term
                0x0000000023e4acc4        0x4 drivers/built-in.o
                0x0000000023e4acc4                jpeg_mem_term
 .text.i2c_get_adapter
                0x0000000023e4acc8       0x60 drivers/i2c/built-in.o
                0x0000000023e4acc8                i2c_get_adapter
 .text.i2c_init_bus
                0x0000000023e4ad28       0x90 drivers/i2c/built-in.o
 .text.i2c_get_bus_num
                0x0000000023e4adb8        0x8 drivers/i2c/built-in.o
                0x0000000023e4adb8                i2c_get_bus_num
 .text.i2c_set_bus_num
                0x0000000023e4adc0       0xb8 drivers/i2c/built-in.o
                0x0000000023e4adc0                i2c_set_bus_num
 .text.i2c_init_all
                0x0000000023e4ae78       0x14 drivers/i2c/built-in.o
                0x0000000023e4ae78                i2c_init_all
 .text.i2c_probe
                0x0000000023e4ae8c       0x2c drivers/i2c/built-in.o
                0x0000000023e4ae8c                i2c_probe
 .text.i2c_read
                0x0000000023e4aeb8       0x4c drivers/i2c/built-in.o
                0x0000000023e4aeb8                i2c_read
 .text.i2c_write
                0x0000000023e4af04       0x4c drivers/i2c/built-in.o
                0x0000000023e4af04                i2c_write
 .text.i2c_set_bus_speed
                0x0000000023e4af50       0x64 drivers/i2c/built-in.o
                0x0000000023e4af50                i2c_set_bus_speed
 .text.i2c_get_bus_speed
                0x0000000023e4afb4       0x14 drivers/i2c/built-in.o
                0x0000000023e4afb4                i2c_get_bus_speed
 .text.i2c_init
                0x0000000023e4afc8       0x14 drivers/i2c/built-in.o
                0x0000000023e4afc8                i2c_init
 .text.mmc_set_ios
                0x0000000023e4afdc       0x18 drivers/mmc/built-in.o
 .text.mmc_set_capacity
                0x0000000023e4aff4       0xc4 drivers/mmc/built-in.o
 .text.board_mmc_getwp
                0x0000000023e4b0b8        0x8 drivers/mmc/built-in.o
                0x0000000023e4b0b8                board_mmc_getwp
 .text.mmc_getwp
                0x0000000023e4b0c0       0x3c drivers/mmc/built-in.o
                0x0000000023e4b0c0                mmc_getwp
 .text.board_mmc_getcd
                0x0000000023e4b0fc        0x8 drivers/mmc/built-in.o
                0x0000000023e4b0fc                board_mmc_getcd
 .text.mmc_send_cmd
                0x0000000023e4b104       0x10 drivers/mmc/built-in.o
                0x0000000023e4b104                mmc_send_cmd
 .text.mmc_go_idle
                0x0000000023e4b114       0x4c drivers/mmc/built-in.o
 .text.mmc_send_op_cond_iter
                0x0000000023e4b160       0x80 drivers/mmc/built-in.o
 .text.mmc_send_ext_csd
                0x0000000023e4b1e0       0x4c drivers/mmc/built-in.o
 .text.mmc_send_status
                0x0000000023e4b22c       0xd8 drivers/mmc/built-in.o
                0x0000000023e4b22c                mmc_send_status
 .text.mmc_set_blocklen
                0x0000000023e4b304       0x40 drivers/mmc/built-in.o
                0x0000000023e4b304                mmc_set_blocklen
 .text.find_mmc_device
                0x0000000023e4b344       0x50 drivers/mmc/built-in.o
                0x0000000023e4b344                find_mmc_device
 .text.mmc_bread
                0x0000000023e4b394      0x140 drivers/mmc/built-in.o
 .text.mmc_switch_part
                0x0000000023e4b4d4       0x28 drivers/mmc/built-in.o
                0x0000000023e4b4d4                mmc_switch_part
 .text.mmc_select_hwpart
                0x0000000023e4b4fc       0x6c drivers/mmc/built-in.o
                0x0000000023e4b4fc                mmc_select_hwpart
 .text.mmc_getcd
                0x0000000023e4b568       0x3c drivers/mmc/built-in.o
                0x0000000023e4b568                mmc_getcd
 .text.mmc_set_clock
                0x0000000023e4b5a4       0x24 drivers/mmc/built-in.o
                0x0000000023e4b5a4                mmc_set_clock
 .text.mmc_startup
                0x0000000023e4b5c8      0xb08 drivers/mmc/built-in.o
 .text.mmc_create
                0x0000000023e4c0d0       0xf8 drivers/mmc/built-in.o
                0x0000000023e4c0d0                mmc_create
 .text.board_mmc_power_init
                0x0000000023e4c1c8        0x4 drivers/mmc/built-in.o
                0x0000000023e4c1c8                board_mmc_power_init
 .text.mmc_start_init
                0x0000000023e4c1cc      0x280 drivers/mmc/built-in.o
                0x0000000023e4c1cc                mmc_start_init
 .text.mmc_init
                0x0000000023e4c44c      0x100 drivers/mmc/built-in.o
                0x0000000023e4c44c                mmc_init
 .text.mmc_get_dev
                0x0000000023e4c54c       0x2c drivers/mmc/built-in.o
                0x0000000023e4c54c                mmc_get_dev
 .text.mmc_set_dsr
                0x0000000023e4c578        0xc drivers/mmc/built-in.o
                0x0000000023e4c578                mmc_set_dsr
 .text.cpu_mmc_init
                0x0000000023e4c584        0x8 drivers/mmc/built-in.o
                0x0000000023e4c584                cpu_mmc_init
 .text.print_mmc_devices
                0x0000000023e4c58c       0x84 drivers/mmc/built-in.o
                0x0000000023e4c58c                print_mmc_devices
 .text.get_mmc_num
                0x0000000023e4c610       0x10 drivers/mmc/built-in.o
                0x0000000023e4c610                get_mmc_num
 .text.mmc_initialize
                0x0000000023e4c620       0x74 drivers/mmc/built-in.o
                0x0000000023e4c620                mmc_initialize
 .text.mmc_berase
                0x0000000023e4c694      0x17c drivers/mmc/built-in.o
                0x0000000023e4c694                mmc_berase
 .text.mmc_bwrite
                0x0000000023e4c810      0x150 drivers/mmc/built-in.o
                0x0000000023e4c810                mmc_bwrite
 .text.idr_get_next
                0x0000000023e4c960       0x44 drivers/mtd/built-in.o
                0x0000000023e4c960                idr_get_next
 .text.__mtd_next_device
                0x0000000023e4c9a4       0x20 drivers/mtd/built-in.o
                0x0000000023e4c9a4                __mtd_next_device
 .text.del_mtd_device
                0x0000000023e4c9c4       0x64 drivers/mtd/built-in.o
                0x0000000023e4c9c4                del_mtd_device
 .text.__get_mtd_device
                0x0000000023e4ca28       0x38 drivers/mtd/built-in.o
                0x0000000023e4ca28                __get_mtd_device
 .text.get_mtd_device
                0x0000000023e4ca60       0x9c drivers/mtd/built-in.o
                0x0000000023e4ca60                get_mtd_device
 .text.get_mtd_device_nm
                0x0000000023e4cafc       0x5c drivers/mtd/built-in.o
                0x0000000023e4cafc                get_mtd_device_nm
 .text.__put_mtd_device
                0x0000000023e4cb58       0x4c drivers/mtd/built-in.o
                0x0000000023e4cb58                __put_mtd_device
 .text.put_mtd_device
                0x0000000023e4cba4        0x4 drivers/mtd/built-in.o
                0x0000000023e4cba4                put_mtd_device
 .text.mtd_erase
                0x0000000023e4cba8       0x88 drivers/mtd/built-in.o
                0x0000000023e4cba8                mtd_erase
 .text.mtd_read
                0x0000000023e4cc30       0xb0 drivers/mtd/built-in.o
                0x0000000023e4cc30                mtd_read
 .text.mtd_write
                0x0000000023e4cce0       0x98 drivers/mtd/built-in.o
                0x0000000023e4cce0                mtd_write
 .text.mtd_read_oob
                0x0000000023e4cd78       0x60 drivers/mtd/built-in.o
                0x0000000023e4cd78                mtd_read_oob
 .text.mtd_unlock
                0x0000000023e4cdd8       0x7c drivers/mtd/built-in.o
                0x0000000023e4cdd8                mtd_unlock
 .text.add_mtd_device
                0x0000000023e4ce54      0x1cc drivers/mtd/built-in.o
                0x0000000023e4ce54                add_mtd_device
 .text.mtd_block_isbad
                0x0000000023e4d020       0x4c drivers/mtd/built-in.o
                0x0000000023e4d020                mtd_block_isbad
 .text.mtd_block_markbad
                0x0000000023e4d06c       0x64 drivers/mtd/built-in.o
                0x0000000023e4d06c                mtd_block_markbad
 .text.part_read
                0x0000000023e4d0d0       0x88 drivers/mtd/built-in.o
 .text.part_get_unmapped_area
                0x0000000023e4d158       0x24 drivers/mtd/built-in.o
 .text.part_read_user_prot_reg
                0x0000000023e4d17c        0xc drivers/mtd/built-in.o
 .text.part_get_user_prot_info
                0x0000000023e4d188       0x18 drivers/mtd/built-in.o
 .text.part_read_fact_prot_reg
                0x0000000023e4d1a0        0xc drivers/mtd/built-in.o
 .text.part_get_fact_prot_info
                0x0000000023e4d1ac       0x18 drivers/mtd/built-in.o
 .text.part_write
                0x0000000023e4d1c4       0x28 drivers/mtd/built-in.o
 .text.part_panic_write
                0x0000000023e4d1ec       0x28 drivers/mtd/built-in.o
 .text.part_write_oob
                0x0000000023e4d214       0x74 drivers/mtd/built-in.o
 .text.part_write_user_prot_reg
                0x0000000023e4d288        0xc drivers/mtd/built-in.o
 .text.part_lock_user_prot_reg
                0x0000000023e4d294        0xc drivers/mtd/built-in.o
 .text.part_lock
                0x0000000023e4d2a0       0x28 drivers/mtd/built-in.o
 .text.part_unlock
                0x0000000023e4d2c8       0x28 drivers/mtd/built-in.o
 .text.part_is_locked
                0x0000000023e4d2f0       0x28 drivers/mtd/built-in.o
 .text.part_sync
                0x0000000023e4d318        0xc drivers/mtd/built-in.o
 .text.part_block_isbad
                0x0000000023e4d324       0x28 drivers/mtd/built-in.o
 .text.part_block_markbad
                0x0000000023e4d34c       0x38 drivers/mtd/built-in.o
 .text.part_read_oob
                0x0000000023e4d384      0x194 drivers/mtd/built-in.o
 .text.part_erase
                0x0000000023e4d518       0x8c drivers/mtd/built-in.o
 .text.kstrdup  0x0000000023e4d5a4       0x44 drivers/mtd/built-in.o
                0x0000000023e4d5a4                kstrdup
 .text.mtd_erase_callback
                0x0000000023e4d5e8       0x90 drivers/mtd/built-in.o
                0x0000000023e4d5e8                mtd_erase_callback
 .text.del_mtd_partitions
                0x0000000023e4d678       0x90 drivers/mtd/built-in.o
                0x0000000023e4d678                del_mtd_partitions
 .text.add_mtd_partitions
                0x0000000023e4d708      0x738 drivers/mtd/built-in.o
                0x0000000023e4d708                add_mtd_partitions
 .text.mtd_is_partition
                0x0000000023e4de40       0x3c drivers/mtd/built-in.o
                0x0000000023e4de40                mtd_is_partition
 .text.mtd_get_device_size
                0x0000000023e4de7c       0x28 drivers/mtd/built-in.o
                0x0000000023e4de7c                mtd_get_device_size
 .text.nand_register
                0x0000000023e4dea4       0x90 drivers/mtd/nand/built-in.o
                0x0000000023e4dea4                nand_register
 .text.nand_init
                0x0000000023e4df34       0x94 drivers/mtd/nand/built-in.o
                0x0000000023e4df34                nand_init
 .text.verify_bbt_descr
                0x0000000023e4dfc8      0x1b8 drivers/mtd/nand/built-in.o
 .text.create_bbt
                0x0000000023e4e180      0x21c drivers/mtd/nand/built-in.o
 .text.scan_read
                0x0000000023e4e39c       0xfc drivers/mtd/nand/built-in.o
 .text.read_bbt
                0x0000000023e4e498      0x200 drivers/mtd/nand/built-in.o
 .text.read_abs_bbt
                0x0000000023e4e698       0xe4 drivers/mtd/nand/built-in.o
 .text.write_bbt
                0x0000000023e4e77c      0x5d8 drivers/mtd/nand/built-in.o
 .text.nand_update_bbt
                0x0000000023e4ed54      0x130 drivers/mtd/nand/built-in.o
 .text.mark_bbt_region
                0x0000000023e4ee84      0x1d0 drivers/mtd/nand/built-in.o
 .text.search_bbt
                0x0000000023e4f054      0x1f4 drivers/mtd/nand/built-in.o
 .text.nand_scan_bbt
                0x0000000023e4f248      0x4fc drivers/mtd/nand/built-in.o
                0x0000000023e4f248                nand_scan_bbt
 .text.nand_default_bbt
                0x0000000023e4f744       0xc4 drivers/mtd/nand/built-in.o
                0x0000000023e4f744                nand_default_bbt
 .text.nand_isbad_bbt
                0x0000000023e4f808       0x54 drivers/mtd/nand/built-in.o
                0x0000000023e4f808                nand_isbad_bbt
 .text.nand_markbad_bbt
                0x0000000023e4f85c       0x58 drivers/mtd/nand/built-in.o
                0x0000000023e4f85c                nand_markbad_bbt
 .text.check_skip_len
                0x0000000023e4f8b4       0xa8 drivers/mtd/nand/built-in.o
 .text.nand_erase_opts
                0x0000000023e4f95c      0x394 drivers/mtd/nand/built-in.o
                0x0000000023e4f95c                nand_erase_opts
 .text.nand_write_skip_bad
                0x0000000023e4fcf0      0x254 drivers/mtd/nand/built-in.o
                0x0000000023e4fcf0                nand_write_skip_bad
 .text.nand_read_skip_bad
                0x0000000023e4ff44      0x254 drivers/mtd/nand/built-in.o
                0x0000000023e4ff44                nand_read_skip_bad
 .text.nand_calculate_ecc
                0x0000000023e50198      0x128 drivers/mtd/nand/built-in.o
                0x0000000023e50198                nand_calculate_ecc
 .text.nand_correct_data
                0x0000000023e502c0      0x120 drivers/mtd/nand/built-in.o
                0x0000000023e502c0                nand_correct_data
 .text.nand_release_device
                0x0000000023e503e0       0x10 drivers/mtd/nand/built-in.o
 .text.nand_read_byte
                0x0000000023e503f0       0x14 drivers/mtd/nand/built-in.o
                0x0000000023e503f0                nand_read_byte
 .text.nand_read_byte16
                0x0000000023e50404       0x18 drivers/mtd/nand/built-in.o
 .text.nand_read_word
                0x0000000023e5041c       0x14 drivers/mtd/nand/built-in.o
 .text.nand_write_byte
                0x0000000023e50430       0x24 drivers/mtd/nand/built-in.o
 .text.nand_write_byte16
                0x0000000023e50454       0x24 drivers/mtd/nand/built-in.o
 .text.nand_write_buf
                0x0000000023e50478       0x24 drivers/mtd/nand/built-in.o
                0x0000000023e50478                nand_write_buf
 .text.nand_read_buf
                0x0000000023e5049c       0x28 drivers/mtd/nand/built-in.o
                0x0000000023e5049c                nand_read_buf
 .text.nand_write_buf16
                0x0000000023e504c4       0x2c drivers/mtd/nand/built-in.o
                0x0000000023e504c4                nand_write_buf16
 .text.nand_read_buf16
                0x0000000023e504f0       0x30 drivers/mtd/nand/built-in.o
                0x0000000023e504f0                nand_read_buf16
 .text.nand_block_bad
                0x0000000023e50520      0x1bc drivers/mtd/nand/built-in.o
 .text.nand_check_wp
                0x0000000023e506dc       0x50 drivers/mtd/nand/built-in.o
 .text.nand_read_page_raw_syndrome
                0x0000000023e5072c       0xd4 drivers/mtd/nand/built-in.o
 .text.nand_read_page_swecc
                0x0000000023e50800      0x138 drivers/mtd/nand/built-in.o
 .text.nand_read_subpage
                0x0000000023e50938      0x284 drivers/mtd/nand/built-in.o
 .text.nand_read_page_hwecc
                0x0000000023e50bbc      0x158 drivers/mtd/nand/built-in.o
 .text.nand_read_page_hwecc_oob_first
                0x0000000023e50d14      0x150 drivers/mtd/nand/built-in.o
 .text.nand_read_page_syndrome
                0x0000000023e50e64      0x144 drivers/mtd/nand/built-in.o
 .text.nand_setup_read_retry
                0x0000000023e50fa8       0x30 drivers/mtd/nand/built-in.o
 .text.nand_read_oob_std
                0x0000000023e50fd8       0x3c drivers/mtd/nand/built-in.o
 .text.nand_read_oob_syndrome
                0x0000000023e51014      0x104 drivers/mtd/nand/built-in.o
 .text.nand_write_oob_std
                0x0000000023e51118       0x70 drivers/mtd/nand/built-in.o
 .text.nand_write_oob_syndrome
                0x0000000023e51188      0x18c drivers/mtd/nand/built-in.o
 .text.nand_write_page_raw_syndrome
                0x0000000023e51314       0xd4 drivers/mtd/nand/built-in.o
 .text.nand_write_page_swecc
                0x0000000023e513e8       0xb8 drivers/mtd/nand/built-in.o
 .text.nand_write_page_hwecc
                0x0000000023e514a0       0xc8 drivers/mtd/nand/built-in.o
 .text.nand_write_page_syndrome
                0x0000000023e51568       0xf4 drivers/mtd/nand/built-in.o
 .text.nand_write_page
                0x0000000023e5165c      0x13c drivers/mtd/nand/built-in.o
 .text.single_erase_cmd
                0x0000000023e51798       0x40 drivers/mtd/nand/built-in.o
 .text.nand_sync
                0x0000000023e517d8       0x10 drivers/mtd/nand/built-in.o
 .text.nand_onfi_set_features
                0x0000000023e517e8       0x5c drivers/mtd/nand/built-in.o
 .text.nand_set_defaults
                0x0000000023e51844      0x18c drivers/mtd/nand/built-in.o
 .text.nand_block_checkbad
                0x0000000023e519d0       0x80 drivers/mtd/nand/built-in.o
 .text.nand_block_isbad
                0x0000000023e51a50       0x1c drivers/mtd/nand/built-in.o
 .text.nand_onfi_get_features
                0x0000000023e51a6c       0x60 drivers/mtd/nand/built-in.o
 .text.nand_write_subpage_hwecc
                0x0000000023e51acc      0x178 drivers/mtd/nand/built-in.o
 .text.nand_fill_oob
                0x0000000023e51c44      0x118 drivers/mtd/nand/built-in.o
 .text.nand_do_write_oob
                0x0000000023e51d5c      0x1c0 drivers/mtd/nand/built-in.o
 .text.nand_default_block_markbad
                0x0000000023e51f1c       0xd0 drivers/mtd/nand/built-in.o
 .text.nand_do_write_ops
                0x0000000023e51fec      0x388 drivers/mtd/nand/built-in.o
 .text.nand_write_oob
                0x0000000023e52374       0xa4 drivers/mtd/nand/built-in.o
 .text.nand_write
                0x0000000023e52418       0x64 drivers/mtd/nand/built-in.o
 .text.nand_wait
                0x0000000023e5247c       0xdc drivers/mtd/nand/built-in.o
 .text.sanitize_string
                0x0000000023e52558       0x34 drivers/mtd/nand/built-in.o
 .text.generic_ffs
                0x0000000023e5258c       0x54 drivers/mtd/nand/built-in.o
 .text.generic_fls
                0x0000000023e525e0       0x58 drivers/mtd/nand/built-in.o
 .text.nand_read_page_raw
                0x0000000023e52638       0x44 drivers/mtd/nand/built-in.o
 .text.nand_write_page_raw
                0x0000000023e5267c       0x44 drivers/mtd/nand/built-in.o
 .text.nand_select_chip
                0x0000000023e526c0       0x50 drivers/mtd/nand/built-in.o
 .text.nand_transfer_oob
                0x0000000023e52710      0x104 drivers/mtd/nand/built-in.o
 .text.panic_nand_write
                0x0000000023e52814       0xb8 drivers/mtd/nand/built-in.o
 .text.nand_wait_ready
                0x0000000023e528cc       0x48 drivers/mtd/nand/built-in.o
                0x0000000023e528cc                nand_wait_ready
 .text.nand_command
                0x0000000023e52914      0x1f0 drivers/mtd/nand/built-in.o
 .text.nand_command_lp
                0x0000000023e52b04      0x260 drivers/mtd/nand/built-in.o
 .text.nand_do_read_ops
                0x0000000023e52d64      0x470 drivers/mtd/nand/built-in.o
 .text.nand_read_oob
                0x0000000023e531d4      0x2e0 drivers/mtd/nand/built-in.o
 .text.nand_read
                0x0000000023e534b4       0x64 drivers/mtd/nand/built-in.o
 .text.nand_erase_nand
                0x0000000023e53518      0x2c0 drivers/mtd/nand/built-in.o
                0x0000000023e53518                nand_erase_nand
 .text.nand_block_markbad
                0x0000000023e537d8       0xec drivers/mtd/nand/built-in.o
 .text.nand_erase
                0x0000000023e538c4        0x8 drivers/mtd/nand/built-in.o
 .text.nand_scan_ident
                0x0000000023e538cc      0xb58 drivers/mtd/nand/built-in.o
                0x0000000023e538cc                nand_scan_ident
 .text.nand_scan_tail
                0x0000000023e54424      0x594 drivers/mtd/nand/built-in.o
                0x0000000023e54424                nand_scan_tail
 .text.nand_scan
                0x0000000023e549b8       0x24 drivers/mtd/nand/built-in.o
                0x0000000023e549b8                nand_scan
 .text.add_to_list
                0x0000000023e549dc       0xd4 drivers/mtd/ubi/built-in.o
 .text.validate_vid_hdr
                0x0000000023e54ab0      0x134 drivers/mtd/ubi/built-in.o
 .text.destroy_ai
                0x0000000023e54be4      0x208 drivers/mtd/ubi/built-in.o
 .text.ubi_compare_lebs
                0x0000000023e54dec      0x24c drivers/mtd/ubi/built-in.o
                0x0000000023e54dec                ubi_compare_lebs
 .text.ubi_add_to_av
                0x0000000023e55038      0x49c drivers/mtd/ubi/built-in.o
                0x0000000023e55038                ubi_add_to_av
 .text.ubi_find_av
                0x0000000023e554d4       0x34 drivers/mtd/ubi/built-in.o
                0x0000000023e554d4                ubi_find_av
 .text.ubi_remove_av
                0x0000000023e55508       0x68 drivers/mtd/ubi/built-in.o
                0x0000000023e55508                ubi_remove_av
 .text.ubi_early_get_peb
                0x0000000023e55570      0x1bc drivers/mtd/ubi/built-in.o
                0x0000000023e55570                ubi_early_get_peb
 .text.ubi_attach
                0x0000000023e5572c     0x1190 drivers/mtd/ubi/built-in.o
                0x0000000023e5572c                ubi_attach
 .text.kill_volumes
                0x0000000023e568bc       0x38 drivers/mtd/ubi/built-in.o
 .text.ubi_volume_notify
                0x0000000023e568f4       0x34 drivers/mtd/ubi/built-in.o
                0x0000000023e568f4                ubi_volume_notify
 .text.ubi_notify_all
                0x0000000023e56928       0x5c drivers/mtd/ubi/built-in.o
                0x0000000023e56928                ubi_notify_all
 .text.ubi_get_device
                0x0000000023e56984       0x20 drivers/mtd/ubi/built-in.o
                0x0000000023e56984                ubi_get_device
 .text.ubi_free_internal_volumes
                0x0000000023e569a4       0x3c drivers/mtd/ubi/built-in.o
                0x0000000023e569a4                ubi_free_internal_volumes
 .text.ubi_attach_mtd_dev
                0x0000000023e569e0      0x844 drivers/mtd/ubi/built-in.o
                0x0000000023e569e0                ubi_attach_mtd_dev
 .text.ubi_detach_mtd_dev
                0x0000000023e57224      0x100 drivers/mtd/ubi/built-in.o
                0x0000000023e57224                ubi_detach_mtd_dev
 .text.ubi_init
                0x0000000023e57324      0x1c8 drivers/mtd/ubi/built-in.o
                0x0000000023e57324                ubi_init
 .text.ubi_exit
                0x0000000023e574ec       0x5c drivers/mtd/ubi/built-in.o
                0x0000000023e574ec                ubi_exit
 .text.kstrtoint
                0x0000000023e57548       0x24 drivers/mtd/ubi/built-in.o
                0x0000000023e57548                kstrtoint
 .text.ubi_mtd_param_parse
                0x0000000023e5756c      0x2dc drivers/mtd/ubi/built-in.o
                0x0000000023e5756c                ubi_mtd_param_parse
 .text.vtbl_check
                0x0000000023e57848      0x388 drivers/mtd/ubi/built-in.o
 .text.create_vtbl
                0x0000000023e57bd0      0x1e4 drivers/mtd/ubi/built-in.o
 .text.ubi_change_vtbl_record
                0x0000000023e57db4      0x12c drivers/mtd/ubi/built-in.o
                0x0000000023e57db4                ubi_change_vtbl_record
 .text.ubi_read_volume_table
                0x0000000023e57ee0      0x804 drivers/mtd/ubi/built-in.o
                0x0000000023e57ee0                ubi_read_volume_table
 .text.vol_release
                0x0000000023e586e4       0x1c drivers/mtd/ubi/built-in.o
 .text.self_check_volumes
                0x0000000023e58700      0x440 drivers/mtd/ubi/built-in.o
 .text.ubi_create_volume
                0x0000000023e58b40      0x4bc drivers/mtd/ubi/built-in.o
                0x0000000023e58b40                ubi_create_volume
 .text.ubi_resize_volume
                0x0000000023e58ffc      0x284 drivers/mtd/ubi/built-in.o
                0x0000000023e58ffc                ubi_resize_volume
 .text.ubi_add_volume
                0x0000000023e59280       0x40 drivers/mtd/ubi/built-in.o
                0x0000000023e59280                ubi_add_volume
 .text.ubi_free_volume
                0x0000000023e592c0       0x18 drivers/mtd/ubi/built-in.o
                0x0000000023e592c0                ubi_free_volume
 .text.clear_update_marker
                0x0000000023e592d8       0xd0 drivers/mtd/ubi/built-in.o
 .text.write_leb
                0x0000000023e593a8       0xb8 drivers/mtd/ubi/built-in.o
 .text.ubi_start_update
                0x0000000023e59460      0x168 drivers/mtd/ubi/built-in.o
                0x0000000023e59460                ubi_start_update
 .text.ubi_more_update_data
                0x0000000023e595c8      0x26c drivers/mtd/ubi/built-in.o
                0x0000000023e595c8                ubi_more_update_data
 .text.ubi_do_get_device_info
                0x0000000023e59834       0x34 drivers/mtd/ubi/built-in.o
                0x0000000023e59834                ubi_do_get_device_info
 .text.ubi_do_get_volume_info
                0x0000000023e59868       0x70 drivers/mtd/ubi/built-in.o
                0x0000000023e59868                ubi_do_get_volume_info
 .text.is_error_sane
                0x0000000023e598d8       0x2c drivers/mtd/ubi/built-in.o
 .text.ltree_lookup.isra.1
                0x0000000023e59904       0x3c drivers/mtd/ubi/built-in.o
 .text.leb_read_lock
                0x0000000023e59940       0xe4 drivers/mtd/ubi/built-in.o
 .text.leb_read_unlock
                0x0000000023e59a24       0x3c drivers/mtd/ubi/built-in.o
 .text.ubi_eba_unmap_leb
                0x0000000023e59a60       0x80 drivers/mtd/ubi/built-in.o
                0x0000000023e59a60                ubi_eba_unmap_leb
 .text.ubi_eba_read_leb
                0x0000000023e59ae0      0x26c drivers/mtd/ubi/built-in.o
                0x0000000023e59ae0                ubi_eba_read_leb
 .text.ubi_eba_write_leb
                0x0000000023e59d4c      0x66c drivers/mtd/ubi/built-in.o
                0x0000000023e59d4c                ubi_eba_write_leb
 .text.ubi_eba_write_leb_st
                0x0000000023e5a3b8      0x3b0 drivers/mtd/ubi/built-in.o
                0x0000000023e5a3b8                ubi_eba_write_leb_st
 .text.ubi_eba_copy_leb
                0x0000000023e5a768      0x3e8 drivers/mtd/ubi/built-in.o
                0x0000000023e5a768                ubi_eba_copy_leb
 .text.ubi_eba_init
                0x0000000023e5ab50      0x2ac drivers/mtd/ubi/built-in.o
                0x0000000023e5ab50                ubi_eba_init
 .text.erase_callback
                0x0000000023e5adfc        0x4 drivers/mtd/ubi/built-in.o
 .text.validate_ec_hdr
                0x0000000023e5ae00      0x134 drivers/mtd/ubi/built-in.o
 .text.self_check_ec_hdr.part.0
                0x0000000023e5af34       0x88 drivers/mtd/ubi/built-in.o
 .text.validate_vid_hdr.isra.1
                0x0000000023e5afbc      0x2b4 drivers/mtd/ubi/built-in.o
 .text.self_check_vid_hdr.part.2
                0x0000000023e5b270       0xa8 drivers/mtd/ubi/built-in.o
 .text.ubi_io_is_bad
                0x0000000023e5b318       0x50 drivers/mtd/ubi/built-in.o
                0x0000000023e5b318                ubi_io_is_bad
 .text.self_check_not_bad.part.3
                0x0000000023e5b368       0x3c drivers/mtd/ubi/built-in.o
 .text.ubi_io_read
                0x0000000023e5b3a4      0x13c drivers/mtd/ubi/built-in.o
                0x0000000023e5b3a4                ubi_io_read
 .text.self_check_peb_ec_hdr.part.5
                0x0000000023e5b4e0      0x110 drivers/mtd/ubi/built-in.o
 .text.ubi_io_mark_bad
                0x0000000023e5b5f0       0x74 drivers/mtd/ubi/built-in.o
                0x0000000023e5b5f0                ubi_io_mark_bad
 .text.ubi_io_read_ec_hdr
                0x0000000023e5b664      0x1c4 drivers/mtd/ubi/built-in.o
                0x0000000023e5b664                ubi_io_read_ec_hdr
 .text.ubi_io_read_vid_hdr
                0x0000000023e5b828      0x1c4 drivers/mtd/ubi/built-in.o
                0x0000000023e5b828                ubi_io_read_vid_hdr
 .text.ubi_self_check_all_ff
                0x0000000023e5b9ec      0x150 drivers/mtd/ubi/built-in.o
                0x0000000023e5b9ec                ubi_self_check_all_ff
 .text.ubi_io_write
                0x0000000023e5bb3c      0x3d4 drivers/mtd/ubi/built-in.o
                0x0000000023e5bb3c                ubi_io_write
 .text.ubi_io_write_ec_hdr
                0x0000000023e5bf10      0x120 drivers/mtd/ubi/built-in.o
                0x0000000023e5bf10                ubi_io_write_ec_hdr
 .text.ubi_io_write_vid_hdr
                0x0000000023e5c030       0xd4 drivers/mtd/ubi/built-in.o
                0x0000000023e5c030                ubi_io_write_vid_hdr
 .text.do_sync_erase.part.7
                0x0000000023e5c104      0x13c drivers/mtd/ubi/built-in.o
 .text.ubi_io_sync_erase
                0x0000000023e5c240      0x320 drivers/mtd/ubi/built-in.o
                0x0000000023e5c240                ubi_io_sync_erase
 .text.cancel_pending
                0x0000000023e5c560       0x54 drivers/mtd/ubi/built-in.o
 .text.prot_queue_del
                0x0000000023e5c5b4       0x9c drivers/mtd/ubi/built-in.o
 .text.do_work  0x0000000023e5c650       0x74 drivers/mtd/ubi/built-in.o
 .text.find_wl_entry
                0x0000000023e5c6c4       0x84 drivers/mtd/ubi/built-in.o
 .text.wl_tree_add
                0x0000000023e5c748       0x64 drivers/mtd/ubi/built-in.o
 .text.in_wl_tree.isra.1
                0x0000000023e5c7ac       0x80 drivers/mtd/ubi/built-in.o
 .text.self_check_in_wl_tree
                0x0000000023e5c82c       0x5c drivers/mtd/ubi/built-in.o
 .text.get_peb_for_wl
                0x0000000023e5c888       0x50 drivers/mtd/ubi/built-in.o
 .text.tree_destroy.isra.4
                0x0000000023e5c8d8       0x58 drivers/mtd/ubi/built-in.o
 .text.schedule_erase
                0x0000000023e5c930       0x88 drivers/mtd/ubi/built-in.o
 .text.ensure_wear_leveling
                0x0000000023e5c9b8       0xec drivers/mtd/ubi/built-in.o
 .text.erase_worker
                0x0000000023e5caa4      0x4f8 drivers/mtd/ubi/built-in.o
 .text.do_sync_erase
                0x0000000023e5cf9c       0x54 drivers/mtd/ubi/built-in.o
 .text.wear_leveling_worker
                0x0000000023e5cff0      0x488 drivers/mtd/ubi/built-in.o
 .text.ubi_wl_get_peb
                0x0000000023e5d478      0x158 drivers/mtd/ubi/built-in.o
                0x0000000023e5d478                ubi_wl_get_peb
 .text.ubi_wl_put_peb
                0x0000000023e5d5d0      0x16c drivers/mtd/ubi/built-in.o
                0x0000000023e5d5d0                ubi_wl_put_peb
 .text.ubi_wl_scrub_peb
                0x0000000023e5d73c      0x114 drivers/mtd/ubi/built-in.o
                0x0000000023e5d73c                ubi_wl_scrub_peb
 .text.ubi_wl_flush
                0x0000000023e5d850       0xa0 drivers/mtd/ubi/built-in.o
                0x0000000023e5d850                ubi_wl_flush
 .text.ubi_wl_init
                0x0000000023e5d8f0      0x2d4 drivers/mtd/ubi/built-in.o
                0x0000000023e5d8f0                ubi_wl_init
 .text.ubi_wl_close
                0x0000000023e5dbc4       0x88 drivers/mtd/ubi/built-in.o
                0x0000000023e5dbc4                ubi_wl_close
 .text.crc32_le
                0x0000000023e5dc4c       0xdc drivers/mtd/ubi/built-in.o
                0x0000000023e5dc4c                crc32_le
 .text.ubi_calc_data_len
                0x0000000023e5dd28       0x34 drivers/mtd/ubi/built-in.o
                0x0000000023e5dd28                ubi_calc_data_len
 .text.ubi_check_volume
                0x0000000023e5dd5c       0xb0 drivers/mtd/ubi/built-in.o
                0x0000000023e5dd5c                ubi_check_volume
 .text.ubi_update_reserved
                0x0000000023e5de0c       0x50 drivers/mtd/ubi/built-in.o
                0x0000000023e5de0c                ubi_update_reserved
 .text.ubi_calculate_reserved
                0x0000000023e5de5c       0x34 drivers/mtd/ubi/built-in.o
                0x0000000023e5de5c                ubi_calculate_reserved
 .text.ubi_check_pattern
                0x0000000023e5de90       0x2c drivers/mtd/ubi/built-in.o
                0x0000000023e5de90                ubi_check_pattern
 .text.ubi_dump_flash
                0x0000000023e5debc       0xb4 drivers/mtd/ubi/built-in.o
                0x0000000023e5debc                ubi_dump_flash
 .text.ubi_dump_ec_hdr
                0x0000000023e5df70        0x4 drivers/mtd/ubi/built-in.o
                0x0000000023e5df70                ubi_dump_ec_hdr
 .text.ubi_dump_vid_hdr
                0x0000000023e5df74        0x4 drivers/mtd/ubi/built-in.o
                0x0000000023e5df74                ubi_dump_vid_hdr
 .text.ubi_dump_vol_info
                0x0000000023e5df78      0x14c drivers/mtd/ubi/built-in.o
                0x0000000023e5df78                ubi_dump_vol_info
 .text.ubi_dump_vtbl_record
                0x0000000023e5e0c4       0x44 drivers/mtd/ubi/built-in.o
                0x0000000023e5e0c4                ubi_dump_vtbl_record
 .text.ubi_dump_av
                0x0000000023e5e108        0x4 drivers/mtd/ubi/built-in.o
                0x0000000023e5e108                ubi_dump_av
 .text.ubi_dump_aeb
                0x0000000023e5e10c        0x4 drivers/mtd/ubi/built-in.o
                0x0000000023e5e10c                ubi_dump_aeb
 .text.ubi_debugfs_init
                0x0000000023e5e110        0x8 drivers/mtd/ubi/built-in.o
                0x0000000023e5e110                ubi_debugfs_init
 .text.ubi_debugfs_exit
                0x0000000023e5e118        0x4 drivers/mtd/ubi/built-in.o
                0x0000000023e5e118                ubi_debugfs_exit
 .text.ubi_debugfs_init_dev
                0x0000000023e5e11c        0x8 drivers/mtd/ubi/built-in.o
                0x0000000023e5e11c                ubi_debugfs_init_dev
 .text.ubi_debugfs_exit_dev
                0x0000000023e5e124        0x4 drivers/mtd/ubi/built-in.o
                0x0000000023e5e124                ubi_debugfs_exit_dev
 .text.serial_stub_start
                0x0000000023e5e128        0xc drivers/serial/built-in.o
 .text.serial_stub_stop
                0x0000000023e5e134        0xc drivers/serial/built-in.o
 .text.serial_stub_putc
                0x0000000023e5e140       0x10 drivers/serial/built-in.o
 .text.serial_stub_puts
                0x0000000023e5e150       0x10 drivers/serial/built-in.o
 .text.serial_stub_getc
                0x0000000023e5e160        0xc drivers/serial/built-in.o
                0x0000000023e5e160                serial_stub_getc
 .text.serial_stub_tstc
                0x0000000023e5e16c        0xc drivers/serial/built-in.o
                0x0000000023e5e16c                serial_stub_tstc
 .text.get_current
                0x0000000023e5e178       0x40 drivers/serial/built-in.o
 .text.serial_null
                0x0000000023e5e1b8        0x4 drivers/serial/built-in.o
                0x0000000023e5e1b8                jz_serial_initialize
                0x0000000023e5e1b8                bfin_serial_initialize
                0x0000000023e5e1b8                p3mx_serial_initialize
                0x0000000023e5e1b8                leon2_serial_initialize
                0x0000000023e5e1b8                leon3_serial_initialize
                0x0000000023e5e1b8                amirix_serial_initialize
                0x0000000023e5e1b8                marvell_serial_initialize
                0x0000000023e5e1b8                cpci750_serial_initialize
                0x0000000023e5e1b8                ns16550_serial_initialize
                0x0000000023e5e1b8                asc_serial_initialize
                0x0000000023e5e1b8                altera_serial_initialize
                0x0000000023e5e1b8                sh_serial_initialize
                0x0000000023e5e1b8                oc_serial_initialize
                0x0000000023e5e1b8                mxs_auart_initialize
                0x0000000023e5e1b8                arm_dcc_initialize
                0x0000000023e5e1b8                bmw_serial_initialize
                0x0000000023e5e1b8                arc_serial_initialize
                0x0000000023e5e1b8                mcf_serial_initialize
                0x0000000023e5e1b8                lh7a40x_serial_initialize
                0x0000000023e5e1b8                evb64260_serial_initialize
                0x0000000023e5e1b8                lpc32xx_serial_initialize
                0x0000000023e5e1b8                max3100_serial_initialize
                0x0000000023e5e1b8                mpc85xx_serial_initialize
                0x0000000023e5e1b8                imx_serial_initialize
                0x0000000023e5e1b8                bfin_jtag_initialize
                0x0000000023e5e1b8                cogent_serial_initialize
                0x0000000023e5e1b8                clps7111_serial_initialize
                0x0000000023e5e1b8                ml2_serial_initialize
                0x0000000023e5e1b8                sandbox_serial_initialize
                0x0000000023e5e1b8                s3c24xx_serial_initialize
                0x0000000023e5e1b8                sconsole_serial_initialize
                0x0000000023e5e1b8                uartlite_serial_initialize
                0x0000000023e5e1b8                au1x00_serial_initialize
                0x0000000023e5e1b8                pxa_serial_initialize
                0x0000000023e5e1b8                atmel_serial_initialize
                0x0000000023e5e1b8                pl01x_serial_initialize
                0x0000000023e5e1b8                altera_jtag_serial_initialize
                0x0000000023e5e1b8                mpc512x_serial_initialize
                0x0000000023e5e1b8                s5p_serial_initialize
                0x0000000023e5e1b8                zynq_serial_initialize
                0x0000000023e5e1b8                ks8695_serial_initialize
                0x0000000023e5e1b8                sa1100_serial_initialize
                0x0000000023e5e1b8                mpc8260_scc_serial_initialize
                0x0000000023e5e1b8                mxc_serial_initialize
                0x0000000023e5e1b8                iop480_serial_initialize
                0x0000000023e5e1b8                mpc8xx_serial_initialize
                0x0000000023e5e1b8                mpc8260_smc_serial_initialize
                0x0000000023e5e1b8                mpc5xx_serial_initialize
 .text.serial_register
                0x0000000023e5e1bc       0x18 drivers/serial/built-in.o
                0x0000000023e5e1bc                serial_register
 .text.serial_stdio_init
                0x0000000023e5e1d4       0xa4 drivers/serial/built-in.o
                0x0000000023e5e1d4                serial_stdio_init
 .text.serial_assign
                0x0000000023e5e278       0x4c drivers/serial/built-in.o
                0x0000000023e5e278                serial_assign
 .text.serial_initialize
                0x0000000023e5e2c4       0xd4 drivers/serial/built-in.o
                0x0000000023e5e2c4                serial_initialize
 .text.serial_init
                0x0000000023e5e398       0x20 drivers/serial/built-in.o
                0x0000000023e5e398                serial_init
 .text.serial_setbrg
                0x0000000023e5e3b8       0x14 drivers/serial/built-in.o
                0x0000000023e5e3b8                serial_setbrg
 .text.on_baudrate
                0x0000000023e5e3cc       0xf8 drivers/serial/built-in.o
 .text.serial_getc
                0x0000000023e5e4c4       0x14 drivers/serial/built-in.o
                0x0000000023e5e4c4                serial_getc
 .text.serial_tstc
                0x0000000023e5e4d8       0x14 drivers/serial/built-in.o
                0x0000000023e5e4d8                serial_tstc
 .text.serial_putc
                0x0000000023e5e4ec       0x1c drivers/serial/built-in.o
                0x0000000023e5e4ec                serial_putc
 .text.serial_puts
                0x0000000023e5e508       0x1c drivers/serial/built-in.o
                0x0000000023e5e508                serial_puts
 .text.default_serial_puts
                0x0000000023e5e524       0x2c drivers/serial/built-in.o
                0x0000000023e5e524                default_serial_puts
 .text.fs_probe_unsupported
                0x0000000023e5e550       0x18 fs/built-in.o
 .text.fs_ls_unsupported
                0x0000000023e5e568        0x8 fs/built-in.o
 .text.fs_exists_unsupported
                0x0000000023e5e570        0x8 fs/built-in.o
 .text.fs_size_unsupported
                0x0000000023e5e578        0x8 fs/built-in.o
 .text.fs_read_unsupported
                0x0000000023e5e580        0x8 fs/built-in.o
 .text.fs_close_unsupported
                0x0000000023e5e588        0x4 fs/built-in.o
 .text.fs_get_info
                0x0000000023e5e58c       0x20 fs/built-in.o
 .text.fs_close
                0x0000000023e5e5ac       0x28 fs/built-in.o
 .text.fs_write_unsupported
                0x0000000023e5e5d4        0x8 fs/built-in.o
 .text.fs_uuid_unsupported
                0x0000000023e5e5dc        0x8 fs/built-in.o
 .text.fs_set_blk_dev
                0x0000000023e5e5e4       0xb8 fs/built-in.o
                0x0000000023e5e5e4                fs_set_blk_dev
 .text.fs_ls    0x0000000023e5e69c       0x3c fs/built-in.o
                0x0000000023e5e69c                fs_ls
 .text.fs_size  0x0000000023e5e6d8       0x3c fs/built-in.o
                0x0000000023e5e6d8                fs_size
 .text.fs_read  0x0000000023e5e714       0xa8 fs/built-in.o
                0x0000000023e5e714                fs_read
 .text.do_size  0x0000000023e5e7bc       0x60 fs/built-in.o
                0x0000000023e5e7bc                do_size
 .text.do_load  0x0000000023e5e81c      0x230 fs/built-in.o
                0x0000000023e5e81c                do_load
 .text.do_ls    0x0000000023e5ea4c       0x68 fs/built-in.o
                0x0000000023e5ea4c                do_ls
 .text.downcase
                0x0000000023e5eab4       0x30 fs/built-in.o
 .text.disk_read
                0x0000000023e5eae4       0x5c fs/built-in.o
 .text.dirdelim
                0x0000000023e5eb40       0x30 fs/built-in.o
 .text.get_fatent
                0x0000000023e5eb70      0x170 fs/built-in.o
 .text.mkcksum  0x0000000023e5ece0       0x50 fs/built-in.o
 .text.get_cluster
                0x0000000023e5ed30      0x16c fs/built-in.o
 .text.get_name
                0x0000000023e5ee9c       0xac fs/built-in.o
 .text.read_bootsectandvi
                0x0000000023e5ef48      0x11c fs/built-in.o
 .text.slot2str
                0x0000000023e5f064       0xc4 fs/built-in.o
 .text.get_vfatname
                0x0000000023e5f128      0x1b8 fs/built-in.o
 .text.get_dentfromdir.isra.1
                0x0000000023e5f2e0      0x2a0 fs/built-in.o
 .text.fat_set_blk_dev
                0x0000000023e5f580       0xcc fs/built-in.o
                0x0000000023e5f580                fat_set_blk_dev
 .text.fat_register_device
                0x0000000023e5f64c       0x88 fs/built-in.o
                0x0000000023e5f64c                fat_register_device
 .text.do_fat_read_at
                0x0000000023e5f6d4      0x9b8 fs/built-in.o
                0x0000000023e5f6d4                do_fat_read_at
 .text.do_fat_read
                0x0000000023e6008c       0x3c fs/built-in.o
                0x0000000023e6008c                do_fat_read
 .text.file_fat_detectfs
                0x0000000023e600c8      0x148 fs/built-in.o
                0x0000000023e600c8                file_fat_detectfs
 .text.file_fat_ls
                0x0000000023e60210       0x2c fs/built-in.o
                0x0000000023e60210                file_fat_ls
 .text.fat_exists
                0x0000000023e6023c       0x44 fs/built-in.o
                0x0000000023e6023c                fat_exists
 .text.fat_size
                0x0000000023e60280       0x38 fs/built-in.o
                0x0000000023e60280                fat_size
 .text.file_fat_read_at
                0x0000000023e602b8       0x60 fs/built-in.o
                0x0000000023e602b8                file_fat_read_at
 .text.fat_read_file
                0x0000000023e60318       0x48 fs/built-in.o
                0x0000000023e60318                fat_read_file
 .text.fat_close
                0x0000000023e60360        0x4 fs/built-in.o
                0x0000000023e60360                fat_close
 .text.do_fat_read_fstart
                0x0000000023e60364      0x568 fs/built-in.o
                0x0000000023e60364                do_fat_read_fstart
 .text.xz_crc32_init
                0x0000000023e608cc       0x48 lib/built-in.o
                0x0000000023e608cc                xz_crc32_init
 .text.xz_crc32
                0x0000000023e60914       0x48 lib/built-in.o
                0x0000000023e60914                xz_crc32
 .text.__get_unaligned_le32
                0x0000000023e6095c       0x20 lib/built-in.o
 .text.dec_vli  0x0000000023e6097c       0xb8 lib/built-in.o
 .text.index_update
                0x0000000023e60a34       0x40 lib/built-in.o
 .text.fill_temp
                0x0000000023e60a74       0x74 lib/built-in.o
 .text.xz_dec_reset
                0x0000000023e60ae8       0x4c lib/built-in.o
                0x0000000023e60ae8                xz_dec_reset
 .text.xz_dec_run
                0x0000000023e60b34      0x85c lib/built-in.o
                0x0000000023e60b34                xz_dec_run
 .text.xz_dec_init
                0x0000000023e61390       0x30 lib/built-in.o
                0x0000000023e61390                xz_dec_init
 .text.xz_dec_end
                0x0000000023e613c0       0x10 lib/built-in.o
                0x0000000023e613c0                xz_dec_end
 .text.lzma_len
                0x0000000023e613d0      0x1cc lib/built-in.o
 .text.dict_repeat.part.0
                0x0000000023e6159c       0x88 lib/built-in.o
 .text.lzma_main
                0x0000000023e61624      0x94c lib/built-in.o
 .text.xz_dec_lzma2_run
                0x0000000023e61f70      0x72c lib/built-in.o
                0x0000000023e61f70                xz_dec_lzma2_run
 .text.xz_dec_lzma2_create
                0x0000000023e6269c       0x7c lib/built-in.o
                0x0000000023e6269c                xz_dec_lzma2_create
 .text.xz_dec_lzma2_reset
                0x0000000023e62718       0x70 lib/built-in.o
                0x0000000023e62718                xz_dec_lzma2_reset
 .text.xz_dec_lzma2_end
                0x0000000023e62788        0x4 lib/built-in.o
                0x0000000023e62788                xz_dec_lzma2_end
 .text.zcalloc  0x0000000023e6278c        0x8 lib/built-in.o
                0x0000000023e6278c                zcalloc
 .text.zcfree   0x0000000023e62794        0x8 lib/built-in.o
                0x0000000023e62794                zcfree
 .text.inflate_fast
                0x0000000023e6279c      0x584 lib/built-in.o
                0x0000000023e6279c                inflate_fast
 .text.inflate_table
                0x0000000023e62d20      0x4f8 lib/built-in.o
                0x0000000023e62d20                inflate_table
 .text.inflateReset
                0x0000000023e63218       0x84 lib/built-in.o
                0x0000000023e63218                inflateReset
 .text.inflateInit2_
                0x0000000023e6329c      0x100 lib/built-in.o
                0x0000000023e6329c                inflateInit2_
 .text.inflateEnd
                0x0000000023e6339c       0x70 lib/built-in.o
                0x0000000023e6339c                inflateEnd
 .text.adler32  0x0000000023e6340c      0x330 lib/built-in.o
                0x0000000023e6340c                adler32
 .text.inflate  0x0000000023e6373c     0x14d8 lib/built-in.o
                0x0000000023e6373c                inflate
 .text.gzalloc  0x0000000023e64c14       0x10 lib/built-in.o
                0x0000000023e64c14                gzalloc
 .text.gzfree   0x0000000023e64c24        0x8 lib/built-in.o
                0x0000000023e64c24                gzfree
 .text.zunzip   0x0000000023e64c2c      0x124 lib/built-in.o
                0x0000000023e64c2c                zunzip
 .text.gunzip   0x0000000023e64d50       0xbc lib/built-in.o
                0x0000000023e64d50                gunzip
 .text.initcall_run_list
                0x0000000023e64e0c       0x5c lib/built-in.o
                0x0000000023e64e0c                initcall_run_list
 .text.lmb_add_region
                0x0000000023e64e68      0x18c lib/built-in.o
 .text.lmb_init
                0x0000000023e64ff4       0x28 lib/built-in.o
                0x0000000023e64ff4                lmb_init
 .text.lmb_add  0x0000000023e6501c        0x4 lib/built-in.o
                0x0000000023e6501c                lmb_add
 .text.lmb_reserve
                0x0000000023e65020        0x8 lib/built-in.o
                0x0000000023e65020                lmb_reserve
 .text.__lmb_alloc_base
                0x0000000023e65028      0x12c lib/built-in.o
                0x0000000023e65028                __lmb_alloc_base
 .text.lmb_alloc_base
                0x0000000023e65154       0x34 lib/built-in.o
                0x0000000023e65154                lmb_alloc_base
 .text.lmb_alloc
                0x0000000023e65188        0x8 lib/built-in.o
                0x0000000023e65188                lmb_alloc
 .text.board_lmb_reserve
                0x0000000023e65190        0x4 lib/built-in.o
                0x0000000023e65190                board_lmb_reserve
 .text.string_to_ip
                0x0000000023e65194       0x68 lib/built-in.o
                0x0000000023e65194                string_to_ip
 .text.qsort    0x0000000023e651fc       0xf8 lib/built-in.o
                0x0000000023e651fc                qsort
 .text.strcmp_compar
                0x0000000023e652f4        0xc lib/built-in.o
                0x0000000023e652f4                strcmp_compar
 .text.rb_insert_color
                0x0000000023e65300      0x190 lib/built-in.o
                0x0000000023e65300                rb_insert_color
 .text.rb_erase
                0x0000000023e65490      0x328 lib/built-in.o
                0x0000000023e65490                rb_erase
 .text.rb_first
                0x0000000023e657b8       0x20 lib/built-in.o
                0x0000000023e657b8                rb_first
 .text.rb_last  0x0000000023e657d8       0x20 lib/built-in.o
                0x0000000023e657d8                rb_last
 .text.rb_next  0x0000000023e657f8       0x54 lib/built-in.o
                0x0000000023e657f8                rb_next
 .text.cmpkey   0x0000000023e6584c       0x14 lib/built-in.o
 .text._hdelete.isra.0
                0x0000000023e65860       0x50 lib/built-in.o
 .text.drop_var_from_set.part.1
                0x0000000023e658b0       0x50 lib/built-in.o
 .text.match_string.isra.2
                0x0000000023e65900       0x60 lib/built-in.o
 .text.hcreate_r
                0x0000000023e65960       0x98 lib/built-in.o
                0x0000000023e65960                hcreate_r
 .text.hdestroy_r
                0x0000000023e659f8       0x6c lib/built-in.o
                0x0000000023e659f8                hdestroy_r
 .text.hmatch_r
                0x0000000023e65a64       0x9c lib/built-in.o
                0x0000000023e65a64                hmatch_r
 .text.hsearch_r
                0x0000000023e65b00      0x480 lib/built-in.o
                0x0000000023e65b00                hsearch_r
 .text.hdelete_r
                0x0000000023e65f80       0xf0 lib/built-in.o
                0x0000000023e65f80                hdelete_r
 .text.hexport_r
                0x0000000023e66070      0x2ec lib/built-in.o
                0x0000000023e66070                hexport_r
 .text.himport_r
                0x0000000023e6635c      0x3e8 lib/built-in.o
                0x0000000023e6635c                himport_r
 .text.hwalk_r  0x0000000023e66744       0x5c lib/built-in.o
                0x0000000023e66744                hwalk_r
 .text.display_options
                0x0000000023e667a0       0x20 lib/built-in.o
                0x0000000023e667a0                display_options
 .text.print_size
                0x0000000023e667c0      0x148 lib/built-in.o
                0x0000000023e667c0                print_size
 .text.print_buffer
                0x0000000023e66908      0x1b4 lib/built-in.o
                0x0000000023e66908                print_buffer
 .text.crc32_no_comp
                0x0000000023e66abc       0xd8 lib/built-in.o
                0x0000000023e66abc                crc32_no_comp
 .text.crc32    0x0000000023e66b94       0x14 lib/built-in.o
                0x0000000023e66b94                crc32
 .text.crc32_wd
                0x0000000023e66ba8       0x50 lib/built-in.o
                0x0000000023e66ba8                crc32_wd
 .text.__div64_32
                0x0000000023e66bf8       0xe0 lib/built-in.o
                0x0000000023e66bf8                __div64_32
 .text.hang     0x0000000023e66cd8       0x1c lib/built-in.o
                0x0000000023e66cd8                hang
 .text.copy_from_user
                0x0000000023e66cf4       0x10 lib/built-in.o
                0x0000000023e66cf4                copy_from_user
 .text.kmalloc  0x0000000023e66d04        0xc lib/built-in.o
                0x0000000023e66d04                kmalloc
 .text.kzalloc  0x0000000023e66d10       0x2c lib/built-in.o
                0x0000000023e66d10                kzalloc
 .text.vzalloc  0x0000000023e66d3c        0x8 lib/built-in.o
                0x0000000023e66d3c                vzalloc
 .text.get_mem  0x0000000023e66d44       0x1c lib/built-in.o
                0x0000000023e66d44                get_mem
 .text.kmem_cache_alloc
                0x0000000023e66d60        0xc lib/built-in.o
                0x0000000023e66d60                kmem_cache_alloc
 .text.skip_spaces
                0x0000000023e66d6c       0x28 lib/built-in.o
                0x0000000023e66d6c                skip_spaces
 .text.strim    0x0000000023e66d94       0x5c lib/built-in.o
                0x0000000023e66d94                strim
 .text.strcpy   0x0000000023e66df0       0x18 lib/built-in.o
                0x0000000023e66df0                strcpy
 .text.strncpy  0x0000000023e66e08       0x24 lib/built-in.o
                0x0000000023e66e08                strncpy
 .text.strcmp   0x0000000023e66e2c       0x28 lib/built-in.o
                0x0000000023e66e2c                strcmp
 .text.strncmp  0x0000000023e66e54       0x3c lib/built-in.o
                0x0000000023e66e54                strncmp
 .text.strchr   0x0000000023e66e90       0x30 lib/built-in.o
                0x0000000023e66e90                strchr
 .text.strlen   0x0000000023e66ec0       0x20 lib/built-in.o
                0x0000000023e66ec0                strlen
 .text.strnlen  0x0000000023e66ee0       0x2c lib/built-in.o
                0x0000000023e66ee0                strnlen
 .text.strdup   0x0000000023e66f0c       0x34 lib/built-in.o
                0x0000000023e66f0c                strdup
 .text.strpbrk  0x0000000023e66f40       0x54 lib/built-in.o
                0x0000000023e66f40                strpbrk
 .text.strsep   0x0000000023e66f94       0x34 lib/built-in.o
                0x0000000023e66f94                strsep
 .text.memset   0x0000000023e66fc8       0x70 lib/built-in.o
                0x0000000023e66fc8                memset
 .text.memcpy   0x0000000023e67038       0x80 lib/built-in.o
                0x0000000023e67038                memcpy
 .text.memmove  0x0000000023e670b8       0x44 lib/built-in.o
                0x0000000023e670b8                memmove
 .text.memcmp   0x0000000023e670fc       0x44 lib/built-in.o
                0x0000000023e670fc                memcmp
 .text.strstr   0x0000000023e67140       0x60 lib/built-in.o
                0x0000000023e67140                strstr
 .text.udelay   0x0000000023e671a0       0x34 lib/built-in.o
                0x0000000023e671a0                udelay
 .text.mdelay   0x0000000023e671d4       0x1c lib/built-in.o
                0x0000000023e671d4                mdelay
 .text.put_dec_trunc
                0x0000000023e671f0       0xd4 lib/built-in.o
 *fill*         0x0000000023e672c4        0x4 
 .text.put_dec  0x0000000023e672c8      0x130 lib/built-in.o
 .text.string.isra.0
                0x0000000023e673f8       0x9c lib/built-in.o
 .text.number.isra.4
                0x0000000023e67494      0x288 lib/built-in.o
 .text.vsnprintf_internal.isra.6
                0x0000000023e6771c      0x600 lib/built-in.o
 .text.simple_strtoul
                0x0000000023e67d1c       0xb0 lib/built-in.o
                0x0000000023e67d1c                simple_strtoul
 .text.strict_strtoul
                0x0000000023e67dcc       0x78 lib/built-in.o
                0x0000000023e67dcc                strict_strtoul
 .text.simple_strtol
                0x0000000023e67e44       0x24 lib/built-in.o
                0x0000000023e67e44                simple_strtol
 .text.simple_strtoull
                0x0000000023e67e68       0xd4 lib/built-in.o
                0x0000000023e67e68                simple_strtoull
 .text.vsprintf
                0x0000000023e67f3c        0x4 lib/built-in.o
                0x0000000023e67f3c                vsprintf
 .text.sprintf  0x0000000023e67f40       0x28 lib/built-in.o
                0x0000000023e67f40                sprintf
 .text.panic    0x0000000023e67f68       0x44 lib/built-in.o
                0x0000000023e67f68                panic
 .text.simple_itoa
                0x0000000023e67fac       0x60 lib/built-in.o
                0x0000000023e67fac                simple_itoa
 .text.tinfl_decompress
                0x0000000023e6800c     0x1404 lib/built-in.o
                0x0000000023e6800c                tinfl_decompress
 .text.tinfl_decompress_mem_to_mem
                0x0000000023e69410       0x68 lib/built-in.o
                0x0000000023e69410                tinfl_decompress_mem_to_mem
 .text.ArpInit  0x0000000023e69478       0x50 net/built-in.o
                0x0000000023e69478                ArpInit
 .text.arp_raw_request
                0x0000000023e694c8       0xd0 net/built-in.o
                0x0000000023e694c8                arp_raw_request
 .text.ArpRequest
                0x0000000023e69598       0x84 net/built-in.o
                0x0000000023e69598                ArpRequest
 .text.ArpTimeoutCheck
                0x0000000023e6961c       0x80 net/built-in.o
                0x0000000023e6961c                ArpTimeoutCheck
 .text.ArpReceive
                0x0000000023e6969c      0x234 net/built-in.o
                0x0000000023e6969c                ArpReceive
 .text.DhcpOptionsProcess
                0x0000000023e698d0      0x230 net/built-in.o
 .text.DhcpHandler
                0x0000000023e69b00      0x508 net/built-in.o
 .text.BootpReset
                0x0000000023e6a008       0x44 net/built-in.o
                0x0000000023e6a008                BootpReset
 .text.BootpRequest
                0x0000000023e6a04c      0x300 net/built-in.o
                0x0000000023e6a04c                BootpRequest
 .text.BootpTimeout
                0x0000000023e6a34c       0x68 net/built-in.o
 .text.DhcpRequest
                0x0000000023e6a3b4        0x4 net/built-in.o
                0x0000000023e6a3b4                DhcpRequest
 .text.__def_eth_init
                0x0000000023e6a3b8        0x8 net/built-in.o
                0x0000000023e6a3b8                cpu_eth_init
 .text.eth_current_changed
                0x0000000023e6a3c0       0x5c net/built-in.o
 .text.eth_parse_enetaddr
                0x0000000023e6a41c       0x5c net/built-in.o
                0x0000000023e6a41c                eth_parse_enetaddr
 .text.eth_getenv_enetaddr
                0x0000000023e6a478       0x5c net/built-in.o
                0x0000000023e6a478                eth_getenv_enetaddr
 .text.eth_setenv_enetaddr
                0x0000000023e6a4d4       0x34 net/built-in.o
                0x0000000023e6a4d4                eth_setenv_enetaddr
 .text.eth_getenv_enetaddr_by_index
                0x0000000023e6a508       0x44 net/built-in.o
                0x0000000023e6a508                eth_getenv_enetaddr_by_index
 .text.eth_get_dev_index
                0x0000000023e6a54c       0x1c net/built-in.o
                0x0000000023e6a54c                eth_get_dev_index
 .text.eth_write_hwaddr
                0x0000000023e6a568      0x22c net/built-in.o
                0x0000000023e6a568                eth_write_hwaddr
 .text.eth_register
                0x0000000023e6a794       0x7c net/built-in.o
                0x0000000023e6a794                eth_register
 .text.eth_initialize
                0x0000000023e6a810      0x1b8 net/built-in.o
                0x0000000023e6a810                eth_initialize
 .text.eth_halt
                0x0000000023e6a9c8       0x30 net/built-in.o
                0x0000000023e6a9c8                eth_halt
 .text.eth_send
                0x0000000023e6a9f8       0x3c net/built-in.o
                0x0000000023e6a9f8                eth_send
 .text.eth_rx   0x0000000023e6aa34       0x24 net/built-in.o
                0x0000000023e6aa34                eth_rx
 .text.eth_try_another
                0x0000000023e6aa58       0x84 net/built-in.o
                0x0000000023e6aa58                eth_try_another
 .text.eth_init
                0x0000000023e6aadc       0xcc net/built-in.o
                0x0000000023e6aadc                eth_init
 .text.eth_set_current
                0x0000000023e6aba8       0xa0 net/built-in.o
                0x0000000023e6aba8                eth_set_current
 .text.eth_get_name
                0x0000000023e6ac48       0x20 net/built-in.o
                0x0000000023e6ac48                eth_get_name
 .text.net_clear_handlers
                0x0000000023e6ac68       0x34 net/built-in.o
 .text.startAgainTimeout
                0x0000000023e6ac9c       0x14 net/built-in.o
 .text.dummy_handler
                0x0000000023e6acb0        0x4 net/built-in.o
 .text.net_auto_load
                0x0000000023e6acb4       0x38 net/built-in.o
                0x0000000023e6acb4                net_auto_load
 .text.NetStartAgain
                0x0000000023e6acec      0x150 net/built-in.o
                0x0000000023e6acec                NetStartAgain
 .text.net_set_udp_handler
                0x0000000023e6ae3c       0x20 net/built-in.o
                0x0000000023e6ae3c                net_set_udp_handler
 .text.net_get_arp_handler
                0x0000000023e6ae5c       0x10 net/built-in.o
                0x0000000023e6ae5c                net_get_arp_handler
 .text.net_set_icmp_handler
                0x0000000023e6ae6c       0x10 net/built-in.o
                0x0000000023e6ae6c                net_set_icmp_handler
 .text.NetSetTimeout
                0x0000000023e6ae7c       0x5c net/built-in.o
                0x0000000023e6ae7c                NetSetTimeout
 .text.NetCksum
                0x0000000023e6aed8       0x34 net/built-in.o
                0x0000000023e6aed8                NetCksum
 .text.NetCksumOk
                0x0000000023e6af0c       0x20 net/built-in.o
                0x0000000023e6af0c                NetCksumOk
 .text.NetReceive
                0x0000000023e6af2c      0x360 net/built-in.o
                0x0000000023e6af2c                NetReceive
 .text.NetEthHdrSize
                0x0000000023e6b28c       0x44 net/built-in.o
                0x0000000023e6b28c                NetEthHdrSize
 .text.NetSetEther
                0x0000000023e6b2d0       0xc0 net/built-in.o
                0x0000000023e6b2d0                NetSetEther
 .text.net_update_ether
                0x0000000023e6b390       0x9c net/built-in.o
                0x0000000023e6b390                net_update_ether
 .text.net_set_ip_header
                0x0000000023e6b42c       0xa8 net/built-in.o
                0x0000000023e6b42c                net_set_ip_header
 .text.net_set_udp_header
                0x0000000023e6b4d4       0xc8 net/built-in.o
                0x0000000023e6b4d4                net_set_udp_header
 .text.NetSendUDPPacket
                0x0000000023e6b59c      0x108 net/built-in.o
                0x0000000023e6b59c                NetSendUDPPacket
 .text.copy_filename
                0x0000000023e6b6a4       0x44 net/built-in.o
                0x0000000023e6b6a4                copy_filename
 .text.on_bootfile
                0x0000000023e6b6e8       0x34 net/built-in.o
 .text.ip_to_string
                0x0000000023e6b71c       0x3c net/built-in.o
                0x0000000023e6b71c                ip_to_string
 .text.string_to_VLAN
                0x0000000023e6b758       0x50 net/built-in.o
                0x0000000023e6b758                string_to_VLAN
 .text.getenv_VLAN
                0x0000000023e6b7a8       0x10 net/built-in.o
                0x0000000023e6b7a8                getenv_VLAN
 .text.NetInitLoop
                0x0000000023e6b7b8       0xf0 net/built-in.o
 .text.net_init
                0x0000000023e6b8a8       0x70 net/built-in.o
                0x0000000023e6b8a8                net_init
 .text.NetLoop  0x0000000023e6b918      0x378 net/built-in.o
                0x0000000023e6b918                NetLoop
 .text.ping_timeout
                0x0000000023e6bc90       0x1c net/built-in.o
 .text.ping_start
                0x0000000023e6bcac      0x158 net/built-in.o
                0x0000000023e6bcac                ping_start
 .text.ping_receive
                0x0000000023e6be04      0x110 net/built-in.o
                0x0000000023e6be04                ping_receive
 .text.tftp_complete
                0x0000000023e6bf14       0x78 net/built-in.o
 .text.TftpSend
                0x0000000023e6bf8c      0x26c net/built-in.o
 .text.update_block_number
                0x0000000023e6c1f8       0xb4 net/built-in.o
 .text.TftpHandler
                0x0000000023e6c2ac      0x33c net/built-in.o
 .text.TftpTimeout
                0x0000000023e6c5e8       0x8c net/built-in.o
 .text.icmp_handler
                0x0000000023e6c674       0x2c net/built-in.o
 .text.TftpStart
                0x0000000023e6c6a0      0x440 net/built-in.o
                0x0000000023e6c6a0                TftpStart
 .text.raise    0x0000000023e6cae0       0x1c arch/arm/lib/eabi_compat.o
                0x0000000023e6cae0                raise
 .text          0x0000000023e6cafc      0x20c /home/industio/ssd20x/gcc-arm-8.2-2018.08-x86_64-arm-linux-gnueabihf/bin/../lib/gcc/arm-linux-gnueabihf/8.2.1/libgcc.a(_udivsi3.o)
                0x0000000023e6cafc                __udivsi3
                0x0000000023e6cafc                __aeabi_uidiv
                0x0000000023e6cce8                __aeabi_uidivmod
 .text          0x0000000023e6cd08      0x240 /home/industio/ssd20x/gcc-arm-8.2-2018.08-x86_64-arm-linux-gnueabihf/bin/../lib/gcc/arm-linux-gnueabihf/8.2.1/libgcc.a(_divsi3.o)
                0x0000000023e6cd08                __aeabi_idiv
                0x0000000023e6cd08                __divsi3
                0x0000000023e6cf28                __aeabi_idivmod
 .text          0x0000000023e6cf48      0x3c0 /home/industio/ssd20x/gcc-arm-8.2-2018.08-x86_64-arm-linux-gnueabihf/bin/../lib/gcc/arm-linux-gnueabihf/8.2.1/libgcc.a(_arm_addsubdf3.o)
                0x0000000023e6cf48                __aeabi_drsub
                0x0000000023e6cf50                __aeabi_dsub
                0x0000000023e6cf50                __subdf3
                0x0000000023e6cf54                __adddf3
                0x0000000023e6cf54                __aeabi_dadd
                0x0000000023e6d200                __aeabi_ui2d
                0x0000000023e6d200                __floatunsidf
                0x0000000023e6d224                __floatsidf
                0x0000000023e6d224                __aeabi_i2d
                0x0000000023e6d24c                __extendsfdf2
                0x0000000023e6d24c                __aeabi_f2d
                0x0000000023e6d294                __aeabi_ul2d
                0x0000000023e6d294                __floatundidf
                0x0000000023e6d2a8                __floatdidf
                0x0000000023e6d2a8                __aeabi_l2d
 .text          0x0000000023e6d308      0x470 /home/industio/ssd20x/gcc-arm-8.2-2018.08-x86_64-arm-linux-gnueabihf/bin/../lib/gcc/arm-linux-gnueabihf/8.2.1/libgcc.a(_arm_muldivdf3.o)
                0x0000000023e6d308                __aeabi_dmul
                0x0000000023e6d308                __muldf3
                0x0000000023e6d574                __aeabi_ddiv
                0x0000000023e6d574                __divdf3
 .text          0x0000000023e6d778       0xa0 /home/industio/ssd20x/gcc-arm-8.2-2018.08-x86_64-arm-linux-gnueabihf/bin/../lib/gcc/arm-linux-gnueabihf/8.2.1/libgcc.a(_arm_truncdfsf2.o)
                0x0000000023e6d778                __aeabi_d2f
                0x0000000023e6d778                __truncdfsf2
 .text          0x0000000023e6d818      0x250 /home/industio/ssd20x/gcc-arm-8.2-2018.08-x86_64-arm-linux-gnueabihf/bin/../lib/gcc/arm-linux-gnueabihf/8.2.1/libgcc.a(_arm_addsubsf3.o)
                0x0000000023e6d818                __aeabi_frsub
                0x0000000023e6d820                __subsf3
                0x0000000023e6d820                __aeabi_fsub
                0x0000000023e6d824                __aeabi_fadd
                0x0000000023e6d824                __addsf3
                0x0000000023e6d9b4                __aeabi_ui2f
                0x0000000023e6d9b4                __floatunsisf
                0x0000000023e6d9bc                __aeabi_i2f
                0x0000000023e6d9bc                __floatsisf
                0x0000000023e6d9dc                __floatundisf
                0x0000000023e6d9dc                __aeabi_ul2f
                0x0000000023e6d9ec                __floatdisf
                0x0000000023e6d9ec                __aeabi_l2f
 .text          0x0000000023e6da68      0x2f8 /home/industio/ssd20x/gcc-arm-8.2-2018.08-x86_64-arm-linux-gnueabihf/bin/../lib/gcc/arm-linux-gnueabihf/8.2.1/libgcc.a(_arm_muldivsf3.o)
                0x0000000023e6da68                __mulsf3
                0x0000000023e6da68                __aeabi_fmul
                0x0000000023e6dc00                __divsf3
                0x0000000023e6dc00                __aeabi_fdiv
 .text          0x0000000023e6dd60       0x5c /home/industio/ssd20x/gcc-arm-8.2-2018.08-x86_64-arm-linux-gnueabihf/bin/../lib/gcc/arm-linux-gnueabihf/8.2.1/libgcc.a(_arm_fixsfsi.o)
                0x0000000023e6dd60                __fixsfsi
                0x0000000023e6dd60                __aeabi_f2iz
 .text          0x0000000023e6ddbc       0x54 /home/industio/ssd20x/gcc-arm-8.2-2018.08-x86_64-arm-linux-gnueabihf/bin/../lib/gcc/arm-linux-gnueabihf/8.2.1/libgcc.a(_arm_fixunssfsi.o)
                0x0000000023e6ddbc                __aeabi_f2uiz
                0x0000000023e6ddbc                __fixunssfsi
 .text          0x0000000023e6de10       0x10 /home/industio/ssd20x/gcc-arm-8.2-2018.08-x86_64-arm-linux-gnueabihf/bin/../lib/gcc/arm-linux-gnueabihf/8.2.1/libgcc.a(_dvmd_lnx.o)
                0x0000000023e6de10                __aeabi_ldiv0
                0x0000000023e6de10                __aeabi_idiv0

.glue_7         0x0000000023e6de20        0x0
 .glue_7        0x0000000023e6de20        0x0 linker stubs

.glue_7t        0x0000000023e6de20        0x0
 .glue_7t       0x0000000023e6de20        0x0 linker stubs

.vfp11_veneer   0x0000000023e6de20        0x0
 .vfp11_veneer  0x0000000023e6de20        0x0 linker stubs

.v4_bx          0x0000000023e6de20        0x0
 .v4_bx         0x0000000023e6de20        0x0 linker stubs

.iplt           0x0000000023e6de20        0x0
 .iplt          0x0000000023e6de20        0x0 arch/arm/cpu/armv7/start.o
                0x0000000023e6de20                . = ALIGN (0x4)

.rodata         0x0000000023e6de20    0x1bbe2
 *(SORT_BY_ALIGNMENT(SORT_BY_NAME(.rodata*)))
 .rodata.aanscalefactor.7705
                0x0000000023e6de20       0x40 drivers/built-in.o
 .rodata        0x0000000023e6de60       0x80 arch/arm/lib/built-in.o
 .rodata        0x0000000023e6dee0      0x73c drivers/built-in.o
 .rodata.CSWTCH.33
                0x0000000023e6e61c       0x14 common/built-in.o
 .rodata.CSWTCH.4
                0x0000000023e6e630        0xc drivers/built-in.o
 .rodata.RGB_order.7308
                0x0000000023e6e63c        0xc drivers/built-in.o
 .rodata.block_drvr
                0x0000000023e6e648       0x24 disk/built-in.o
 .rodata.bmask  0x0000000023e6e66c       0x40 drivers/built-in.o
 .rodata.boot_os
                0x0000000023e6e6ac       0x60 common/built-in.o
 .rodata.crc32table_le
                0x0000000023e6e70c      0x400 drivers/mtd/ubi/built-in.o
 .rodata.crc_table
                0x0000000023e6eb0c      0x400 lib/built-in.o
 .rodata.env_flags_varaccess_mask
                0x0000000023e6ef0c       0x10 common/built-in.o
 .rodata.ext_csd_bits.6809
                0x0000000023e6ef1c       0x14 drivers/mmc/built-in.o
 .rodata.ext_to_hostcaps.6810
                0x0000000023e6ef30       0x1c drivers/mmc/built-in.o
 .rodata.extra_pool_slop
                0x0000000023e6ef4c        0x8 drivers/built-in.o
 .rodata.fbase  0x0000000023e6ef54       0x10 drivers/mmc/built-in.o
 .rodata.first_pool_slop
                0x0000000023e6ef64        0x8 drivers/built-in.o
 .rodata.ge_IPSlot
                0x0000000023e6ef6c        0xc drivers/built-in.o
 .rodata.ge_PADSlot
                0x0000000023e6ef78        0xc drivers/built-in.o
 .rodata.ge_PORTSlot
                0x0000000023e6ef84        0xc drivers/built-in.o
 .rodata.gpio_table
                0x0000000023e6ef90      0x888 drivers/built-in.o
 .rodata.gu32_MaxClkSlot
                0x0000000023e6f818        0xc drivers/built-in.o
 .rodata.jpeg_aritab
                0x0000000023e6f824      0x1c8 drivers/built-in.o
                0x0000000023e6f824                jpeg_aritab
 .rodata.jpeg_natural_order
                0x0000000023e6f9ec      0x140 drivers/built-in.o
                0x0000000023e6f9ec                jpeg_natural_order
 .rodata.jpeg_natural_order2
                0x0000000023e6fb2c       0x50 drivers/built-in.o
                0x0000000023e6fb2c                jpeg_natural_order2
 .rodata.jpeg_natural_order3
                0x0000000023e6fb7c       0x64 drivers/built-in.o
                0x0000000023e6fb7c                jpeg_natural_order3
 .rodata.jpeg_natural_order4
                0x0000000023e6fbe0       0x80 drivers/built-in.o
                0x0000000023e6fbe0                jpeg_natural_order4
 .rodata.jpeg_natural_order5
                0x0000000023e6fc60       0xa4 drivers/built-in.o
                0x0000000023e6fc60                jpeg_natural_order5
 .rodata.jpeg_natural_order6
                0x0000000023e6fd04       0xd0 drivers/built-in.o
                0x0000000023e6fd04                jpeg_natural_order6
 .rodata.jpeg_natural_order7
                0x0000000023e6fdd4      0x104 drivers/built-in.o
                0x0000000023e6fdd4                jpeg_natural_order7
 .rodata.jpeg_std_message_table
                0x0000000023e6fed8      0x200 drivers/built-in.o
                0x0000000023e6fed8                jpeg_std_message_table
 .rodata.jpeg_zigzag_order
                0x0000000023e700d8      0x100 drivers/built-in.o
 .rodata.jpeg_zigzag_order2
                0x0000000023e701d8       0x10 drivers/built-in.o
 .rodata.jpeg_zigzag_order3
                0x0000000023e701e8       0x24 drivers/built-in.o
 .rodata.jpeg_zigzag_order4
                0x0000000023e7020c       0x40 drivers/built-in.o
 .rodata.jpeg_zigzag_order5
                0x0000000023e7024c       0x64 drivers/built-in.o
 .rodata.jpeg_zigzag_order6
                0x0000000023e702b0       0x90 drivers/built-in.o
 .rodata.jpeg_zigzag_order7
                0x0000000023e70340       0xc4 drivers/built-in.o
 .rodata.m_stPadModeInfoTbl
                0x0000000023e70404      0xb88 drivers/built-in.o
 .rodata.m_stPadMuxTbl
                0x0000000023e70f8c     0x2c80 drivers/built-in.o
 .rodata.ms_mmc_ops
                0x0000000023e73c0c       0x14 drivers/built-in.o
 .rodata.multipliers
                0x0000000023e73c20       0x40 drivers/mmc/built-in.o
 .rodata.mxp_offset
                0x0000000023e73c60       0x1c drivers/built-in.o
 .rodata.s_dist_base.3884
                0x0000000023e73c7c       0x80 lib/built-in.o
 .rodata.s_dist_extra.3885
                0x0000000023e73cfc       0x80 lib/built-in.o
 .rodata.s_length_base.3882
                0x0000000023e73d7c       0x7c lib/built-in.o
 .rodata.s_length_extra.3883
                0x0000000023e73df8       0x7c lib/built-in.o
 .rodata.s_min_table_sizes.3887
                0x0000000023e73e74        0xc lib/built-in.o
 .rodata.uimage_arch
                0x0000000023e73e80      0x12c common/built-in.o
 .rodata.uimage_comp
                0x0000000023e73fac       0x60 common/built-in.o
 .rodata.uimage_os
                0x0000000023e7400c       0x6c common/built-in.o
 .rodata.uimage_type
                0x0000000023e74078      0x108 common/built-in.o
 .rodata.widths.6811
                0x0000000023e74180       0x14 drivers/mmc/built-in.o
 .rodata.CSWTCH.1
                0x0000000023e74194       0x3c drivers/built-in.o
 .rodata._hal_ckg_spi_nonpm
                0x0000000023e741d0       0x20 drivers/built-in.o
 .rodata.aanscales.7697
                0x0000000023e741f0       0x80 drivers/built-in.o
 .rodata.dbase.6661
                0x0000000023e74270       0x40 lib/built-in.o
 .rodata.dext.6662
                0x0000000023e742b0       0x40 lib/built-in.o
 .rodata.distfix
                0x0000000023e742f0       0x80 lib/built-in.o
 .rodata.lbase.6659
                0x0000000023e74370       0x3e lib/built-in.o
 .rodata.lenfix
                0x0000000023e743ae      0x800 lib/built-in.o
 .rodata.lext.6660
                0x0000000023e74bae       0x3e lib/built-in.o
 .rodata.order.6755
                0x0000000023e74bec       0x26 lib/built-in.o
 .rodata        0x0000000023e74c12       0x83 common/built-in.o
 .rodata        0x0000000023e74c95        0xe net/built-in.o
 .rodata.ArpReceive.str1.1
                0x0000000023e74ca3       0x14 net/built-in.o
 .rodata.ArpRequest.str1.1
                0x0000000023e74cb7       0x2a net/built-in.o
 .rodata.ArpTimeoutCheck.str1.1
                0x0000000023e74ce1       0x2b net/built-in.o
 .rodata.BootpRequest.str1.1
                0x0000000023e74d0c       0x14 net/built-in.o
 .rodata.BootpTimeout.str1.1
                0x0000000023e74d20       0x26 net/built-in.o
 .rodata.CSWTCH.115
                0x0000000023e74d46        0x6 drivers/built-in.o
 .rodata.CSWTCH.116
                0x0000000023e74d4c        0x6 drivers/built-in.o
 .rodata.CSWTCH.3
                0x0000000023e74d52        0x3 drivers/built-in.o
 .rodata.CSWTCH.69
                0x0000000023e74d55       0x10 drivers/built-in.o
 .rodata.CSWTCH.70
                0x0000000023e74d65       0x10 drivers/built-in.o
 .rodata.DhcpHandler.str1.1
                0x0000000023e74d75       0x41 net/built-in.o
                                         0x4a (size before relaxing)
 .rodata.DhcpOptionsProcess.str1.1
                0x0000000023e74db6       0xb4 net/built-in.o
 .rodata.DrvDispCtxAllocate.str1.1
                0x0000000023e74e6a       0x27 drivers/built-in.o
 .rodata.DrvDispCtxSetCurCtx.str1.1
                0x0000000023e74e91       0x2b drivers/built-in.o
 .rodata.DrvDispIfDeviceCreateInstance.str1.1
                0x0000000023e74ebc       0x69 drivers/built-in.o
 .rodata.DrvDispIfInitPanelConfig.str1.1
                0x0000000023e74f25       0x44 drivers/built-in.o
 .rodata.DrvDispIfSetClk.str1.1
                0x0000000023e74f69       0x46 drivers/built-in.o
 .rodata.DrvPnlCtxGet.str1.1
                0x0000000023e74faf       0x58 drivers/built-in.o
 .rodata.DrvPnlCtxInit.str1.1
                0x0000000023e75007       0x63 drivers/built-in.o
 .rodata.DrvPnlIfCreateInstance.str1.1
                0x0000000023e7506a       0x2a drivers/built-in.o
                                         0x49 (size before relaxing)
 .rodata.DrvPnlIfSetClkConfig.str1.1
                0x0000000023e75094       0x46 drivers/built-in.o
 .rodata.Dump_QTD.str1.1
                0x0000000023e75094       0x16 drivers/built-in.o
                                         0x1c (size before relaxing)
 .rodata.FSP_WRITE_BYTE.str1.1
                0x0000000023e750aa        0xf drivers/built-in.o
 .rodata.GD_SPINAND_SetDriving.str1.1
                0x0000000023e750b9       0x3d drivers/built-in.o
 .rodata.HAL_FSP_BlockErase.str1.1
                0x0000000023e750f6        0xa drivers/built-in.o
                                          0xf (size before relaxing)
 .rodata.HAL_FSP_ReadID.str1.1
                0x0000000023e75100       0x13 drivers/built-in.o
 .rodata.HAL_FSP_WriteBufs.str1.1
                0x0000000023e75113       0x19 drivers/built-in.o
 .rodata.HAL_FSP_WriteStatus.str1.1
                0x0000000023e7512c       0x26 drivers/built-in.o
 .rodata.HAL_HWI2C_DMA_Init.str1.1
                0x0000000023e75152       0x18 drivers/built-in.o
 .rodata.HAL_HWI2C_DMA_ReadBytes.str1.1
                0x0000000023e7516a       0xe2 drivers/built-in.o
 .rodata.HAL_HWI2C_DMA_WaitDone.str1.1
                0x0000000023e7524c       0x21 drivers/built-in.o
 .rodata.HAL_HWI2C_DMA_WriteBytes.str1.1
                0x0000000023e7526d       0x61 drivers/built-in.o
 .rodata.HAL_HWI2C_SelectPort.str1.1
                0x0000000023e752ce       0x1c drivers/built-in.o
 .rodata.HAL_HWI2C_XferRead.str1.1
                0x0000000023e752ea       0xa2 drivers/built-in.o
 .rodata.HAL_HWI2C_XferWrite.str1.1
                0x0000000023e7538c       0xfb drivers/built-in.o
 .rodata.HAL_QPI_Enable.str1.1
                0x0000000023e75487       0x18 drivers/built-in.o
 .rodata.HAL_SERFLASH_AddressToBlock.str1.1
                0x0000000023e7549f       0x39 drivers/built-in.o
 .rodata.HAL_SERFLASH_ClkDiv.str1.1
                0x0000000023e754d8       0x39 drivers/built-in.o
                                          0x6 (size before relaxing)
 .rodata.HAL_SERFLASH_DetectType.str1.1
                0x0000000023e754d8      0x11d drivers/built-in.o
 .rodata.HAL_SERFLASH_Init.str1.1
                0x0000000023e755f5        0xf drivers/built-in.o
 .rodata.HAL_SERFLASH_Read.str1.1
                0x0000000023e75604       0x14 drivers/built-in.o
 .rodata.HAL_SERFLASH_ReadUID.str1.1
                0x0000000023e75618       0x14 drivers/built-in.o
                                         0x16 (size before relaxing)
 .rodata.HAL_SERFLASH_SPSNDYB_UNLOCK.str1.1
                0x0000000023e7562c       0x1c drivers/built-in.o
 .rodata.HAL_SPINAND_BLOCKERASE.str1.1
                0x0000000023e75648       0x36 drivers/built-in.o
 .rodata.HAL_SPINAND_DumpCkg.str1.1
                0x0000000023e7567e       0x6a drivers/built-in.o
                                         0x7e (size before relaxing)
 .rodata.HAL_SPINAND_PROGRAM_BY_BDMA.str1.1
                0x0000000023e756e8       0x21 drivers/built-in.o
                                         0x3c (size before relaxing)
 .rodata.HAL_SPINAND_RFC.str1.1
                0x0000000023e75709       0x15 drivers/built-in.o
 .rodata.HAL_SPINAND_Read.str1.1
                0x0000000023e7571e       0x22 drivers/built-in.o
 .rodata.HAL_SPINAND_ReadID.str1.1
                0x0000000023e75740       0x22 drivers/built-in.o
 .rodata.HAL_SPINAND_ReadStatusRegister.str1.1
                0x0000000023e75762       0x21 drivers/built-in.o
 .rodata.HAL_SPINAND_Read_RandomIn.str1.1
                0x0000000023e75783       0x14 drivers/built-in.o
 .rodata.HAL_SPINAND_SetCKG.str1.1
                0x0000000023e75797       0x2f drivers/built-in.o
 .rodata.HAL_SPINAND_WB_DumpBBM.str1.1
                0x0000000023e757c6       0x23 drivers/built-in.o
 .rodata.HAL_SPINAND_Write.str1.1
                0x0000000023e757e9       0x15 drivers/built-in.o
 .rodata.HAL_SPI_GangBlockLock.str1.1
                0x0000000023e757fe        0x8 drivers/built-in.o
 .rodata.HalDispColorAdjustBrightness.str1.1
                0x0000000023e75806       0x1c drivers/built-in.o
 .rodata.HalDispColorAdjustHCS.str1.1
                0x0000000023e75822       0x25 drivers/built-in.o
 .rodata.HalDispColorAdjustVideoRGB.str1.1
                0x0000000023e75847       0x1d drivers/built-in.o
 .rodata.HalDispColorSeletYuvToRgbMatrix.str1.1
                0x0000000023e75864       0x30 drivers/built-in.o
 .rodata.HalDispColorSetColorCorrectMatrix.str1.1
                0x0000000023e75894       0x30 drivers/built-in.o
 .rodata.HalDispIfQuery.str1.1
                0x0000000023e758c4       0x4a drivers/built-in.o
 .rodata.HalDispIrqIoCtl.str1.1
                0x0000000023e7590e      0x1b6 drivers/built-in.o
                                        0x1d9 (size before relaxing)
 .rodata.HalDispMopRot0SetRotateMode.str1.1
                0x0000000023e75ac4       0x33 drivers/built-in.o
 .rodata.HalDispPqSetBwExtensionConfig.str1.1
                0x0000000023e75af7        0x7 drivers/built-in.o
 .rodata.HalDispPqSetPeaking.str1.1
                0x0000000023e75afe       0x1b drivers/built-in.o
 .rodata.HalPnlIfQuery.str1.1
                0x0000000023e75b19       0x27 drivers/built-in.o
 .rodata.HalPnlSetMipiDsiChSel.str1.1
                0x0000000023e75b40       0x1b drivers/built-in.o
 .rodata.HalPnlSetMipiDsiCtrlMode.str1.1
                0x0000000023e75b5b       0x3a drivers/built-in.o
                                         0x42 (size before relaxing)
 .rodata.HalPnlSetMipiDsiLongPacket.str1.1
                0x0000000023e75b95       0x88 drivers/built-in.o
 .rodata.HalPnlSetMipiDsiPhyTimConfig.str1.1
                0x0000000023e75c1d      0x154 drivers/built-in.o
 .rodata.HalPnlSetMipiDsiShortPacket.str1.1
                0x0000000023e75d71       0x73 drivers/built-in.o
 .rodata.HalPnlSetMipiDsiVideoTimingConfig.str1.1
                0x0000000023e75de4      0x1e0 drivers/built-in.o
                                        0x1ee (size before relaxing)
 .rodata.Hal_CARD_TransMIUAddr.str1.1
                0x0000000023e75fc4       0x12 drivers/built-in.o
 .rodata.Hal_HWI2C_Init.str1.1
                0x0000000023e75fd6       0x10 drivers/built-in.o
 .rodata.IPV_SDMMC_ADMA_RW.str1.1
                0x0000000023e75fe6       0x2a drivers/built-in.o
 .rodata.IPV_SDMMC_BurnRW.str1.1
                0x0000000023e76010      0x109 drivers/built-in.o
 .rodata.IPV_SDMMC_CIFD_RW.str1.1
                0x0000000023e76119       0x2a drivers/built-in.o
 .rodata.IPV_SDMMC_CardDetect.str1.1
                0x0000000023e76143       0x15 drivers/built-in.o
 .rodata.IPV_SDMMC_DMA_RW.part.3.str1.1
                0x0000000023e76158       0x3f drivers/built-in.o
 .rodata.IPV_SDMMC_Init.str1.1
                0x0000000023e76197       0x15 drivers/built-in.o
 .rodata.IPV_SDMMC_PowerSavingModeVerify.str1.1
                0x0000000023e761ac       0x13 drivers/built-in.o
 .rodata.IPV_SDMMC_SetBusTiming.str1.1
                0x0000000023e761bf       0x15 drivers/built-in.o
 .rodata.IPV_SDMMC_SetClock.str1.1
                0x0000000023e761d4       0x15 drivers/built-in.o
 .rodata.IPV_SDMMC_SetHighBus.str1.1
                0x0000000023e761e9       0x15 drivers/built-in.o
 .rodata.IPV_SDMMC_SetPAD.str1.1
                0x0000000023e761fe       0x15 drivers/built-in.o
 .rodata.IPV_SDMMC_SetWideBus.str1.1
                0x0000000023e76213       0x15 drivers/built-in.o
 .rodata.IPV_SDMMC_TestPattern.str1.1
                0x0000000023e76228       0x15 drivers/built-in.o
 .rodata.IPV_SDMMC_TimerTest.str1.1
                0x0000000023e7623d       0x1d drivers/built-in.o
 .rodata.MDrv_EMAC_DumpMem.str1.1
                0x0000000023e7625a       0x23 drivers/built-in.o
                                         0x29 (size before relaxing)
 .rodata.MDrv_EMAC_PhyAddrScan.str1.1
                0x0000000023e7627d       0x38 drivers/built-in.o
 .rodata.MDrv_EMAC_VarInit.str1.1
                0x0000000023e762b5       0x18 drivers/built-in.o
                                         0x20 (size before relaxing)
 .rodata.MDrv_EMAC_initialize.str1.1
                0x0000000023e762cd       0x4c drivers/built-in.o
 .rodata.MDrv_EMAC_rx.str1.1
                0x0000000023e76319        0x8 drivers/built-in.o
 .rodata.MDrv_EMAC_tx.str1.1
                0x0000000023e76321        0x8 drivers/built-in.o
 .rodata.MDrv_MAP_Read.str1.1
                0x0000000023e76329       0x14 drivers/built-in.o
 .rodata.MDrv_SERFLASH_AddressToBlock.str1.1
                0x0000000023e76329       0x10 drivers/built-in.o
 .rodata.MDrv_SERFLASH_BlockErase.str1.1
                0x0000000023e76339       0x18 drivers/built-in.o
 .rodata.MDrv_SERFLASH_DetectType.str1.1
                0x0000000023e76351        0x6 drivers/built-in.o
 .rodata.MDrv_SERFLASH_SectorErase.str1.1
                0x0000000023e76351       0x39 drivers/built-in.o
 .rodata.MDrv_SERFLASH_WriteProtect.str1.1
                0x0000000023e7638a        0x8 drivers/built-in.o
 .rodata.MDrv_SPINAND_GetMtdParts.str1.1
                0x0000000023e7638a       0xf8 drivers/built-in.o
 .rodata.MDrv_SPINAND_GetPartOffset.str1.1
                0x0000000023e76482       0x4c drivers/built-in.o
 .rodata.MDrv_SPINAND_IsGoodBlk.str1.1
                0x0000000023e764ce       0x2c drivers/built-in.o
 .rodata.MDrv_SPINAND_Read.str1.1
                0x0000000023e764fa       0x14 drivers/built-in.o
 .rodata.MDrv_SPINAND_ReadCISBlk.str1.1
                0x0000000023e764fa       0x16 drivers/built-in.o
 .rodata.MDrv_SPINAND_SearchCIS_in_DRAM.str1.1
                0x0000000023e76510      0x10a drivers/built-in.o
 .rodata.MDrv_SPINAND_SetDevDriving.str1.1
                0x0000000023e7661a       0x21 drivers/built-in.o
 .rodata.MDrv_SPINAND_WB_BBM.str1.1
                0x0000000023e7663b       0x29 drivers/built-in.o
 .rodata.MDrv_SPINAND_WriteCIS_for_ROM.str1.1
                0x0000000023e76664       0x60 drivers/built-in.o
 .rodata.MHAL_DISP_DbgLevel.str1.1
                0x0000000023e766c4       0x43 drivers/built-in.o
 .rodata.MHAL_DISP_DeviceAddOutInterface.str1.1
                0x0000000023e76707       0x27 drivers/built-in.o
 .rodata.MHAL_DISP_DeviceCreateInstance.str1.1
                0x0000000023e7672e       0x23 drivers/built-in.o
                                         0x49 (size before relaxing)
 .rodata.MHAL_DISP_DeviceDestroyInstance.str1.1
                0x0000000023e76751       0x49 drivers/built-in.o
 .rodata.MHAL_DISP_DeviceEnable.str1.1
                0x0000000023e7679a       0x24 drivers/built-in.o
 .rodata.MHAL_DISP_DeviceSetBackGroundColor.str1.1
                0x0000000023e767be       0x2a drivers/built-in.o
 .rodata.MHAL_DISP_DeviceSetOutputTiming.str1.1
                0x0000000023e767e8       0x27 drivers/built-in.o
 .rodata.MHAL_DISP_InitPanelConfig.str1.1
                0x0000000023e7680f       0x5b drivers/built-in.o
 .rodata.MHAL_DISP_InputPortCreateInstance.str1.1
                0x0000000023e7686a       0x33 drivers/built-in.o
 .rodata.MHAL_DISP_InputPortDestroyInstance.str1.1
                0x0000000023e7689d       0x28 drivers/built-in.o
 .rodata.MHAL_DISP_InputPortEnable.str1.1
                0x0000000023e768c5       0x28 drivers/built-in.o
 .rodata.MHAL_DISP_InputPortFlip.str1.1
                0x0000000023e768ed       0x65 drivers/built-in.o
 .rodata.MHAL_DISP_InputPortSetAttr.str1.1
                0x0000000023e76952       0x5c drivers/built-in.o
 .rodata.MHal_EMAC_CableConnection.str1.1
                0x0000000023e769ae       0x15 drivers/built-in.o
 .rodata.MHal_EMAC_CheckTSR.str1.1
                0x0000000023e769c3       0x13 drivers/built-in.o
 .rodata.MHal_EMAC_Ewavetest_100M.str1.1
                0x0000000023e769d6       0x11 drivers/built-in.o
 .rodata.MHal_EMAC_Ewavetest_10M_ALLONE.str1.1
                0x0000000023e769e7       0x17 drivers/built-in.o
 .rodata.MHal_EMAC_Ewavetest_10M_LTP.str1.1
                0x0000000023e769fe       0x14 drivers/built-in.o
 .rodata.MHal_EMAC_Ewavetest_10M_TPIDLE.str1.1
                0x0000000023e76a12       0x17 drivers/built-in.o
 .rodata.MHal_EMAC_HW_init.str1.1
                0x0000000023e76a29        0x9 drivers/built-in.o
 .rodata.MHal_EMAC_NegotiationPHY.str1.1
                0x0000000023e76a32       0x3a drivers/built-in.o
 .rodata.MHal_GPIO_Pad_Set.str1.1
                0x0000000023e76a6c       0x59 drivers/built-in.o
 .rodata.MIU_select_setting_ehc.str1.1
                0x0000000023e76ac5       0x60 drivers/built-in.o
 .rodata.MhalPnlDestroyInstance.str1.1
                0x0000000023e76b25       0x1e drivers/built-in.o
 .rodata.NetInitLoop.str1.1
                0x0000000023e76b43        0x6 net/built-in.o
                                         0x2d (size before relaxing)
 .rodata.NetLoop.str1.1
                0x0000000023e76b49       0xf0 net/built-in.o
                                         0xf9 (size before relaxing)
 .rodata.NetReceive.str1.1
                0x0000000023e76c39       0x1d net/built-in.o
 .rodata.NetStartAgain.str1.1
                0x0000000023e76c56        0xe net/built-in.o
                                         0x15 (size before relaxing)
 .rodata.PalSpinand_SetDriving.str1.1
                0x0000000023e76c64       0x46 drivers/built-in.o
 .rodata.SDMMC_SwitchHighBus.str1.1
                0x0000000023e76caa       0xe4 drivers/built-in.o
 .rodata.SetVideoContrastMatrix.str1.1
                0x0000000023e76d8e       0x2f drivers/built-in.o
 .rodata.TV_usb_init.str1.1
                0x0000000023e76dbd       0xbd drivers/built-in.o
 .rodata.TftpHandler.str1.1
                0x0000000023e76e7a       0x70 net/built-in.o
                                         0x81 (size before relaxing)
 .rodata.TftpSend.str1.1
                0x0000000023e76eea       0x36 net/built-in.o
                                         0x42 (size before relaxing)
 .rodata.TftpStart.str1.1
                0x0000000023e76f20      0x16f net/built-in.o
                                        0x184 (size before relaxing)
 .rodata.TftpTimeout.str1.1
                0x0000000023e7708f       0x2a net/built-in.o
                                         0x2d (size before relaxing)
 .rodata.Usb_host_Init.str1.1
                0x0000000023e770b9       0x45 drivers/built-in.o
 .rodata.WriteRegBitPos.str1.1
                0x0000000023e770fe       0x34 common/built-in.o
 .rodata._BootDbTable.str1.1
                0x0000000023e77132       0xa9 common/built-in.o
 .rodata._BootDispCtrl.str1.1
                0x0000000023e771db       0xce common/built-in.o
 .rodata._BootLogoYuv444ToYuv420.str1.1
                0x0000000023e772a9       0x38 common/built-in.o
 .rodata._DUMP_MEM_ARR.str1.1
                0x0000000023e772e1       0xc5 drivers/built-in.o
                                         0xd0 (size before relaxing)
 .rodata._DrvDispCtxAllocDevContain.str1.1
                0x0000000023e773a6       0x4a drivers/built-in.o
 .rodata._DrvDispCtxAllocInputPortContain.str1.1
                0x0000000023e773f0       0x1c drivers/built-in.o
 .rodata._DrvDispCtxInitDeviceContain.str1.1
                0x0000000023e7740c       0x2c drivers/built-in.o
 .rodata._DrvDispCtxInitHalContain.str1.1
                0x0000000023e77438       0x29 drivers/built-in.o
 .rodata._DrvDispCtxInitInputPortContain.str1.1
                0x0000000023e77461       0x2f drivers/built-in.o
 .rodata._DrvDispCtxInitVidLayerContain.str1.1
                0x0000000023e77490       0x2e drivers/built-in.o
 .rodata._DrvDispIfExecuteQuery.str1.1
                0x0000000023e774be      0x291 drivers/built-in.o
 .rodata._DrvDispIfTransDeviceOutpuTimingInfoToHal.str1.1
                0x0000000023e7774f      0x177 drivers/built-in.o
                                        0x188 (size before relaxing)
 .rodata._DrvDispIfTransInputPortAttrToHal.str1.1
                0x0000000023e778c6       0x25 drivers/built-in.o
 .rodata._DrvDispIfTransInputPortFrameDataToHal.str1.1
                0x0000000023e778eb       0x77 drivers/built-in.o
 .rodata._DrvDispIfTransVidLayerAttrToHal.str1.1
                0x0000000023e77962       0xa4 drivers/built-in.o
 .rodata._DrvPnlIfExecuteQuery.str1.1
                0x0000000023e77a06       0x49 drivers/built-in.o
                                         0xc9 (size before relaxing)
 .rodata._HAL_FSP_CHECK_SPINAND_DONE.str1.1
                0x0000000023e77a4f       0x21 drivers/built-in.o
 .rodata._HAL_FSP_SendOneCmd.str1.1
                0x0000000023e77a70       0x21 drivers/built-in.o
 .rodata._HAL_FSP_SendOneCmd3A.constprop.11.str1.1
                0x0000000023e77a91       0x20 drivers/built-in.o
 .rodata._HAL_FSP_WaitDone.str1.1
                0x0000000023e77ab1       0x25 drivers/built-in.o
 .rodata._HAL_PP_BDMAToFSP.str1.1
                0x0000000023e77ad6       0x57 drivers/built-in.o
 .rodata._HalDispIfGetCallBack.str1.1
                0x0000000023e77b2d       0x55 drivers/built-in.o
                                        0x28b (size before relaxing)
 .rodata._HalDispIfGetInfoClkGet.str1.1
                0x0000000023e77b82       0x1e drivers/built-in.o
 .rodata._HalDispIfGetInfoClkSet.str1.1
                0x0000000023e77ba0       0x33 drivers/built-in.o
 .rodata._HalDispIfGetInfoDevicTimeZone.str1.1
                0x0000000023e77bd3       0x14 drivers/built-in.o
 .rodata._HalDispIfGetInfoDeviceBackGroundColor.str1.1
                0x0000000023e77be7       0x14 drivers/built-in.o
 .rodata._HalDispIfGetInfoDeviceEnable.str1.1
                0x0000000023e77bfb       0x12 drivers/built-in.o
 .rodata._HalDispIfGetInfoDeviceGammaParam.str1.1
                0x0000000023e77c0d       0x4f drivers/built-in.o
 .rodata._HalDispIfGetInfoDeviceInterface.str1.1
                0x0000000023e77c5c       0x3a drivers/built-in.o
                                         0x42 (size before relaxing)
 .rodata._HalDispIfGetInfoDeviceLcdParam.str1.1
                0x0000000023e77c96       0xcf drivers/built-in.o
 .rodata._HalDispIfGetInfoDeviceOutputTiming.str1.1
                0x0000000023e77d65       0x3f drivers/built-in.o
 .rodata._HalDispIfGetInfoInputPortAttr.str1.1
                0x0000000023e77da4       0x25 drivers/built-in.o
 .rodata._HalDispIfGetInfoInputPortCrop.str1.1
                0x0000000023e77dc9       0x7e drivers/built-in.o
 .rodata._HalDispIfGetInfoInputPortEnable.str1.1
                0x0000000023e77e47       0x39 drivers/built-in.o
 .rodata._HalDispIfGetInfoInputPortFlip.str1.1
                0x0000000023e77e80       0xc0 drivers/built-in.o
                                        0x132 (size before relaxing)
 .rodata._HalDispIfGetInfoInputPortInit.str1.1
                0x0000000023e77f40       0x2a drivers/built-in.o
 .rodata._HalDispIfGetInfoInputPortRotate.str1.1
                0x0000000023e77f6a      0x107 drivers/built-in.o
 .rodata._HalDispIfSetAllMopgLineBufVal.str1.1
                0x0000000023e78071       0x2c drivers/built-in.o
 .rodata._HalDispIfSetClkSet.str1.1
                0x0000000023e7809d       0x39 drivers/built-in.o
 .rodata._HalDispIfSetDeviceLcdParam.str1.1
                0x0000000023e780d6       0x4b drivers/built-in.o
 .rodata._HalDispIfSetInputPortInit.str1.1
                0x0000000023e78121       0x7c drivers/built-in.o
 .rodata._HalDispIfSetInputPortRotate.str1.1
                0x0000000023e7819d       0x1e drivers/built-in.o
 .rodata._HalDispIfSetMopRotImiAddrManage.str1.1
                0x0000000023e781bb       0x2c drivers/built-in.o
 .rodata._HalDispIfSetMopgLineBufOrder.str1.1
                0x0000000023e781e7       0x39 drivers/built-in.o
 .rodata._HalDispIfSetMopgWinIsUsedForLbstart.str1.1
                0x0000000023e78220       0x2e drivers/built-in.o
 .rodata._HalDispMopgGwinRegBkMap.str1.1
                0x0000000023e7824e       0x31 drivers/built-in.o
 .rodata._HalPnlIfGetCallBack.str1.1
                0x0000000023e7827f       0x21 drivers/built-in.o
 .rodata._HalPnlIfGetInfoClkGetConfig.str1.1
                0x0000000023e782a0       0x5f drivers/built-in.o
 .rodata._HalPnlIfGetInfoClkSetConfig.str1.1
                0x0000000023e782ff       0x33 drivers/built-in.o
 .rodata._HalPnlIfGetInfoMipiDsiParamConfig.str1.1
                0x0000000023e78332       0x7c drivers/built-in.o
 .rodata._HalPnlIfGetInfoParamConfig.str1.1
                0x0000000023e783ae       0x84 drivers/built-in.o
                                         0x9a (size before relaxing)
 .rodata._HalPnlIfSetClkSetConfig.str1.1
                0x0000000023e78432       0x56 drivers/built-in.o
 .rodata._HalPnlIfSetMipiDsiParamConfig.str1.1
                0x0000000023e78488       0x64 drivers/built-in.o
 .rodata._Hal_HWI2C_GetPortRegOffset.str1.1
                0x0000000023e784ec       0x2e drivers/built-in.o
 .rodata._Hal_HWI2C_SetClk.str1.1
                0x0000000023e7851a       0x31 drivers/built-in.o
 .rodata._MDrv_SPINAND_GET_INFO.str1.1
                0x0000000023e7854b       0x4f drivers/built-in.o
                                         0x52 (size before relaxing)
 .rodata._MDrv_SPINAND_GetMtdPartsFromPNI.str1.1
                0x0000000023e7859a       0xb0 drivers/built-in.o
                                         0xec (size before relaxing)
 .rodata._PRT_ENTER.str1.1
                0x0000000023e7864a        0x3 drivers/built-in.o
 .rodata._PRT_LINE.str1.1
                0x0000000023e7864a       0x5d drivers/built-in.o
 .rodata._PRT_MSG.part.0.str1.1
                0x0000000023e786a7       0x1f drivers/built-in.o
                                         0x24 (size before relaxing)
 .rodata._PRT_MSG.str1.1
                0x0000000023e786c6        0x9 drivers/built-in.o
                                         0x10 (size before relaxing)
 .rodata._PRT_VALUE.part.1.str1.1
                0x0000000023e786cf        0xc drivers/built-in.o
                                          0xf (size before relaxing)
 .rodata._REG_ResetIP.str1.1
                0x0000000023e786db       0x49 drivers/built-in.o
 .rodata._SDMMC_EndProcess.isra.0.str1.1
                0x0000000023e78724      0x243 drivers/built-in.o
                                        0x28c (size before relaxing)
 .rodata.__DrvDispCtxBindInputPortWidthVidLayer.str1.1
                0x0000000023e78967       0x73 drivers/built-in.o
                                         0x7b (size before relaxing)
 .rodata.__FUNCTION__.6365
                0x0000000023e789da       0x1f common/built-in.o
 .rodata.__FUNCTION__.6403
                0x0000000023e789f9       0x12 drivers/built-in.o
 .rodata.__FUNCTION__.6477
                0x0000000023e78a0b       0x17 drivers/built-in.o
 .rodata.__FUNCTION__.6486
                0x0000000023e78a22        0xf common/built-in.o
 .rodata.__FUNCTION__.6552
                0x0000000023e78a31       0x22 drivers/built-in.o
 .rodata.__FUNCTION__.6561
                0x0000000023e78a53       0x20 drivers/built-in.o
 .rodata.__FUNCTION__.6572
                0x0000000023e78a73       0x1d drivers/built-in.o
 .rodata.__FUNCTION__.6579
                0x0000000023e78a90       0x16 drivers/built-in.o
 .rodata.__FUNCTION__.6607
                0x0000000023e78aa6       0x1b drivers/built-in.o
 .rodata.__FUNCTION__.6667
                0x0000000023e78ac1       0x19 drivers/built-in.o
 .rodata.__FUNCTION__.6674
                0x0000000023e78ada       0x1a drivers/built-in.o
 .rodata.__FUNCTION__.6681
                0x0000000023e78af4       0x1a drivers/built-in.o
 .rodata.__FUNCTION__.6682
                0x0000000023e78b0e       0x16 drivers/built-in.o
 .rodata.__FUNCTION__.6690
                0x0000000023e78b24       0x13 drivers/built-in.o
 .rodata.__FUNCTION__.6694
                0x0000000023e78b37       0x18 drivers/built-in.o
 .rodata.__FUNCTION__.6707
                0x0000000023e78b4f       0x15 drivers/built-in.o
 .rodata.__FUNCTION__.6714
                0x0000000023e78b64       0x13 drivers/built-in.o
 .rodata.__FUNCTION__.6720
                0x0000000023e78b77       0x11 drivers/built-in.o
 .rodata.__FUNCTION__.6744
                0x0000000023e78b88       0x19 drivers/built-in.o
 .rodata.__FUNCTION__.6755
                0x0000000023e78ba1        0xe drivers/built-in.o
 .rodata.__FUNCTION__.6770
                0x0000000023e78baf       0x27 drivers/built-in.o
 .rodata.__FUNCTION__.6771
                0x0000000023e78bd6       0x2c drivers/built-in.o
 .rodata.__FUNCTION__.6781
                0x0000000023e78c02       0x1d drivers/built-in.o
 .rodata.__FUNCTION__.6782
                0x0000000023e78c1f       0x1d drivers/built-in.o
 .rodata.__FUNCTION__.6791
                0x0000000023e78c3c       0x12 drivers/built-in.o
 .rodata.__FUNCTION__.6798
                0x0000000023e78c4e       0x1f drivers/built-in.o
 .rodata.__FUNCTION__.6814
                0x0000000023e78c6d       0x20 drivers/built-in.o
 .rodata.__FUNCTION__.6829
                0x0000000023e78c8d       0x1a drivers/built-in.o
 .rodata.__FUNCTION__.6838
                0x0000000023e78ca7       0x14 drivers/built-in.o
 .rodata.__FUNCTION__.6846
                0x0000000023e78cbb       0x18 drivers/built-in.o
 .rodata.__FUNCTION__.6849
                0x0000000023e78cd3       0x1b drivers/built-in.o
 .rodata.__FUNCTION__.6856
                0x0000000023e78cee       0x19 drivers/built-in.o
 .rodata.__FUNCTION__.6859
                0x0000000023e78d07        0xf drivers/built-in.o
 .rodata.__FUNCTION__.6872
                0x0000000023e78d16       0x20 drivers/built-in.o
 .rodata.__FUNCTION__.6893
                0x0000000023e78d36       0x1d drivers/built-in.o
 .rodata.__FUNCTION__.6895
                0x0000000023e78d53       0x21 drivers/built-in.o
 .rodata.__FUNCTION__.6906
                0x0000000023e78d74       0x1b drivers/built-in.o
 .rodata.__FUNCTION__.6907
                0x0000000023e78d8f       0x19 drivers/built-in.o
 .rodata.__FUNCTION__.6912
                0x0000000023e78da8       0x19 drivers/built-in.o
 .rodata.__FUNCTION__.6924
                0x0000000023e78dc1       0x1a drivers/built-in.o
 .rodata.__FUNCTION__.6930
                0x0000000023e78ddb       0x1c drivers/built-in.o
 .rodata.__FUNCTION__.6933
                0x0000000023e78df7       0x13 drivers/built-in.o
 .rodata.__FUNCTION__.6935
                0x0000000023e78e0a       0x14 drivers/built-in.o
 .rodata.__FUNCTION__.6937
                0x0000000023e78e1e       0x14 drivers/built-in.o
 .rodata.__FUNCTION__.6943
                0x0000000023e78e32       0x13 drivers/built-in.o
 .rodata.__FUNCTION__.6947
                0x0000000023e78e45       0x33 drivers/built-in.o
 .rodata.__FUNCTION__.6953
                0x0000000023e78e78       0x1f drivers/built-in.o
 .rodata.__FUNCTION__.6962
                0x0000000023e78e97       0x26 drivers/built-in.o
 .rodata.__FUNCTION__.6964
                0x0000000023e78ebd       0x17 drivers/built-in.o
 .rodata.__FUNCTION__.6970
                0x0000000023e78ed4       0x1c drivers/built-in.o
 .rodata.__FUNCTION__.6987
                0x0000000023e78ef0       0x19 drivers/built-in.o
 .rodata.__FUNCTION__.6990
                0x0000000023e78f09       0x18 drivers/built-in.o
 .rodata.__FUNCTION__.6996
                0x0000000023e78f21       0x23 drivers/built-in.o
 .rodata.__FUNCTION__.7005
                0x0000000023e78f44       0x1b drivers/built-in.o
 .rodata.__FUNCTION__.7010
                0x0000000023e78f5f       0x1b drivers/built-in.o
 .rodata.__FUNCTION__.7022
                0x0000000023e78f7a       0x1c drivers/built-in.o
 .rodata.__FUNCTION__.7030
                0x0000000023e78f96       0x13 drivers/built-in.o
 .rodata.__FUNCTION__.7037
                0x0000000023e78fa9       0x12 drivers/built-in.o
 .rodata.__FUNCTION__.7038
                0x0000000023e78fbb       0x1c drivers/built-in.o
 .rodata.__FUNCTION__.7041
                0x0000000023e78fd7       0x1b drivers/built-in.o
 .rodata.__FUNCTION__.7051
                0x0000000023e78ff2       0x16 drivers/built-in.o
 .rodata.__FUNCTION__.7052
                0x0000000023e79008       0x23 drivers/built-in.o
 .rodata.__FUNCTION__.7057
                0x0000000023e7902b       0x1d drivers/built-in.o
 .rodata.__FUNCTION__.7061
                0x0000000023e79048       0x15 drivers/built-in.o
 .rodata.__FUNCTION__.7063
                0x0000000023e7905d       0x1f drivers/built-in.o
 .rodata.__FUNCTION__.7069
                0x0000000023e7907c       0x22 drivers/built-in.o
 .rodata.__FUNCTION__.7078
                0x0000000023e7909e       0x16 drivers/built-in.o
 .rodata.__FUNCTION__.7080
                0x0000000023e790b4       0x2e drivers/built-in.o
 .rodata.__FUNCTION__.7086
                0x0000000023e790e2       0x14 drivers/built-in.o
 .rodata.__FUNCTION__.7092
                0x0000000023e790f6       0x17 drivers/built-in.o
 .rodata.__FUNCTION__.7110
                0x0000000023e7910d       0x13 drivers/built-in.o
 .rodata.__FUNCTION__.7130
                0x0000000023e79120       0x22 drivers/built-in.o
 .rodata.__FUNCTION__.7138
                0x0000000023e79142       0x1d drivers/built-in.o
 .rodata.__FUNCTION__.7144
                0x0000000023e7915f       0x19 drivers/built-in.o
 .rodata.__FUNCTION__.7146
                0x0000000023e79178       0x1a drivers/built-in.o
 .rodata.__FUNCTION__.7153
                0x0000000023e79192       0x1d drivers/built-in.o
 .rodata.__FUNCTION__.7158
                0x0000000023e791af       0x1f drivers/built-in.o
 .rodata.__FUNCTION__.7162
                0x0000000023e791ce       0x15 drivers/built-in.o
 .rodata.__FUNCTION__.7169
                0x0000000023e791e3       0x26 drivers/built-in.o
 .rodata.__FUNCTION__.7175
                0x0000000023e79209       0x31 drivers/built-in.o
 .rodata.__FUNCTION__.7181
                0x0000000023e7923a       0x20 drivers/built-in.o
 .rodata.__FUNCTION__.7188
                0x0000000023e7925a       0x20 drivers/built-in.o
 .rodata.__FUNCTION__.7195
                0x0000000023e7927a        0xe drivers/built-in.o
 .rodata.__FUNCTION__.7196
                0x0000000023e79288       0x1c drivers/built-in.o
 .rodata.__FUNCTION__.7200
                0x0000000023e792a4       0x39 drivers/built-in.o
 .rodata.__FUNCTION__.7261
                0x0000000023e792dd       0x23 drivers/built-in.o
 .rodata.__FUNCTION__.7320
                0x0000000023e79300       0x22 drivers/built-in.o
 .rodata.__FUNCTION__.7331
                0x0000000023e79322       0x18 drivers/built-in.o
 .rodata.__FUNCTION__.7332
                0x0000000023e7933a       0x28 drivers/built-in.o
 .rodata.__FUNCTION__.7335
                0x0000000023e79362       0x2a drivers/built-in.o
 .rodata.__FUNCTION__.7337
                0x0000000023e7938c       0x1a drivers/built-in.o
 .rodata.__FUNCTION__.7343
                0x0000000023e793a6       0x1b drivers/built-in.o
 .rodata.__FUNCTION__.7348
                0x0000000023e793c1       0x3f drivers/built-in.o
 .rodata.__FUNCTION__.7355
                0x0000000023e79400       0x32 drivers/built-in.o
 .rodata.__FUNCTION__.7372
                0x0000000023e79432       0x12 drivers/built-in.o
 .rodata.__FUNCTION__.7380
                0x0000000023e79444       0x2a drivers/built-in.o
 .rodata.__FUNCTION__.7385
                0x0000000023e7946e       0x18 drivers/built-in.o
 .rodata.__FUNCTION__.7389
                0x0000000023e79486       0x27 drivers/built-in.o
 .rodata.__FUNCTION__.7399
                0x0000000023e794ad       0x3a drivers/built-in.o
 .rodata.__FUNCTION__.7410
                0x0000000023e794e7       0x2a drivers/built-in.o
 .rodata.__FUNCTION__.7418
                0x0000000023e79511       0x21 drivers/built-in.o
 .rodata.__FUNCTION__.7430
                0x0000000023e79532       0x10 drivers/built-in.o
 .rodata.__FUNCTION__.7440
                0x0000000023e79542       0x19 drivers/built-in.o
 .rodata.__FUNCTION__.7450
                0x0000000023e7955b       0x1e drivers/built-in.o
 .rodata.__FUNCTION__.7453
                0x0000000023e79579       0x1e drivers/built-in.o
 .rodata.__FUNCTION__.7482
                0x0000000023e79597       0x27 drivers/built-in.o
 .rodata.__FUNCTION__.7499
                0x0000000023e795be       0x21 drivers/built-in.o
 .rodata.__FUNCTION__.7513
                0x0000000023e795df       0x24 drivers/built-in.o
 .rodata.__FUNCTION__.7542
                0x0000000023e79603       0x20 drivers/built-in.o
 .rodata.__FUNCTION__.7549
                0x0000000023e79623       0x1c drivers/built-in.o
 .rodata.__FUNCTION__.7549
                0x0000000023e7963f        0xb drivers/mtd/nand/built-in.o
 .rodata.__FUNCTION__.7558
                0x0000000023e7964a       0x22 drivers/built-in.o
 .rodata.__FUNCTION__.7573
                0x0000000023e7966c       0x22 drivers/built-in.o
 .rodata.__FUNCTION__.7594
                0x0000000023e7968e       0x1f drivers/built-in.o
 .rodata.__FUNCTION__.7638
                0x0000000023e796ad       0x21 drivers/built-in.o
 .rodata.__FUNCTION__.7692
                0x0000000023e796ce       0x11 drivers/mtd/nand/built-in.o
 .rodata.__FUNCTION__.7700
                0x0000000023e796df       0x1f drivers/built-in.o
 .rodata.__FUNCTION__.7716
                0x0000000023e796fe       0x1b drivers/built-in.o
 .rodata.__FUNCTION__.7745
                0x0000000023e79719       0x21 drivers/built-in.o
 .rodata.__FUNCTION__.7754
                0x0000000023e7973a       0x25 drivers/built-in.o
 .rodata.__FUNCTION__.7763
                0x0000000023e7975f       0x1d drivers/built-in.o
 .rodata.__FUNCTION__.7773
                0x0000000023e7977c       0x1f drivers/built-in.o
 .rodata.__FUNCTION__.7788
                0x0000000023e7979b       0x1e drivers/built-in.o
 .rodata.__FUNCTION__.7802
                0x0000000023e797b9       0x1b drivers/built-in.o
 .rodata.__FUNCTION__.7845
                0x0000000023e797d4       0x21 drivers/built-in.o
 .rodata.__FUNCTION__.7855
                0x0000000023e797f5       0x1f drivers/built-in.o
 .rodata.__FUNCTION__.7875
                0x0000000023e79814       0x1b drivers/built-in.o
 .rodata.__FUNCTION__.7886
                0x0000000023e7982f       0x21 drivers/built-in.o
 .rodata.__FUNCTION__.7899
                0x0000000023e79850       0x1d drivers/built-in.o
 .rodata.__FUNCTION__.7907
                0x0000000023e7986d       0x10 drivers/mtd/ubi/built-in.o
 .rodata.__FUNCTION__.7908
                0x0000000023e7987d       0x1f drivers/built-in.o
 .rodata.__FUNCTION__.7921
                0x0000000023e7989c       0x1b drivers/built-in.o
 .rodata.__FUNCTION__.7929
                0x0000000023e798b7       0x11 drivers/mtd/nand/built-in.o
 .rodata.__FUNCTION__.7930
                0x0000000023e798c8       0x18 drivers/built-in.o
 .rodata.__FUNCTION__.7941
                0x0000000023e798e0       0x18 drivers/built-in.o
 .rodata.__FUNCTION__.7947
                0x0000000023e798f8       0x14 drivers/built-in.o
 .rodata.__FUNCTION__.7952
                0x0000000023e7990c       0x16 drivers/built-in.o
 .rodata.__FUNCTION__.7966
                0x0000000023e79922        0xf drivers/built-in.o
 .rodata.__FUNCTION__.7977
                0x0000000023e79931       0x13 drivers/mtd/built-in.o
 .rodata.__FUNCTION__.8332
                0x0000000023e79944       0x12 drivers/mtd/nand/built-in.o
 .rodata.__FUNCTION__.8616
                0x0000000023e79956        0xe drivers/mtd/nand/built-in.o
 .rodata.__FUNCTION__.8925
                0x0000000023e79964        0xf drivers/mtd/nand/built-in.o
 .rodata.__FUNCTION__.9702
                0x0000000023e79973       0x18 common/built-in.o
 .rodata.__FUNCTION__.9755
                0x0000000023e7998b       0x10 common/built-in.o
 .rodata.__FUNCTION__.9780
                0x0000000023e7999b        0xe common/built-in.o
 .rodata.__HalDispIfPictureTransNonLinear.str1.1
                0x0000000023e799a9      0x10a drivers/built-in.o
 .rodata.__HalPnlIfSetLpllConfig.str1.1
                0x0000000023e79ab3      0x139 drivers/built-in.o
 .rodata.__HalPnlIfSetPolarityConfig.str1.1
                0x0000000023e79bec       0x71 drivers/built-in.o
 .rodata.__HalPnlIfSetSscConfig.str1.1
                0x0000000023e79c5d       0x29 drivers/built-in.o
 .rodata.__HalPnlIfSetTestPatConfig.str1.1
                0x0000000023e79c86       0x23 drivers/built-in.o
 .rodata.__HalPnlIfSetTimeGenConfig.str1.1
                0x0000000023e79ca9       0x75 drivers/built-in.o
 .rodata.__func__.6364
                0x0000000023e79d1e        0xa drivers/built-in.o
 .rodata.__func__.6488
                0x0000000023e79d28       0x10 common/built-in.o
 .rodata.__func__.6504
                0x0000000023e79d38        0xb common/built-in.o
 .rodata.__func__.6511
                0x0000000023e79d43        0xb common/built-in.o
 .rodata.__func__.6850
                0x0000000023e79d4e        0xe common/built-in.o
 .rodata.__func__.6876
                0x0000000023e79d5c       0x17 drivers/built-in.o
 .rodata.__func__.6887
                0x0000000023e79d73        0xe common/built-in.o
 .rodata.__func__.7177
                0x0000000023e79d81       0x19 common/built-in.o
 .rodata.__func__.7312
                0x0000000023e79d9a       0x11 common/built-in.o
 .rodata.__func__.7347
                0x0000000023e79dab       0x15 drivers/built-in.o
 .rodata.__func__.7380
                0x0000000023e79dc0       0x1c common/built-in.o
 .rodata.__func__.7394
                0x0000000023e79ddc       0x11 drivers/built-in.o
 .rodata.__func__.7402
                0x0000000023e79ded       0x11 drivers/built-in.o
 .rodata.__func__.7488
                0x0000000023e79dfe       0x13 drivers/built-in.o
 .rodata.__func__.7513
                0x0000000023e79e11       0x14 drivers/built-in.o
 .rodata.__func__.7535
                0x0000000023e79e25        0xd drivers/built-in.o
 .rodata.__func__.7716
                0x0000000023e79e32        0xb common/built-in.o
 .rodata.__func__.7717
                0x0000000023e79e3d       0x18 drivers/mtd/ubi/built-in.o
 .rodata.__func__.7755
                0x0000000023e79e55        0xf drivers/mtd/ubi/built-in.o
 .rodata.__func__.7767
                0x0000000023e79e64       0x12 drivers/mtd/ubi/built-in.o
 .rodata.__func__.7776
                0x0000000023e79e76       0x11 drivers/mtd/ubi/built-in.o
 .rodata.__func__.7777
                0x0000000023e79e87       0x17 drivers/mtd/ubi/built-in.o
 .rodata.__func__.7779
                0x0000000023e79e9e       0x1c drivers/mtd/ubi/built-in.o
 .rodata.__func__.7780
                0x0000000023e79eba        0x8 drivers/mtd/ubi/built-in.o
 .rodata.__func__.7792
                0x0000000023e79ec2        0xd drivers/mtd/ubi/built-in.o
 .rodata.__func__.7798
                0x0000000023e79ecf        0xb drivers/mtd/ubi/built-in.o
 .rodata.__func__.7804
                0x0000000023e79eda        0xe drivers/mtd/ubi/built-in.o
 .rodata.__func__.7807
                0x0000000023e79ee8       0x12 drivers/mtd/ubi/built-in.o
 .rodata.__func__.7809
                0x0000000023e79efa       0x11 drivers/mtd/ubi/built-in.o
 .rodata.__func__.7814
                0x0000000023e79f0b        0xc drivers/mtd/ubi/built-in.o
 .rodata.__func__.7830
                0x0000000023e79f17       0x12 drivers/mtd/ubi/built-in.o
 .rodata.__func__.7832
                0x0000000023e79f29        0xe drivers/mtd/ubi/built-in.o
 .rodata.__func__.7838
                0x0000000023e79f37       0x23 drivers/mtd/ubi/built-in.o
 .rodata.__func__.7840
                0x0000000023e79f5a        0x9 drivers/mtd/ubi/built-in.o
 .rodata.__func__.7842
                0x0000000023e79f63        0xd drivers/mtd/ubi/built-in.o
 .rodata.__func__.7843
                0x0000000023e79f70        0xd drivers/mtd/ubi/built-in.o
 .rodata.__func__.7844
                0x0000000023e79f7d        0xe drivers/mtd/ubi/built-in.o
 .rodata.__func__.7848
                0x0000000023e79f8b       0x1e drivers/built-in.o
 .rodata.__func__.7852
                0x0000000023e79fa9       0x10 drivers/mtd/ubi/built-in.o
 .rodata.__func__.7853
                0x0000000023e79fb9        0xf drivers/mtd/ubi/built-in.o
 .rodata.__func__.7860
                0x0000000023e79fc8       0x10 drivers/mtd/ubi/built-in.o
 .rodata.__func__.7863
                0x0000000023e79fd8       0x1e drivers/mtd/ubi/built-in.o
 .rodata.__func__.7865
                0x0000000023e79ff6       0x10 drivers/mtd/ubi/built-in.o
 .rodata.__func__.7867
                0x0000000023e7a006        0xd drivers/mtd/ubi/built-in.o
 .rodata.__func__.7868
                0x0000000023e7a013        0xb drivers/mtd/ubi/built-in.o
 .rodata.__func__.7873
                0x0000000023e7a01e       0x13 drivers/mtd/ubi/built-in.o
 .rodata.__func__.7874
                0x0000000023e7a031        0x8 drivers/mtd/ubi/built-in.o
 .rodata.__func__.7877
                0x0000000023e7a039       0x1b drivers/mtd/ubi/built-in.o
 .rodata.__func__.7883
                0x0000000023e7a054        0xb drivers/mtd/ubi/built-in.o
 .rodata.__func__.7886
                0x0000000023e7a05f       0x27 drivers/mtd/ubi/built-in.o
 .rodata.__func__.7894
                0x0000000023e7a086       0x11 drivers/mtd/ubi/built-in.o
 .rodata.__func__.7895
                0x0000000023e7a097       0x11 drivers/built-in.o
 .rodata.__func__.7895
                0x0000000023e7a0a8       0x28 drivers/mtd/ubi/built-in.o
 .rodata.__func__.7896
                0x0000000023e7a0d0       0x11 drivers/mtd/ubi/built-in.o
 .rodata.__func__.7898
                0x0000000023e7a0e1       0x16 drivers/mtd/ubi/built-in.o
 .rodata.__func__.7906
                0x0000000023e7a0f7       0x10 drivers/mtd/ubi/built-in.o
 .rodata.__func__.7910
                0x0000000023e7a107       0x14 drivers/mtd/ubi/built-in.o
 .rodata.__func__.7911
                0x0000000023e7a11b       0x13 drivers/mtd/ubi/built-in.o
 .rodata.__func__.7915
                0x0000000023e7a12e        0x9 drivers/mtd/ubi/built-in.o
 .rodata.__func__.7921
                0x0000000023e7a137       0x14 drivers/built-in.o
 .rodata.__func__.7924
                0x0000000023e7a14b        0x9 drivers/mtd/ubi/built-in.o
 .rodata.__func__.7925
                0x0000000023e7a154       0x13 drivers/mtd/ubi/built-in.o
 .rodata.__func__.7931
                0x0000000023e7a167       0x15 drivers/mtd/ubi/built-in.o
 .rodata.__func__.7933
                0x0000000023e7a17c       0x12 drivers/mtd/ubi/built-in.o
 .rodata.__func__.7934
                0x0000000023e7a18e       0x11 drivers/mtd/ubi/built-in.o
 .rodata.__func__.7939
                0x0000000023e7a19f        0xe drivers/mtd/ubi/built-in.o
 .rodata.__func__.7941
                0x0000000023e7a1ad       0x13 drivers/mtd/ubi/built-in.o
 .rodata.__func__.7944
                0x0000000023e7a1c0       0x16 drivers/mtd/ubi/built-in.o
 .rodata.__func__.7945
                0x0000000023e7a1d6       0x1b drivers/built-in.o
 .rodata.__func__.7946
                0x0000000023e7a1f1       0x1f drivers/built-in.o
 .rodata.__func__.7952
                0x0000000023e7a210       0x24 drivers/mtd/ubi/built-in.o
 .rodata.__func__.7956
                0x0000000023e7a234       0x19 drivers/built-in.o
 .rodata.__func__.7960
                0x0000000023e7a24d       0x17 drivers/built-in.o
 .rodata.__func__.7963
                0x0000000023e7a264        0xd drivers/mtd/ubi/built-in.o
 .rodata.__func__.7964
                0x0000000023e7a271       0x17 drivers/mtd/ubi/built-in.o
 .rodata.__func__.7971
                0x0000000023e7a288       0x1a drivers/built-in.o
 .rodata.__func__.7975
                0x0000000023e7a2a2        0xf drivers/mtd/ubi/built-in.o
 .rodata.__func__.7976
                0x0000000023e7a2b1       0x1b drivers/built-in.o
 .rodata.__func__.7976
                0x0000000023e7a2cc       0x14 drivers/mtd/ubi/built-in.o
 .rodata.__func__.7977
                0x0000000023e7a2e0       0x20 drivers/mtd/ubi/built-in.o
 .rodata.__func__.7984
                0x0000000023e7a300       0x11 drivers/mtd/ubi/built-in.o
 .rodata.__func__.7985
                0x0000000023e7a311       0x16 drivers/built-in.o
 .rodata.__func__.7993
                0x0000000023e7a327       0x17 drivers/built-in.o
 .rodata.__func__.7999
                0x0000000023e7a33e       0x16 drivers/mtd/ubi/built-in.o
 .rodata.__func__.8015
                0x0000000023e7a354       0x10 drivers/built-in.o
 .rodata.__func__.8016
                0x0000000023e7a364        0xd drivers/mtd/ubi/built-in.o
 .rodata.__func__.8059
                0x0000000023e7a371        0xc drivers/mtd/ubi/built-in.o
 .rodata.__func__.8089
                0x0000000023e7a37d        0xe drivers/mtd/ubi/built-in.o
 .rodata.__func__.8114
                0x0000000023e7a38b        0xe drivers/mtd/ubi/built-in.o
 .rodata.__func__.8120
                0x0000000023e7a399       0x16 drivers/mtd/ubi/built-in.o
 .rodata.__func__.8137
                0x0000000023e7a3af       0x11 drivers/mtd/ubi/built-in.o
 .rodata.__func__.8398
                0x0000000023e7a3c0       0x10 common/built-in.o
 .rodata.__func__.8701
                0x0000000023e7a3d0        0xf common/built-in.o
 .rodata.__func__.8709
                0x0000000023e7a3df       0x1a common/built-in.o
 .rodata.__put_mtd_device.str1.1
                0x0000000023e7a3f9       0x2c drivers/mtd/built-in.o
 .rodata._ctype
                0x0000000023e7a425      0x100 lib/built-in.o
                0x0000000023e7a425                _ctype
 .rodata._do_env_set.isra.0.str1.1
                0x0000000023e7a525       0x7c common/built-in.o
 .rodata._do_help.str1.1
                0x0000000023e7a5a1       0x5f common/built-in.o
 .rodata._initDebugLevel.str1.1
                0x0000000023e7a600       0x1e common/built-in.o
                                         0x29 (size before relaxing)
 .rodata._spi_flash_erase.str1.1
                0x0000000023e7a61e       0x19 drivers/built-in.o
 .rodata._spi_flash_write.str1.1
                0x0000000023e7a637       0x2f drivers/built-in.o
 .rodata._usb_init.str1.1
                0x0000000023e7a666       0x24 common/built-in.o
 .rodata._usb_lowlevel_init.str1.1
                0x0000000023e7a68a       0x77 drivers/built-in.o
 .rodata.add_mtd_device.str1.1
                0x0000000023e7a701       0x28 drivers/mtd/built-in.o
 .rodata.add_mtd_partitions.str1.1
                0x0000000023e7a729      0x192 drivers/mtd/built-in.o
 .rodata.add_to_list.str1.1
                0x0000000023e7a8bb       0x19 drivers/mtd/ubi/built-in.o
                                         0x2f (size before relaxing)
 .rodata.adjust_size_for_badblocks.str1.1
                0x0000000023e7a8d4       0x29 common/built-in.o
 .rodata.announce_dram_init.str1.1
                0x0000000023e7a8fd        0x8 common/built-in.o
 .rodata.arg_off.str1.1
                0x0000000023e7a905       0x30 common/built-in.o
 .rodata.arg_off_size.str1.1
                0x0000000023e7a935       0x71 common/built-in.o
 .rodata.autoboot_command.str1.1
                0x0000000023e7a9a6       0x88 common/built-in.o
                                         0xb1 (size before relaxing)
 .rodata.bad_mode.str1.1
                0x0000000023e7aa2e       0x13 arch/arm/lib/built-in.o
 .rodata.base_dither_matrix
                0x0000000023e7aa41      0x100 drivers/built-in.o
 .rodata.board_eth_init.str1.1
                0x0000000023e7ab41        0xb drivers/built-in.o
 .rodata.board_mmc_init.str1.1
                0x0000000023e7ab4c        0xd drivers/built-in.o
 .rodata.board_nand_init.str1.1
                0x0000000023e7ab59       0x8d drivers/built-in.o
                                         0xca (size before relaxing)
 .rodata.boot_get_ramdisk.str1.1
                0x0000000023e7abe6       0xb7 common/built-in.o
                                        0x10d (size before relaxing)
 .rodata.boot_jump_linux.isra.4.str1.1
                0x0000000023e7ac9d       0x5c arch/arm/lib/built-in.o
                                         0x5d (size before relaxing)
 .rodata.boot_prep_linux.str1.1
                0x0000000023e7acf9       0x17 arch/arm/lib/built-in.o
 .rodata.boot_ramdisk_high.str1.1
                0x0000000023e7ad10       0x54 common/built-in.o
 .rodata.bootdelay_process.str1.1
                0x0000000023e7ad64       0x2c common/built-in.o
                                         0x3c (size before relaxing)
 .rodata.bootm_decomp_image.str1.1
                0x0000000023e7ad90      0x163 common/built-in.o
 .rodata.bootm_disable_interrupts.str1.1
                0x0000000023e7aef3       0x42 common/built-in.o
 .rodata.bootm_find_ramdisk_fdt.str1.1
                0x0000000023e7af35       0x25 common/built-in.o
 .rodata.bootm_maybe_autostart.str1.1
                0x0000000023e7af5a       0x3b common/built-in.o
 .rodata.checkboard.str1.1
                0x0000000023e7af95        0xa arch/arm/cpu/armv7/built-in.o
                                          0xf (size before relaxing)
 .rodata.cli_readline_into_buffer.str1.1
                0x0000000023e7af9f        0x4 common/built-in.o
                                          0x8 (size before relaxing)
 .rodata.cli_simple_loop.str1.1
                0x0000000023e7afa3       0x1a common/built-in.o
 .rodata.cli_simple_parse_line.str1.1
                0x0000000023e7afbd       0x1f common/built-in.o
 .rodata.cli_simple_run_command.str1.1
                0x0000000023e7afdc       0x16 common/built-in.o
 .rodata.cmd_auto_complete.str1.1
                0x0000000023e7aff2       0x5f common/built-in.o
                                         0x18 (size before relaxing)
 .rodata.cmd_process.str1.1
                0x0000000023e7aff2       0x23 common/built-in.o
 .rodata.cmd_usage.str1.1
                0x0000000023e7b015       0x36 common/built-in.o
 .rodata.common_diskboot.str1.1
                0x0000000023e7b04b       0x78 common/built-in.o
                                         0x8f (size before relaxing)
 .rodata.confirm_yesno.str1.1
                0x0000000023e7b0c3       0x10 common/built-in.o
 .rodata.console_init_f.str1.1
                0x0000000023e7b0d3        0x7 common/built-in.o
 .rodata.cread_add_char.str1.1
                0x0000000023e7b0da        0x5 common/built-in.o
 .rodata.current_save.str1.1
                0x0000000023e7b0df        0x8 common/built-in.o
                                         0x12 (size before relaxing)
 .rodata.default_environment
                0x0000000023e7b0e7       0x78 common/built-in.o
                0x0000000023e7b0e7                default_environment
 .rodata.del_mtd_device.str1.1
                0x0000000023e7b15f       0x30 drivers/mtd/built-in.o
 .rodata.delims.6365
                0x0000000023e7b18f        0x3 common/built-in.o
 .rodata.dev_print.str1.1
                0x0000000023e7b192      0x14d disk/built-in.o
                                        0x15e (size before relaxing)
 .rodata.device_parse.str1.1
                0x0000000023e7b2df      0x151 common/built-in.o
                                        0x16c (size before relaxing)
 .rodata.digits.6362
                0x0000000023e7b430       0x10 lib/built-in.o
 .rodata.display_options.str1.1
                0x0000000023e7b440        0x7 lib/built-in.o
 .rodata.do_ECC.str1.1
                0x0000000023e7b447       0x1a common/built-in.o
 .rodata.do_aesdma.str1.1
                0x0000000023e7b461      0x188 common/built-in.o
 .rodata.do_auth.str1.1
                0x0000000023e7b5e9      0x1aa common/built-in.o
 .rodata.do_bootm.str1.1
                0x0000000023e7b793       0x2a common/built-in.o
 .rodata.do_bootm_netbsd.str1.1
                0x0000000023e7b7bd       0x49 common/built-in.o
                                         0x4a (size before relaxing)
 .rodata.do_bootm_plan9.str1.1
                0x0000000023e7b806       0x43 common/built-in.o
                                         0x4c (size before relaxing)
 .rodata.do_bootm_rtems.str1.1
                0x0000000023e7b849       0x39 common/built-in.o
 .rodata.do_bootm_standalone.str1.1
                0x0000000023e7b882        0xc common/built-in.o
                                         0x16 (size before relaxing)
 .rodata.do_bootm_states.str1.1
                0x0000000023e7b88e      0x23a common/built-in.o
                                        0x249 (size before relaxing)
 .rodata.do_bootvx_fdt.str1.1
                0x0000000023e7bac8       0x37 common/built-in.o
 .rodata.do_chpart.str1.1
                0x0000000023e7baff       0x39 common/built-in.o
 .rodata.do_data_abort.str1.1
                0x0000000023e7bb38        0xc arch/arm/lib/built-in.o
 .rodata.do_dcache.str1.1
                0x0000000023e7bb44       0x21 common/built-in.o
 .rodata.do_debug.str1.1
                0x0000000023e7bb65       0x26 common/built-in.o
 .rodata.do_display.str1.1
                0x0000000023e7bb8b      0x390 common/built-in.o
                                        0x3a3 (size before relaxing)
 .rodata.do_dstar.str1.1
                0x0000000023e7bf1b      0x236 common/built-in.o
 .rodata.do_eeprom.str1.1
                0x0000000023e7c151       0x39 common/built-in.o
                                         0x4a (size before relaxing)
 .rodata.do_emac.str1.1
                0x0000000023e7c18a       0x13 drivers/built-in.o
 .rodata.do_env_default.str1.1
                0x0000000023e7c19d       0x25 common/built-in.o
 .rodata.do_env_export.str1.1
                0x0000000023e7c1c2       0x41 common/built-in.o
                                         0x4a (size before relaxing)
 .rodata.do_env_import.str1.1
                0x0000000023e7c203      0x159 common/built-in.o
 .rodata.do_env_print.str1.1
                0x0000000023e7c35c       0x3d common/built-in.o
 .rodata.do_env_save.str1.1
                0x0000000023e7c399       0x1d common/built-in.o
 .rodata.do_fat_fsinfo.str1.1
                0x0000000023e7c3b6       0x56 common/built-in.o
 .rodata.do_fat_fsread.str1.1
                0x0000000023e7c40c       0xf8 common/built-in.o
                                         0xff (size before relaxing)
 .rodata.do_fat_read_at.str1.1
                0x0000000023e7c504       0x4a fs/built-in.o
                                         0x4b (size before relaxing)
 .rodata.do_fat_read_fstart.str1.1
                0x0000000023e7c54e       0x2a fs/built-in.o
 .rodata.do_fiq.str1.1
                0x0000000023e7c578       0x18 arch/arm/lib/built-in.o
 .rodata.do_go.str1.1
                0x0000000023e7c590       0x4f common/built-in.o
 .rodata.do_gpio.str1.1
                0x0000000023e7c5df       0x45 common/built-in.o
                                         0x54 (size before relaxing)
 .rodata.do_i2c_bus_num.str1.1
                0x0000000023e7c624       0x48 common/built-in.o
 .rodata.do_i2c_bus_speed.str1.1
                0x0000000023e7c66c       0x53 common/built-in.o
 .rodata.do_i2c_crc.str1.1
                0x0000000023e7c6bf       0x1f common/built-in.o
                                         0x26 (size before relaxing)
 .rodata.do_i2c_md.str1.1
                0x0000000023e7c6de        0xc common/built-in.o
                                         0x16 (size before relaxing)
 .rodata.do_i2c_probe.str1.1
                0x0000000023e7c6ea       0x1c common/built-in.o
 .rodata.do_i2c_read.str1.1
                0x0000000023e7c706       0x1f common/built-in.o
 .rodata.do_i2c_show_bus.str1.1
                0x0000000023e7c725       0x1b common/built-in.o
                                         0x1d (size before relaxing)
 .rodata.do_i2c_write.str1.1
                0x0000000023e7c740        0x8 common/built-in.o
 .rodata.do_icache.str1.1
                0x0000000023e7c748       0x19 common/built-in.o
                                         0x20 (size before relaxing)
 .rodata.do_initDebugLevel.str1.1
                0x0000000023e7c761        0xb common/built-in.o
 .rodata.do_irq.str1.1
                0x0000000023e7c76c       0x18 arch/arm/lib/built-in.o
                                         0x13 (size before relaxing)
 .rodata.do_load.str1.1
                0x0000000023e7c76c       0x3f fs/built-in.o
                                         0x52 (size before relaxing)
 .rodata.do_ls.str1.1
                0x0000000023e7c7ab        0x2 fs/built-in.o
 .rodata.do_mem_base.str1.1
                0x0000000023e7c7ad       0x17 common/built-in.o
 .rodata.do_mem_cmp.str1.1
                0x0000000023e7c7c4       0x69 common/built-in.o
                                         0x73 (size before relaxing)
 .rodata.do_mem_cp.str1.1
                0x0000000023e7c82d       0x11 common/built-in.o
 .rodata.do_mem_crc.str1.1
                0x0000000023e7c83e        0x6 common/built-in.o
 .rodata.do_mmc_dev.str1.1
                0x0000000023e7c83e       0x89 common/built-in.o
 .rodata.do_mmc_erase.str1.1
                0x0000000023e7c8c7       0x67 common/built-in.o
 .rodata.do_mmc_part.str1.1
                0x0000000023e7c92e       0x15 common/built-in.o
 .rodata.do_mmc_read.str1.1
                0x0000000023e7c943       0x4b common/built-in.o
 .rodata.do_mmc_setdsr.str1.1
                0x0000000023e7c98e       0x1d common/built-in.o
 .rodata.do_mmc_write.str1.1
                0x0000000023e7c9ab       0x4f common/built-in.o
 .rodata.do_mmcinfo.str1.1
                0x0000000023e7c9fa       0xb0 common/built-in.o
                                         0xba (size before relaxing)
 .rodata.do_mmcops.str1.1
                0x0000000023e7caaa       0x19 common/built-in.o
 .rodata.do_mstar.str1.1
                0x0000000023e7cac3       0x6b common/built-in.o
                                         0x87 (size before relaxing)
 .rodata.do_mtdparts.str1.1
                0x0000000023e7cb2e      0x20b common/built-in.o
                                        0x21a (size before relaxing)
 .rodata.do_mxp.str1.1
                0x0000000023e7cd39      0x150 common/built-in.o
                                        0x156 (size before relaxing)
 .rodata.do_nand.str1.1
                0x0000000023e7ce89      0x37a common/built-in.o
                                        0x3bd (size before relaxing)
 .rodata.do_nandboot.str1.1
                0x0000000023e7d203       0x52 common/built-in.o
 .rodata.do_not_used.str1.1
                0x0000000023e7d255       0x18 arch/arm/lib/built-in.o
                                          0xa (size before relaxing)
 .rodata.do_ping.str1.1
                0x0000000023e7d255       0x35 common/built-in.o
 .rodata.do_prefetch_abort.str1.1
                0x0000000023e7d28a       0x10 arch/arm/lib/built-in.o
 .rodata.do_readBBM.str1.1
                0x0000000023e7d29a       0x41 common/built-in.o
 .rodata.do_reset.str1.1
                0x0000000023e7d2db        0xf arch/arm/lib/built-in.o
 .rodata.do_riu.str1.1
                0x0000000023e7d2ea       0x4b common/built-in.o
                                         0x58 (size before relaxing)
 .rodata.do_run.str1.1
                0x0000000023e7d335       0x1c common/built-in.o
 .rodata.do_sdmmc_test.str1.1
                0x0000000023e7d335      0x283 common/built-in.o
                                        0x29a (size before relaxing)
 .rodata.do_sdstar.str1.1
                0x0000000023e7d5b8       0x96 common/built-in.o
                                         0xb5 (size before relaxing)
 .rodata.do_sensor_cfg.str1.1
                0x0000000023e7d64e       0x45 common/built-in.o
                                         0x59 (size before relaxing)
 .rodata.do_setMac.str1.1
                0x0000000023e7d693       0x4c drivers/built-in.o
                                         0x82 (size before relaxing)
 .rodata.do_set_debugging_message_level.str1.1
                0x0000000023e7d6df       0x61 common/built-in.o
                                         0x76 (size before relaxing)
 .rodata.do_setclk.str1.1
                0x0000000023e7d740       0x47 common/built-in.o
                                         0x4d (size before relaxing)
 .rodata.do_sfbin.str1.1
                0x0000000023e7d787       0x7e common/built-in.o
                                         0x86 (size before relaxing)
 .rodata.do_size.str1.1
                0x0000000023e7d805        0x9 fs/built-in.o
 .rodata.do_software_interrupt.str1.1
                0x0000000023e7d805       0x14 arch/arm/lib/built-in.o
 .rodata.do_spi_flash.str1.1
                0x0000000023e7d819      0x16d common/built-in.o
                                        0x194 (size before relaxing)
 .rodata.do_swapBlock.str1.1
                0x0000000023e7d986       0x22 common/built-in.o
 .rodata.do_sync_erase.part.7.str1.1
                0x0000000023e7d9a8       0xec drivers/mtd/ubi/built-in.o
 .rodata.do_uart.str1.1
                0x0000000023e7da94       0x79 common/built-in.o
                                         0x8c (size before relaxing)
 .rodata.do_ubi.str1.1
                0x0000000023e7db0d      0x4b5 common/built-in.o
                                        0x4dc (size before relaxing)
 .rodata.do_undefined_instruction.str1.1
                0x0000000023e7dfc2       0x17 arch/arm/lib/built-in.o
 .rodata.do_usb.str1.1
                0x0000000023e7dfd9      0x3e3 common/built-in.o
                                        0x433 (size before relaxing)
 .rodata.do_usbboot.str1.1
                0x0000000023e7e3bc        0x4 common/built-in.o
 .rodata.do_usbstar.str1.1
                0x0000000023e7e3c0       0xb8 common/built-in.o
                                         0xcd (size before relaxing)
 .rodata.do_ustar.str1.1
                0x0000000023e7e478      0x123 common/built-in.o
 .rodata.do_version.str1.1
                0x0000000023e7e59b       0xd4 common/built-in.o
                                         0xd9 (size before relaxing)
 .rodata.do_work.str1.1
                0x0000000023e7e66f       0x2f drivers/mtd/ubi/built-in.o
 .rodata.enable_caches.str1.1
                0x0000000023e7e69e       0x1d arch/arm/lib/built-in.o
 .rodata.env_callback_init.str1.1
                0x0000000023e7e6bb        0xb common/built-in.o
 .rodata.env_complete.str1.1
                0x0000000023e7e6c6        0x4 common/built-in.o
 .rodata.env_export.str1.1
                0x0000000023e7e6c6       0x3d common/built-in.o
 .rodata.env_flags_init.str1.1
                0x0000000023e7e6c6        0x7 common/built-in.o
 .rodata.env_flags_parse_varaccess.str1.1
                0x0000000023e7e6cd       0x3d common/built-in.o
 .rodata.env_flags_parse_vartype.str1.1
                0x0000000023e7e70a       0x34 common/built-in.o
 .rodata.env_flags_validate.str1.1
                0x0000000023e7e73e       0xb2 common/built-in.o
                                         0xb3 (size before relaxing)
 .rodata.env_flags_varaccess_rep
                0x0000000023e7e7f0        0x5 common/built-in.o
 .rodata.env_flags_vartype_rep
                0x0000000023e7e7f5        0x7 common/built-in.o
 .rodata.env_import.str1.1
                0x0000000023e7e7fc       0x4c common/built-in.o
                                         0x55 (size before relaxing)
 .rodata.env_print.str1.1
                0x0000000023e7e848       0x2c common/built-in.o
 .rodata.env_relocate_spec.str1.1
                0x0000000023e7e874       0xc1 common/built-in.o
 .rodata.erase_and_write_env.str1.1
                0x0000000023e7e935       0x2a common/built-in.o
                                         0x2e (size before relaxing)
 .rodata.erase_seq
                0x0000000023e7e95f        0x4 common/built-in.o
 .rodata.erase_worker.str1.1
                0x0000000023e7e963      0x1be drivers/mtd/ubi/built-in.o
                                        0x216 (size before relaxing)
 .rodata.eth_current_changed.str1.1
                0x0000000023e7eb21        0x7 net/built-in.o
 .rodata.eth_get_name.str1.1
                0x0000000023e7eb28        0x8 net/built-in.o
 .rodata.eth_getenv_enetaddr_by_index.str1.1
                0x0000000023e7eb30       0x10 net/built-in.o
 .rodata.eth_initialize.str1.1
                0x0000000023e7eb40       0x9a net/built-in.o
                                         0xbd (size before relaxing)
 .rodata.eth_setenv_enetaddr.str1.1
                0x0000000023e7ebda        0x4 net/built-in.o
 .rodata.eth_try_another.str1.1
                0x0000000023e7ebde        0xa net/built-in.o
                                          0xd (size before relaxing)
 .rodata.eth_write_hwaddr.str1.1
                0x0000000023e7ebe8      0x11c net/built-in.o
 .rodata.fat_read_file.str1.1
                0x0000000023e7ed04       0x1e fs/built-in.o
 .rodata.fat_register_device.str1.1
                0x0000000023e7ed04       0x2b fs/built-in.o
 .rodata.fat_set_blk_dev.str1.1
                0x0000000023e7ed2f        0x3 fs/built-in.o
                                          0xd (size before relaxing)
 .rodata.file_fat_detectfs.str1.1
                0x0000000023e7ed32       0x5c fs/built-in.o
                                         0x84 (size before relaxing)
 .rodata.file_fat_read_at.str1.1
                0x0000000023e7ed8e        0xc fs/built-in.o
 .rodata.find_dev_and_part.str1.1
                0x0000000023e7ed9a       0x6b common/built-in.o
 .rodata.find_mmc_device.str1.1
                0x0000000023e7ee05       0x19 drivers/mmc/built-in.o
 .rodata.flib_Host20_Asynchronous_Setting.str1.1
                0x0000000023e7ee1e       0xa3 drivers/built-in.o
 .rodata.flib_Host20_Bulk_Init.str1.1
                0x0000000023e7eec1       0x90 drivers/built-in.o
                                         0x97 (size before relaxing)
 .rodata.flib_Host20_CheckingForResult_QHD.str1.1
                0x0000000023e7ef51      0x1e0 drivers/built-in.o
 .rodata.flib_Host20_GetStructure.str1.1
                0x0000000023e7f131       0x15 drivers/built-in.o
 .rodata.flib_Host20_Init.str1.1
                0x0000000023e7f146       0x8c drivers/built-in.o
 .rodata.flib_Host20_Issue_Interrupt_NonBlock.str1.1
                0x0000000023e7f1d2       0x1d drivers/built-in.o
 .rodata.flib_Host20_Periodic_Setting.str1.1
                0x0000000023e7f1ef       0x97 drivers/built-in.o
 .rodata.flib_Host20_PortBusReset.str1.1
                0x0000000023e7f286       0x6c drivers/built-in.o
 .rodata.flib_Host20_QHD_Control_Init.str1.1
                0x0000000023e7f2f2       0x15 drivers/built-in.o
 .rodata.flib_Host20_ReleaseStructure.str1.1
                0x0000000023e7f307       0x27 drivers/built-in.o
 .rodata.flib_Host20_Reset_HC.str1.1
                0x0000000023e7f32e       0x19 drivers/built-in.o
 .rodata.flib_Host20_Send_qTD.str1.1
                0x0000000023e7f347       0x45 drivers/built-in.o
 .rodata.flib_Host20_Send_qTD2.str1.1
                0x0000000023e7f38c       0x44 drivers/built-in.o
 .rodata.flib_Host20_StopRun_Setting.str1.1
                0x0000000023e7f3d0       0xa7 drivers/built-in.o
 .rodata.fs_probe_unsupported.str1.1
                0x0000000023e7f477       0x24 fs/built-in.o
 .rodata.fs_read.str1.1
                0x0000000023e7f49b       0x1e fs/built-in.o
 .rodata.generate_mtdparts_save.constprop.6.str1.1
                0x0000000023e7f4b9       0x13 common/built-in.o
 .rodata.genimg_get_arch_name.str1.1
                0x0000000023e7f4cc       0x15 common/built-in.o
 .rodata.genimg_get_comp_name.str1.1
                0x0000000023e7f4e1       0x14 common/built-in.o
 .rodata.genimg_get_os_name.str1.1
                0x0000000023e7f4f5        0xb common/built-in.o
 .rodata.genimg_get_type_name.str1.1
                0x0000000023e7f500        0xe common/built-in.o
 .rodata.genimg_print_size.str1.1
                0x0000000023e7f50e        0xc common/built-in.o
                                          0xe (size before relaxing)
 .rodata.get_current.str1.1
                0x0000000023e7f51a       0x15 drivers/serial/built-in.o
 .rodata.get_dentfromdir.isra.1.str1.1
                0x0000000023e7f52f       0x38 fs/built-in.o
 .rodata.get_device.str1.1
                0x0000000023e7f567       0x6a disk/built-in.o
 .rodata.get_device_and_partition.str1.1
                0x0000000023e7f5d1      0x11b disk/built-in.o
                                        0x12f (size before relaxing)
 .rodata.get_mtd_info.constprop.9.str1.1
                0x0000000023e7f6ec       0x1b common/built-in.o
 .rodata.get_partition_info_extended.constprop.1.str1.1
                0x0000000023e7f707       0x7e disk/built-in.o
                                         0x85 (size before relaxing)
 .rodata.get_script_next_line.str1.1
                0x0000000023e7f785       0x2a common/built-in.o
 .rodata.get_sf_size.str1.1
                0x0000000023e7f7af       0x51 common/built-in.o
 .rodata.get_vfatname.str1.1
                0x0000000023e7f800       0x13 fs/built-in.o
 .rodata.getenv_bootm_low.str1.1
                0x0000000023e7f813        0xa common/built-in.o
 .rodata.getenv_bootm_size.str1.1
                0x0000000023e7f81d        0xb common/built-in.o
 .rodata.getenv_f.str1.1
                0x0000000023e7f828       0x30 common/built-in.o
 .rodata.gunzip.str1.1
                0x0000000023e7f858       0x3e lib/built-in.o
 .rodata.halt.str1.1
                0x0000000023e7f896        0x9 common/built-in.o
 .rodata.hang.str1.1
                0x0000000023e7f89f       0x2a lib/built-in.o
 .rodata.hash_command.str1.1
                0x0000000023e7f8c9       0x25 common/built-in.o
 .rodata.hex_asc
                0x0000000023e7f8ee       0x11 lib/built-in.o
 .rodata.hexport_r.str1.1
                0x0000000023e7f8ff       0x30 lib/built-in.o
 .rodata.himport_r.str1.1
                0x0000000023e7f92f       0x99 lib/built-in.o
 .rodata.i2c_get_adapter.str1.1
                0x0000000023e7f9c8       0x2d drivers/i2c/built-in.o
 .rodata.icmp_handler.str1.1
                0x0000000023e7f9f5       0x11 net/built-in.o
 .rodata.image_get_kernel.str1.1
                0x0000000023e7fa06       0x6f common/built-in.o
 .rodata.image_print_contents.str1.1
                0x0000000023e7fa75       0xa8 common/built-in.o
                                         0xac (size before relaxing)
 .rodata.index_partitions.str1.1
                0x0000000023e7fb1d       0x15 common/built-in.o
 .rodata.inflate.str1.1
                0x0000000023e7fb32      0x158 lib/built-in.o
 .rodata.inflate_fast.str1.1
                0x0000000023e7fc8a       0x50 lib/built-in.o
 .rodata.init_baud_rate.str1.1
                0x0000000023e7fcda        0x9 common/built-in.o
 .rodata.init_func_i2c.str1.1
                0x0000000023e7fce3        0x8 common/built-in.o
                                          0xf (size before relaxing)
 .rodata.init_func_watchdog_init.str1.1
                0x0000000023e7fceb       0x19 common/built-in.o
 .rodata.init_mmc_device.str1.1
                0x0000000023e7fd04       0x1a common/built-in.o
 .rodata.initcall_run_list.str1.1
                0x0000000023e7fd1e       0x31 lib/built-in.o
 .rodata.initr_env.str1.1
                0x0000000023e7fd4f        0x9 common/built-in.o
 .rodata.initr_ethaddr.str1.1
                0x0000000023e7fd4f        0x8 common/built-in.o
 .rodata.initr_mmc.str1.1
                0x0000000023e7fd57        0x8 common/built-in.o
 .rodata.initr_nand.str1.1
                0x0000000023e7fd5f       0x24 common/built-in.o
 .rodata.initr_net.str1.1
                0x0000000023e7fd83        0x8 common/built-in.o
 .rodata.initr_sstar.str1.1
                0x0000000023e7fd8b       0x12 common/built-in.o
 .rodata.ip_to_string.str1.1
                0x0000000023e7fd9d        0xc net/built-in.o
 .rodata.lmb_alloc_base.str1.1
                0x0000000023e7fda9       0x34 lib/built-in.o
 .rodata.match_string.isra.2.str1.1
                0x0000000023e7fddd       0x2c lib/built-in.o
 .rodata.memsize_format.str1.1
                0x0000000023e7fe09       0x17 common/built-in.o
 .rodata.mmc_berase.str1.1
                0x0000000023e7fe20       0x6f drivers/mmc/built-in.o
 .rodata.mmc_bread.str1.1
                0x0000000023e7fe8f       0x47 drivers/mmc/built-in.o
 .rodata.mmc_bwrite.str1.1
                0x0000000023e7fed6       0x12 drivers/mmc/built-in.o
                                         0x59 (size before relaxing)
 .rodata.mmc_core_init.str1.1
                0x0000000023e7fee8       0x20 drivers/built-in.o
 .rodata.mmc_select_hwpart.str1.1
                0x0000000023e7ff08       0x22 drivers/mmc/built-in.o
 .rodata.mmc_send_cmd.str1.1
                0x0000000023e7ff2a      0x11e drivers/built-in.o
 .rodata.mmc_send_status.str1.1
                0x0000000023e80048       0x32 drivers/mmc/built-in.o
 .rodata.mmc_start_init.str1.1
                0x0000000023e8007a       0x3f drivers/mmc/built-in.o
 .rodata.mmc_startup.str1.1
                0x0000000023e800b9       0x38 drivers/mmc/built-in.o
                                         0x3e (size before relaxing)
 .rodata.mod_i2c_mem.isra.5.str1.1
                0x0000000023e800f1       0x20 common/built-in.o
 .rodata.mod_mem.isra.2.part.3.str1.1
                0x0000000023e80111        0xc common/built-in.o
                                         0x1d (size before relaxing)
 .rodata.msFlash_ActiveFlash_Set_HW_WP.str1.1
                0x0000000023e8011d       0x3f drivers/built-in.o
 .rodata.ms_i2c_probe.str1.1
                0x0000000023e8015c       0x2e drivers/built-in.o
 .rodata.ms_uart_init.str1.1
                0x0000000023e8018a       0x23 drivers/built-in.o
 .rodata.ms_uart_padmux.str1.1
                0x0000000023e801ad       0x14 drivers/built-in.o
 .rodata.ms_uart_putc.str1.1
                0x0000000023e801c1        0xa drivers/built-in.o
 .rodata.mtd_id_parse.str1.1
                0x0000000023e801cb       0x3c common/built-in.o
 .rodata.mtd_part_info.str1.1
                0x0000000023e80207       0x3e common/built-in.o
                                         0x43 (size before relaxing)
 .rodata.mtdparts_init.str1.1
                0x0000000023e80245      0x19d common/built-in.o
 .rodata.mxp_get_record_by_index.str1.1
                0x0000000023e803e2       0x25 drivers/built-in.o
 .rodata.mxp_init.str1.1
                0x0000000023e80407       0x91 drivers/built-in.o
 .rodata.mxp_init_nor_flash.str1.1
                0x0000000023e80498       0x46 drivers/built-in.o
 .rodata.mxp_set_record.str1.1
                0x0000000023e804de       0x3e drivers/built-in.o
 .rodata.mybuffer.7024
                0x0000000023e8051c        0x4 drivers/built-in.o
 .rodata.names.6404
                0x0000000023e80520        0x6 lib/built-in.o
 .rodata.nand_ecc_precalc_table
                0x0000000023e80526      0x100 drivers/mtd/nand/built-in.o
 .rodata.nand_erase_opts.str1.1
                0x0000000023e80626      0x136 drivers/mtd/nand/built-in.o
                                        0x138 (size before relaxing)
 .rodata.nand_fill_oob.str1.1
                0x0000000023e8075c       0x1d drivers/mtd/nand/built-in.o
                                         0x3f (size before relaxing)
 .rodata.nand_init.str1.1
                0x0000000023e80779        0x9 drivers/mtd/nand/built-in.o
 .rodata.nand_load_image.str1.1
                0x0000000023e80782       0x72 common/built-in.o
 .rodata.nand_print_and_set_info.constprop.2.str1.1
                0x0000000023e807f4       0x84 common/built-in.o
                                         0x90 (size before relaxing)
 .rodata.nand_read_skip_bad.str1.1
                0x0000000023e80878       0xc2 drivers/mtd/nand/built-in.o
 .rodata.nand_register.str1.1
                0x0000000023e8093a        0x7 drivers/mtd/nand/built-in.o
 .rodata.nand_scan_ident.str1.1
                0x0000000023e80941       0x3c drivers/mtd/nand/built-in.o
                                         0x44 (size before relaxing)
 .rodata.nand_set_driving.str1.1
                0x0000000023e8097d       0x2a common/built-in.o
 .rodata.nand_wait.str1.1
                0x0000000023e809a7       0x17 drivers/mtd/nand/built-in.o
 .rodata.nand_write_skip_bad.str1.1
                0x0000000023e809be       0xc0 drivers/mtd/nand/built-in.o
 .rodata.net_auto_load.str1.1
                0x0000000023e80a7e        0x9 net/built-in.o
 .rodata.netboot_common.str1.1
                0x0000000023e80a87       0x57 common/built-in.o
                                         0x60 (size before relaxing)
 .rodata.nor_flash_mxp_update_byte.str1.1
                0x0000000023e80ade       0x79 drivers/built-in.o
 .rodata.nor_flash_mxp_write_bytes.str1.1
                0x0000000023e80b57       0x12 drivers/built-in.o
 .rodata.on_baudrate.str1.1
                0x0000000023e80b69       0x74 drivers/serial/built-in.o
 .rodata.on_callbacks.str1.1
                0x0000000023e80bdd       0x93 common/built-in.o
 .rodata.on_console.str1.1
                0x0000000023e80c70        0x7 common/built-in.o
                                         0x27 (size before relaxing)
 .rodata.on_flags.str1.1
                0x0000000023e80c70       0x17 common/built-in.o
 .rodata.otp_access.str1.1
                0x0000000023e80c87       0x51 common/built-in.o
                                         0x5c (size before relaxing)
 .rodata.output_message.str1.1
                0x0000000023e80cd8        0x4 drivers/built-in.o
 .rodata.parse_argv.str1.1
                0x0000000023e80cd8        0x6 common/built-in.o
                                          0xd (size before relaxing)
 .rodata.part_sort_add.str1.1
                0x0000000023e80cde       0x29 common/built-in.o
 .rodata.part_validate.str1.1
                0x0000000023e80d07      0x110 common/built-in.o
 .rodata.patterns
                0x0000000023e80e17        0x3 drivers/mtd/ubi/built-in.o
 .rodata.ping_start.str1.1
                0x0000000023e80e1a       0x11 net/built-in.o
 .rodata.print_buffer.str1.1
                0x0000000023e80e2b        0x6 lib/built-in.o
                                         0x17 (size before relaxing)
 .rodata.print_mmc_devices.str1.1
                0x0000000023e80e31        0x7 drivers/mmc/built-in.o
                                          0xe (size before relaxing)
 .rodata.print_mxp_record.str1.1
                0x0000000023e80e38       0x8f common/built-in.o
                                         0x92 (size before relaxing)
 .rodata.print_part.str1.1
                0x0000000023e80ec7       0x7a disk/built-in.o
                                         0x87 (size before relaxing)
 .rodata.print_part_dos.str1.1
                0x0000000023e80f41       0x2a disk/built-in.o
 .rodata.print_partition_extended.str1.1
                0x0000000023e80f6b       0x80 disk/built-in.o
                                         0x81 (size before relaxing)
 .rodata.print_size.str1.1
                0x0000000023e80feb       0x1e lib/built-in.o
 .rodata.prot_queue_del.str1.1
                0x0000000023e81009       0x43 drivers/mtd/ubi/built-in.o
 .rodata.raise.str1.1
                0x0000000023e8104c       0x1b arch/arm/lib/eabi_compat.o
 .rodata.read_bootsectandvi.str1.1
                0x0000000023e81067       0x1b fs/built-in.o
 .rodata.read_markers.str1.1
                0x0000000023e81082      0x1e0 drivers/built-in.o
                                          0x8 (size before relaxing)
 .rodata.runAuthenticate.str1.1
                0x0000000023e81082       0x3f drivers/built-in.o
 .rodata.s_length_dezigzag.3886
                0x0000000023e810c1       0x13 lib/built-in.o
 .rodata.saveenv.str1.1
                0x0000000023e810d4       0x99 common/built-in.o
 .rodata.self_check_ec_hdr.part.0.str1.1
                0x0000000023e8116d       0x5c drivers/mtd/ubi/built-in.o
 .rodata.self_check_in_wl_tree.str1.1
                0x0000000023e811c9       0x41 drivers/mtd/ubi/built-in.o
 .rodata.self_check_peb_ec_hdr.part.5.str1.1
                0x0000000023e8120a       0x36 drivers/mtd/ubi/built-in.o
 .rodata.self_check_vid_hdr.part.2.str1.1
                0x0000000023e81240       0x44 drivers/mtd/ubi/built-in.o
 .rodata.self_check_volumes.str1.1
                0x0000000023e81284      0x280 drivers/mtd/ubi/built-in.o
                                        0x2bd (size before relaxing)
 .rodata.set_default_env.str1.1
                0x0000000023e81504       0x5e common/built-in.o
                                         0x9b (size before relaxing)
 .rodata.set_dev.str1.1
                0x0000000023e81562       0x39 common/built-in.o
 .rodata.setenv.str1.1
                0x0000000023e8159b        0x7 common/built-in.o
 .rodata.setenv_hex.str1.1
                0x0000000023e815a2        0x4 common/built-in.o
 .rodata.show_regs.str1.1
                0x0000000023e815a6       0xf8 arch/arm/lib/built-in.o
                                        0x100 (size before relaxing)
 .rodata.spi_flash_probe.str1.1
                0x0000000023e8169e       0x36 drivers/built-in.o
                                         0x38 (size before relaxing)
 .rodata.spi_nand_cmdfunc.str1.1
                0x0000000023e816d4       0x7b drivers/built-in.o
 .rodata.spi_nand_ecc_read_oob.str1.1
                0x0000000023e8174f       0x23 drivers/built-in.o
 .rodata.spi_nand_ecc_read_page_raw.str1.1
                0x0000000023e81772       0x2c drivers/built-in.o
 .rodata.spi_nand_ecc_read_subpage.str1.1
                0x0000000023e8179e       0x51 drivers/built-in.o
 .rodata.spi_nand_ecc_write_oob.str1.1
                0x0000000023e817ef       0x24 drivers/built-in.o
 .rodata.spi_nand_write_page.str1.1
                0x0000000023e81813       0x25 drivers/built-in.o
 .rodata.stdio_add_devices.str1.1
                0x0000000023e81838        0x7 common/built-in.o
 .rodata.stdio_print_current_devices.str1.1
                0x0000000023e81838       0x70 common/built-in.o
                                         0x74 (size before relaxing)
 .rodata.str1.1
                0x0000000023e818a8       0xeb arch/arm/lib/built-in.o
 .rodata.str1.1
                0x0000000023e81993     0x2d6e common/built-in.o
                                       0x2e4e (size before relaxing)
 .rodata.str1.1
                0x0000000023e84701        0x8 disk/built-in.o
 .rodata.str1.1
                0x0000000023e84701     0x12e8 drivers/built-in.o
                                       0x12f5 (size before relaxing)
 .rodata.str1.1
                0x0000000023e859e9      0x5bb drivers/mtd/nand/built-in.o
 .rodata.str1.1
                0x0000000023e85fa4        0x9 drivers/serial/built-in.o
 .rodata.str1.1
                0x0000000023e85fa4        0x9 net/built-in.o
 .rodata.string.isra.0.str1.1
                0x0000000023e85fa4        0x7 lib/built-in.o
 .rodata.submit_int_msg.str1.1
                0x0000000023e85fab       0x29 drivers/built-in.o
 .rodata.tab_seq
                0x0000000023e85fd4        0x9 common/built-in.o
 .rodata.test_block_type.str1.1
                0x0000000023e85fdd        0xa disk/built-in.o
 .rodata.tftp_complete.str1.1
                0x0000000023e85fe7        0xb net/built-in.o
                                          0xe (size before relaxing)
 .rodata.tinfl_decompress.str1.1
                0x0000000023e85ff2        0xc lib/built-in.o
 .rodata.ubi_add_to_av.str1.1
                0x0000000023e85ffe       0x38 drivers/mtd/ubi/built-in.o
 .rodata.ubi_attach.str1.1
                0x0000000023e86036      0x876 drivers/mtd/ubi/built-in.o
 .rodata.ubi_attach_mtd_dev.str1.1
                0x0000000023e868ac      0x639 drivers/mtd/ubi/built-in.o
 .rodata.ubi_calculate_reserved.str1.1
                0x0000000023e86ee5       0x9a drivers/mtd/ubi/built-in.o
 .rodata.ubi_change_vtbl_record.str1.1
                0x0000000023e86f7f       0x39 drivers/mtd/ubi/built-in.o
                                         0x5b (size before relaxing)
 .rodata.ubi_compare_lebs.str1.1
                0x0000000023e86fb8       0x7b drivers/mtd/ubi/built-in.o
 .rodata.ubi_create_volume.str1.1
                0x0000000023e87033       0xdb drivers/mtd/ubi/built-in.o
                                        0x10e (size before relaxing)
 .rodata.ubi_detach_mtd_dev.str1.1
                0x0000000023e8710e       0x7a drivers/mtd/ubi/built-in.o
 .rodata.ubi_dump_flash.str1.1
                0x0000000023e87188       0x36 drivers/mtd/ubi/built-in.o
                                         0x85 (size before relaxing)
 .rodata.ubi_dump_vol_info.str1.1
                0x0000000023e871be      0x154 drivers/mtd/ubi/built-in.o
 .rodata.ubi_early_get_peb.str1.1
                0x0000000023e87312       0x5c drivers/mtd/ubi/built-in.o
 .rodata.ubi_eba_copy_leb.str1.1
                0x0000000023e8736e       0xff drivers/mtd/ubi/built-in.o
 .rodata.ubi_eba_init.str1.1
                0x0000000023e8746d       0xca drivers/mtd/ubi/built-in.o
                                         0xfd (size before relaxing)
 .rodata.ubi_eba_read_leb.str1.1
                0x0000000023e87537       0xbe drivers/mtd/ubi/built-in.o
 .rodata.ubi_eba_write_leb.str1.1
                0x0000000023e875f5      0x162 drivers/mtd/ubi/built-in.o
 .rodata.ubi_eba_write_leb_st.str1.1
                0x0000000023e87757       0x3d drivers/mtd/ubi/built-in.o
 .rodata.ubi_find_volume.str1.1
                0x0000000023e87794       0x16 common/built-in.o
 .rodata.ubi_init.str1.1
                0x0000000023e877aa       0xdd drivers/mtd/ubi/built-in.o
 .rodata.ubi_io_is_bad.str1.1
                0x0000000023e87887       0x39 drivers/mtd/ubi/built-in.o
 .rodata.ubi_io_mark_bad.str1.1
                0x0000000023e878c0       0x50 drivers/mtd/ubi/built-in.o
 .rodata.ubi_io_read.str1.1
                0x0000000023e87910       0xe7 drivers/mtd/ubi/built-in.o
                                         0xe8 (size before relaxing)
 .rodata.ubi_io_read_ec_hdr.str1.1
                0x0000000023e879f7       0xfc drivers/mtd/ubi/built-in.o
 .rodata.ubi_io_read_vid_hdr.str1.1
                0x0000000023e87af3       0x83 drivers/mtd/ubi/built-in.o
 .rodata.ubi_io_sync_erase.str1.1
                0x0000000023e87b76      0x149 drivers/mtd/ubi/built-in.o
 .rodata.ubi_io_write.str1.1
                0x0000000023e87cbf      0x1cd drivers/mtd/ubi/built-in.o
 .rodata.ubi_mtd_param_parse.str1.1
                0x0000000023e87e8c      0x188 drivers/mtd/ubi/built-in.o
                                        0x18a (size before relaxing)
 .rodata.ubi_part.str1.1
                0x0000000023e88014       0x81 common/built-in.o
                                         0x97 (size before relaxing)
 .rodata.ubi_read_volume_table.str1.1
                0x0000000023e88095      0x2d9 drivers/mtd/ubi/built-in.o
 .rodata.ubi_resize_volume.str1.1
                0x0000000023e8836e       0x74 drivers/mtd/ubi/built-in.o
 .rodata.ubi_self_check_all_ff.str1.1
                0x0000000023e883e2      0x101 drivers/mtd/ubi/built-in.o
 .rodata.ubi_update_reserved.str1.1
                0x0000000023e884e3       0x31 drivers/mtd/ubi/built-in.o
 .rodata.ubi_volume_begin_write.str1.1
                0x0000000023e88514       0x3b common/built-in.o
 .rodata.ubi_volume_continue_write.str1.1
                0x0000000023e8854f       0x5b common/built-in.o
 .rodata.ubi_volume_read.str1.1
                0x0000000023e885aa       0x8d common/built-in.o
 .rodata.ubi_wl_get_peb.str1.1
                0x0000000023e88637       0x3b drivers/mtd/ubi/built-in.o
                                         0x5f (size before relaxing)
 .rodata.ubi_wl_init.str1.1
                0x0000000023e88672        0xb drivers/mtd/ubi/built-in.o
                                         0x7b (size before relaxing)
 .rodata.ubi_wl_put_peb.str1.1
                0x0000000023e8867d       0x21 drivers/mtd/ubi/built-in.o
 .rodata.ubi_wl_scrub_peb.str1.1
                0x0000000023e8869e       0x24 drivers/mtd/ubi/built-in.o
 .rodata.us_direction
                0x0000000023e886c2       0x20 common/built-in.o
 .rodata.usb_alloc_new_device.str1.1
                0x0000000023e886e2       0x25 common/built-in.o
 .rodata.usb_display_class_sub.str1.1
                0x0000000023e88707       0xb6 common/built-in.o
                                         0xbc (size before relaxing)
 .rodata.usb_display_config.str1.1
                0x0000000023e887bd      0x10d common/built-in.o
                                        0x11a (size before relaxing)
 .rodata.usb_display_desc.str1.1
                0x0000000023e888ca       0xac common/built-in.o
 .rodata.usb_display_string.str1.1
                0x0000000023e88976        0xd common/built-in.o
 .rodata.usb_get_class_desc.str1.1
                0x0000000023e88983       0x64 common/built-in.o
                                         0x65 (size before relaxing)
 .rodata.usb_get_configuration_no.str1.1
                0x0000000023e889e7       0x85 common/built-in.o
 .rodata.usb_hub_allocate.str1.1
                0x0000000023e88a6c       0x21 common/built-in.o
 .rodata.usb_hub_configure.str1.1
                0x0000000023e88a8d       0x7d common/built-in.o
                                         0x84 (size before relaxing)
 .rodata.usb_hub_port_connect_change.str1.1
                0x0000000023e88b0a       0x18 common/built-in.o
 .rodata.usb_init_exhub_port.str1.1
                0x0000000023e88b22       0x3e common/built-in.o
 .rodata.usb_lowlevel_stop.str1.1
                0x0000000023e88b60       0x35 drivers/built-in.o
 .rodata.usb_new_device.str1.1
                0x0000000023e88b95      0x23a common/built-in.o
 .rodata.usb_parse_config.str1.1
                0x0000000023e88dcf      0x1a2 common/built-in.o
 .rodata.usb_preinit.str1.1
                0x0000000023e88f71       0x57 common/built-in.o
 .rodata.usb_scan_devices.str1.1
                0x0000000023e88fc8       0x47 common/built-in.o
 .rodata.usb_set_interface.str1.1
                0x0000000023e8900f       0x1f common/built-in.o
 .rodata.usb_show_tree_graph.str1.1
                0x0000000023e8902e       0x2b common/built-in.o
                                         0x3a (size before relaxing)
 .rodata.usb_stor_CBI_get_status.isra.4.str1.1
                0x0000000023e89059       0x1f common/built-in.o
 .rodata.usb_stor_CB_transport.str1.1
                0x0000000023e89078       0x6e common/built-in.o
 .rodata.usb_stor_get_info.str1.1
                0x0000000023e890e6       0x5d common/built-in.o
 .rodata.usb_stor_info.str1.1
                0x0000000023e89143       0x32 common/built-in.o
                                         0x40 (size before relaxing)
 .rodata.usb_stor_scan.str1.1
                0x0000000023e89175       0x75 common/built-in.o
 .rodata.usb_storage_probe.str1.1
                0x0000000023e891ea       0x5c common/built-in.o
 .rodata.validate_ec_hdr.str1.1
                0x0000000023e89246      0x111 drivers/mtd/ubi/built-in.o
 .rodata.validate_vid_hdr.isra.1.str1.1
                0x0000000023e89357      0x13d drivers/mtd/ubi/built-in.o
                                        0x1cf (size before relaxing)
 .rodata.validate_vid_hdr.str1.1
                0x0000000023e89494       0xc8 drivers/mtd/ubi/built-in.o
 .rodata.var_complete.str1.1
                0x0000000023e8955c        0x1 common/built-in.o
 .rodata.verify_bbt_descr.str1.1
                0x0000000023e8955c       0x1c drivers/mtd/nand/built-in.o
                                         0x3e (size before relaxing)
 .rodata.version_string
                0x0000000023e89578       0x28 common/built-in.o
                0x0000000023e89578                version_string
 .rodata.vtbl_check.str1.1
                0x0000000023e895a0      0x114 drivers/mtd/ubi/built-in.o
 .rodata.wear_leveling_worker.str1.1
                0x0000000023e896b4      0x124 drivers/mtd/ubi/built-in.o
 .rodata.writeSpinandCIS.str1.1
                0x0000000023e897d8       0xce common/built-in.o
                                         0xd7 (size before relaxing)
 .rodata.xhci_ppc.str1.1
                0x0000000023e898a6       0x9d drivers/built-in.o
                                         0xa4 (size before relaxing)
 .rodata.xhci_ssport_set_state.str1.1
                0x0000000023e89943       0x2d drivers/built-in.o
 .rodata.xz_dec_lzma2_create.str1.1
                0x0000000023e89970       0x42 lib/built-in.o
 .rodata.xz_dec_run.str1.1
                0x0000000023e899b2        0x9 lib/built-in.o
 .rodata.zunzip.str1.1
                0x0000000023e899bb       0x47 lib/built-in.o

.hash           0x0000000023e89a04       0x18
 .hash          0x0000000023e89a04       0x18 arch/arm/cpu/armv7/start.o
                0x0000000023e89a1c                . = ALIGN (0x4)

.data           0x0000000023e89a20     0xa3d4
 *(.data*)
 .data.rel.ro   0x0000000023e89a20        0x0 arch/arm/cpu/armv7/start.o
 .data.UBT_VERSION
                0x0000000023e89a20       0x20 arch/arm/cpu/armv7/built-in.o
                0x0000000023e89a20                UBT_VERSION
 .data.init_sequence_f
                0x0000000023e89a40       0xa4 common/built-in.o
 .data.init_sequence_r
                0x0000000023e89ae4       0x8c common/built-in.o
                0x0000000023e89ae4                init_sequence_r
 .data.bootm_help_text
                0x0000000023e89b70      0x245 common/built-in.o
 *fill*         0x0000000023e89db5        0x3 
 .data.cmd_bootm_sub
                0x0000000023e89db8       0xe0 common/built-in.o
 .data.first_call
                0x0000000023e89e98        0x8 common/built-in.o
 .data.env_name_spec
                0x0000000023e89ea0        0x4 common/built-in.o
                0x0000000023e89ea0                env_name_spec
 *fill*         0x0000000023e89ea4        0x4 
 .data.location.7982
                0x0000000023e89ea8       0x60 common/built-in.o
 .data.cmd_i2c_sub
                0x0000000023e89f08      0x16c common/built-in.o
 .data.i2c_dp_last_length
                0x0000000023e8a074        0x4 common/built-in.o
 .data.i2c_help_text
                0x0000000023e8a078      0x333 common/built-in.o
 *fill*         0x0000000023e8a3ab        0x1 
 .data.dp_last_length
                0x0000000023e8a3ac        0x4 common/built-in.o
 .data.cmd_mmc  0x0000000023e8a3b0       0xfc common/built-in.o
 .data.curr_device
                0x0000000023e8a4ac        0x4 common/built-in.o
 .data.mtdparts_help_text
                0x0000000023e8a4b0      0x4d3 common/built-in.o
 .data.nand_help_text
                0x0000000023e8a983      0x59d common/built-in.o
 .data.usb_stor_curr_dev
                0x0000000023e8af20        0x4 common/built-in.o
 .data.g_u3_chk_conn_time
                0x0000000023e8af24        0x4 common/built-in.o
                0x0000000023e8af24                g_u3_chk_conn_time
 .data.target_ext_hub_port
                0x0000000023e8af28        0x4 common/built-in.o
                0x0000000023e8af28                target_ext_hub_port
 .data.stTimingTable
                0x0000000023e8af2c      0x188 common/built-in.o
                0x0000000023e8af2c                stTimingTable
 .data.u32BootlogDvgLevel
                0x0000000023e8b0b4        0x4 common/built-in.o
                0x0000000023e8b0b4                u32BootlogDvgLevel
 .data.cmd_env_sub
                0x0000000023e8b0b8       0xe0 common/built-in.o
 .data.env_help_text
                0x0000000023e8b198      0x1f3 common/built-in.o
 *fill*         0x0000000023e8b38b        0x1 
 .data.env_id   0x0000000023e8b38c        0x4 common/built-in.o
 .data.env_htab
                0x0000000023e8b390       0x10 common/built-in.o
                0x0000000023e8b390                env_htab
 .data.av_      0x0000000023e8b3a0      0x408 common/built-in.o
 .data.sbrk_base
                0x0000000023e8b7a8        0x4 common/built-in.o
 .data.trim_threshold
                0x0000000023e8b7ac        0x4 common/built-in.o
 .data.load_addr
                0x0000000023e8b7b0        0x4 common/built-in.o
                0x0000000023e8b7b0                load_addr
 .data.stdio_names
                0x0000000023e8b7b4        0xc common/built-in.o
                0x0000000023e8b7b4                stdio_names
 .data.hist_cur
                0x0000000023e8b7c0        0x4 common/built-in.o
 .data.uart_help_text
                0x0000000023e8b7c4       0xc9 common/built-in.o
 *fill*         0x0000000023e8b88d        0x3 
 .data.dbgLevel
                0x0000000023e8b890        0x4 common/built-in.o
                0x0000000023e8b890                dbgLevel
 .data.ms_serial_drv
                0x0000000023e8b894       0x30 drivers/built-in.o
 .data.ge_IPSlot
                0x0000000023e8b8c4        0xc drivers/built-in.o
 .data.ge_PADSlot
                0x0000000023e8b8d0        0xc drivers/built-in.o
 .data.ge_PORTSlot
                0x0000000023e8b8dc        0xc drivers/built-in.o
 .data._hal_isp
                0x0000000023e8b8e8       0x10 drivers/built-in.o
 .data._u8RegEAR
                0x0000000023e8b8f8        0x1 drivers/built-in.o
                0x0000000023e8b8f8                _u8RegEAR
 *fill*         0x0000000023e8b8f9        0x3 
 .data.gReadMode
                0x0000000023e8b8fc        0x4 drivers/built-in.o
                0x0000000023e8b8fc                gReadMode
 .data._hal_SERFLASH_table
                0x0000000023e8b900      0xdc0 drivers/built-in.o
                0x0000000023e8b900                _hal_SERFLASH_table
 .data._pstWriteProtectTable_AT25DF321
                0x0000000023e8c6c0       0x18 drivers/built-in.o
 .data._pstWriteProtectTable_AT26DF321
                0x0000000023e8c6d8       0xa8 drivers/built-in.o
 .data._pstWriteProtectTable_EN25F16
                0x0000000023e8c780       0x60 drivers/built-in.o
 .data._pstWriteProtectTable_EN25F32
                0x0000000023e8c7e0       0xc0 drivers/built-in.o
 .data._pstWriteProtectTable_EN25F40
                0x0000000023e8c8a0       0x60 drivers/built-in.o
 .data._pstWriteProtectTable_EN25F80
                0x0000000023e8c900       0x60 drivers/built-in.o
 .data._pstWriteProtectTable_EN25P16
                0x0000000023e8c960       0x60 drivers/built-in.o
 .data._pstWriteProtectTable_EN25Q128
                0x0000000023e8c9c0       0xc0 drivers/built-in.o
 .data._pstWriteProtectTable_EN25Q16
                0x0000000023e8ca80       0xc0 drivers/built-in.o
 .data._pstWriteProtectTable_EN25Q32A
                0x0000000023e8cb40       0xc0 drivers/built-in.o
 .data._pstWriteProtectTable_EN25Q64
                0x0000000023e8cc00       0xc0 drivers/built-in.o
 .data._pstWriteProtectTable_EN25QH128A
                0x0000000023e8ccc0       0xc0 drivers/built-in.o
                0x0000000023e8ccc0                _pstWriteProtectTable_EN25QH128A
 .data._pstWriteProtectTable_EN25QH64A
                0x0000000023e8cd80      0x180 drivers/built-in.o
 .data._pstWriteProtectTable_FS25Q128F2TFI
                0x0000000023e8cf00      0x180 drivers/built-in.o
 .data._pstWriteProtectTable_GD25Q128_CMP0
                0x0000000023e8d080      0x120 drivers/built-in.o
 .data._pstWriteProtectTable_GD25Q16_CMP0
                0x0000000023e8d1a0       0xf0 drivers/built-in.o
 .data._pstWriteProtectTable_GD25Q32_CMP0
                0x0000000023e8d290      0x180 drivers/built-in.o
 .data._pstWriteProtectTable_IC25LP128
                0x0000000023e8d410       0xc0 drivers/built-in.o
 .data._pstWriteProtectTable_M25P16
                0x0000000023e8d4d0       0x60 drivers/built-in.o
 .data._pstWriteProtectTable_M25PX16
                0x0000000023e8d530       0xc0 drivers/built-in.o
 .data._pstWriteProtectTable_MX25L12805D
                0x0000000023e8d5f0       0x78 drivers/built-in.o
 .data._pstWriteProtectTable_MX25L12845E
                0x0000000023e8d668       0xc0 drivers/built-in.o
                0x0000000023e8d668                _pstWriteProtectTable_MX25L12845E
 .data._pstWriteProtectTable_MX25L1606E
                0x0000000023e8d728       0xc0 drivers/built-in.o
 .data._pstWriteProtectTable_MX25L3205D
                0x0000000023e8d7e8       0xa8 drivers/built-in.o
 .data._pstWriteProtectTable_MX25L3206E
                0x0000000023e8d890       0xc0 drivers/built-in.o
 .data._pstWriteProtectTable_MX25L4006E
                0x0000000023e8d950       0x60 drivers/built-in.o
 .data._pstWriteProtectTable_MX25L6405D
                0x0000000023e8d9b0       0xa8 drivers/built-in.o
 .data._pstWriteProtectTable_MX25L6406E
                0x0000000023e8da58       0xa8 drivers/built-in.o
 .data._pstWriteProtectTable_MX25L6445E
                0x0000000023e8db00       0xc0 drivers/built-in.o
                0x0000000023e8db00                _pstWriteProtectTable_MX25L6445E
 .data._pstWriteProtectTable_MX25L6455E
                0x0000000023e8dbc0       0xc0 drivers/built-in.o
 .data._pstWriteProtectTable_MX25L8005
                0x0000000023e8dc80       0x60 drivers/built-in.o
 .data._pstWriteProtectTable_N25Q128
                0x0000000023e8dce0       0xc0 drivers/built-in.o
 .data._pstWriteProtectTable_N25Q32
                0x0000000023e8dda0       0xc0 drivers/built-in.o
 .data._pstWriteProtectTable_N25Q64
                0x0000000023e8de60       0xc0 drivers/built-in.o
 .data._pstWriteProtectTable_PM25LQ032C
                0x0000000023e8df20       0xc0 drivers/built-in.o
 .data._pstWriteProtectTable_PN25F128B
                0x0000000023e8dfe0      0x180 drivers/built-in.o
 .data._pstWriteProtectTable_PN25F64B
                0x0000000023e8e160      0x180 drivers/built-in.o
 .data._pstWriteProtectTable_S25FL008A
                0x0000000023e8e2e0       0x60 drivers/built-in.o
 .data._pstWriteProtectTable_S25FL032
                0x0000000023e8e340       0x60 drivers/built-in.o
 .data._pstWriteProtectTable_S25FL032K_CMP0
                0x0000000023e8e3a0      0x108 drivers/built-in.o
 .data._pstWriteProtectTable_S25FL064
                0x0000000023e8e4a8       0x60 drivers/built-in.o
 .data._pstWriteProtectTable_S25FL128P
                0x0000000023e8e508       0x6c drivers/built-in.o
 .data._pstWriteProtectTable_SST25VF032B
                0x0000000023e8e574       0x60 drivers/built-in.o
 .data._pstWriteProtectTable_W25Q128
                0x0000000023e8e5d4       0xa8 drivers/built-in.o
 .data._pstWriteProtectTable_W25Q80
                0x0000000023e8e67c       0xd8 drivers/built-in.o
 .data._pstWriteProtectTable_W25X32
                0x0000000023e8e754       0xa8 drivers/built-in.o
 .data._pstWriteProtectTable_W25X40
                0x0000000023e8e7fc       0x60 drivers/built-in.o
 .data._pstWriteProtectTable_W25X64
                0x0000000023e8e85c       0xa8 drivers/built-in.o
 .data._pstWriteProtectTable_W25X80
                0x0000000023e8e904       0x84 drivers/built-in.o
 .data._pstWriteProtectTable_XM25QH128A
                0x0000000023e8e988      0x180 drivers/built-in.o
 .data._pstWriteProtectTable_XM25QH256B
                0x0000000023e8eb08       0xc0 drivers/built-in.o
 .data._pstWriteProtectTable_XM25QH64A
                0x0000000023e8ebc8      0x180 drivers/built-in.o
 .data._pstWriteProtectTable_XT25F128A
                0x0000000023e8ed48      0x180 drivers/built-in.o
 .data._pstWriteProtectTable_XT25F128B
                0x0000000023e8eec8      0x180 drivers/built-in.o
 .data._pstWriteProtectTable_XT25F64B
                0x0000000023e8f048      0x180 drivers/built-in.o
 .data._pstWriteProtectTable_ZB25Q128
                0x0000000023e8f1c8       0xc0 drivers/built-in.o
 .data._pstWriteProtectTable_ZB25Q64
                0x0000000023e8f288       0xc0 drivers/built-in.o
 .data._stSpecialBlocks_EN25B32B
                0x0000000023e8f348       0x24 drivers/built-in.o
 .data._stSpecialBlocks_EN25B64B
                0x0000000023e8f36c       0x24 drivers/built-in.o
 .data._stSpecialBlocks_EN25F10
                0x0000000023e8f390       0x24 drivers/built-in.o
 .data._hal_ckg_spi_nonpm6
                0x0000000023e8f3b4       0x14 drivers/built-in.o
 .data._hal_ckg_spi_pm
                0x0000000023e8f3c8       0x40 drivers/built-in.o
 .data._hal_fsp
                0x0000000023e8f408       0x24 drivers/built-in.o
                0x0000000023e8f408                _hal_fsp
 .data.u8MagicData
                0x0000000023e8f42c       0x10 drivers/built-in.o
                0x0000000023e8f42c                u8MagicData
 .data.bbt_pattern
                0x0000000023e8f43c        0x4 drivers/built-in.o
 .data.mirror_pattern
                0x0000000023e8f440        0x4 drivers/built-in.o
 .data.scan_ff_pattern
                0x0000000023e8f444        0x1 drivers/built-in.o
 *fill*         0x0000000023e8f445        0x3 
 .data.spi_nand_bbt_descr
                0x0000000023e8f448       0x24 drivers/built-in.o
 .data.spi_nand_bbt_main_descr
                0x0000000023e8f46c       0x24 drivers/built-in.o
 .data.spi_nand_bbt_mirror_descr
                0x0000000023e8f490       0x24 drivers/built-in.o
 .data.spi_nand_oobinfo
                0x0000000023e8f4b4      0xb08 drivers/built-in.o
 .data.array_usb_root_port
                0x0000000023e8ffbc      0x2a0 drivers/built-in.o
                0x0000000023e8ffbc                array_usb_root_port
 .data.gWaitConnectTime
                0x0000000023e9025c        0x4 drivers/built-in.o
 .data.MY_MAC   0x0000000023e90260        0x6 drivers/built-in.o
                0x0000000023e90260                MY_MAC
 *fill*         0x0000000023e90266        0x2 
 .data.packet   0x0000000023e90268        0x4 drivers/built-in.o
                0x0000000023e90268                packet
 .data.gRIUBaseAddr
                0x0000000023e9026c        0x4 drivers/built-in.o
                0x0000000023e9026c                gRIUBaseAddr
 .data._gstMopgRotRec
                0x0000000023e90270        0xc drivers/built-in.o
                0x0000000023e90270                _gstMopgRotRec
 .data.stPictureNonLinearSetting
                0x0000000023e9027c       0xb4 drivers/built-in.o
                0x0000000023e9027c                stPictureNonLinearSetting
 .data.tVideoColorCorrectionMatrix
                0x0000000023e90330       0x40 drivers/built-in.o
                0x0000000023e90330                tVideoColorCorrectionMatrix
 .data.tByPassYuv2rgb
                0x0000000023e90370       0x12 drivers/built-in.o
                0x0000000023e90370                tByPassYuv2rgb
 .data.tHDTVYuv2rgb
                0x0000000023e90382       0x12 drivers/built-in.o
                0x0000000023e90382                tHDTVYuv2rgb
 .data.tSDTVYuv2rgb
                0x0000000023e90394       0x12 drivers/built-in.o
                0x0000000023e90394                tSDTVYuv2rgb
 *fill*         0x0000000023e903a6        0x2 
 .data.LPLLSettingTBL
                0x0000000023e903a8      0x150 drivers/built-in.o
                0x0000000023e903a8                LPLLSettingTBL
 .data.u16LoopDiv
                0x0000000023e904f8        0xe drivers/built-in.o
                0x0000000023e904f8                u16LoopDiv
 .data.u16LoopDivDsi
                0x0000000023e90506        0xe drivers/built-in.o
                0x0000000023e90506                u16LoopDivDsi
 .data.u16LoopGain
                0x0000000023e90514        0xe drivers/built-in.o
                0x0000000023e90514                u16LoopGain
 .data.u16LoopGainDsi
                0x0000000023e90522        0xe drivers/built-in.o
                0x0000000023e90522                u16LoopGainDsi
 .data.cur_dev_num
                0x0000000023e90530        0x4 drivers/mmc/built-in.o
 .data.mtd_partitions
                0x0000000023e90534        0x8 drivers/mtd/built-in.o
 .data.nand_curr_device
                0x0000000023e9053c        0x4 drivers/mtd/nand/built-in.o
                0x0000000023e9053c                nand_curr_device
 .data.bbt_main_descr
                0x0000000023e90540       0x24 drivers/mtd/nand/built-in.o
 .data.bbt_main_no_oob_descr
                0x0000000023e90564       0x24 drivers/mtd/nand/built-in.o
 .data.bbt_mirror_descr
                0x0000000023e90588       0x24 drivers/mtd/nand/built-in.o
 .data.bbt_mirror_no_oob_descr
                0x0000000023e905ac       0x24 drivers/mtd/nand/built-in.o
 .data.bbt_pattern
                0x0000000023e905d0        0x4 drivers/mtd/nand/built-in.o
 .data.mirror_pattern
                0x0000000023e905d4        0x4 drivers/mtd/nand/built-in.o
 .data.scan_ff_pattern
                0x0000000023e905d8        0x2 drivers/mtd/nand/built-in.o
 *fill*         0x0000000023e905da        0x2 
 .data.nand_flash_ids
                0x0000000023e905dc      0xb88 drivers/mtd/nand/built-in.o
                0x0000000023e905dc                nand_flash_ids
 .data.nand_oob_128
                0x0000000023e91164      0xb08 drivers/mtd/nand/built-in.o
 .data.nand_oob_16
                0x0000000023e91c6c      0xb08 drivers/mtd/nand/built-in.o
 .data.nand_oob_64
                0x0000000023e92774      0xb08 drivers/mtd/nand/built-in.o
 .data.nand_oob_8
                0x0000000023e9327c      0xb08 drivers/mtd/nand/built-in.o
 .data.fstypes  0x0000000023e93d84       0x50 fs/built-in.o
 .data.NetBcastAddr
                0x0000000023e93dd4        0x6 net/built-in.o
                0x0000000023e93dd4                NetBcastAddr
 .data.NetOurNativeVLAN
                0x0000000023e93dda        0x2 net/built-in.o
                0x0000000023e93dda                NetOurNativeVLAN
 .data.NetOurVLAN
                0x0000000023e93ddc        0x2 net/built-in.o
                0x0000000023e93ddc                NetOurVLAN
 *fill*         0x0000000023e93dde        0x2 
 .data.first_call.6556
                0x0000000023e93de0        0x4 net/built-in.o
 .data.TftpBlkSize
                0x0000000023e93de4        0x2 net/built-in.o
 .data.TftpBlkSizeOption
                0x0000000023e93de6        0x2 net/built-in.o
 .data.TftpRRQTimeoutCountMax
                0x0000000023e93de8        0x4 net/built-in.o
                0x0000000023e93de8                TftpRRQTimeoutCountMax
 .data.TftpTimeoutCountMax
                0x0000000023e93dec        0x4 net/built-in.o
 .data.TftpTimeoutMSecs
                0x0000000023e93df0        0x4 net/built-in.o

.got            0x0000000023e93df4        0x0
 .got           0x0000000023e93df4        0x0 arch/arm/cpu/armv7/start.o

.got.plt        0x0000000023e93df4        0xc
 .got.plt       0x0000000023e93df4        0xc arch/arm/cpu/armv7/start.o
                0x0000000023e93df4                _GLOBAL_OFFSET_TABLE_

.igot.plt       0x0000000023e93e00        0x0
 .igot.plt      0x0000000023e93e00        0x0 arch/arm/cpu/armv7/start.o
                0x0000000023e93e00                . = ALIGN (0x4)
                0x0000000023e93e00                . = .
                0x0000000023e93e00                . = ALIGN (0x4)

.u_boot_list    0x0000000023e93e00      0x870
 *(SORT_BY_NAME(.u_boot_list*))
 .u_boot_list_2_cmd_1
                0x0000000023e93e00        0x0 common/built-in.o
 .u_boot_list_2_cmd_2_aes
                0x0000000023e93e00       0x1c common/built-in.o
                0x0000000023e93e00                _u_boot_list_2_cmd_2_aes
 .u_boot_list_2_cmd_2_base
                0x0000000023e93e1c       0x1c common/built-in.o
                0x0000000023e93e1c                _u_boot_list_2_cmd_2_base
 .u_boot_list_2_cmd_2_bootframebuffer
                0x0000000023e93e38       0x1c common/built-in.o
                0x0000000023e93e38                _u_boot_list_2_cmd_2_bootframebuffer
 .u_boot_list_2_cmd_2_bootlogo
                0x0000000023e93e54       0x1c common/built-in.o
                0x0000000023e93e54                _u_boot_list_2_cmd_2_bootlogo
 .u_boot_list_2_cmd_2_bootm
                0x0000000023e93e70       0x1c common/built-in.o
                0x0000000023e93e70                _u_boot_list_2_cmd_2_bootm
 .u_boot_list_2_cmd_2_bootp
                0x0000000023e93e8c       0x1c common/built-in.o
                0x0000000023e93e8c                _u_boot_list_2_cmd_2_bootp
 .u_boot_list_2_cmd_2_chpart
                0x0000000023e93ea8       0x1c common/built-in.o
                0x0000000023e93ea8                _u_boot_list_2_cmd_2_chpart
 .u_boot_list_2_cmd_2_cmp
                0x0000000023e93ec4       0x1c common/built-in.o
                0x0000000023e93ec4                _u_boot_list_2_cmd_2_cmp
 .u_boot_list_2_cmd_2_cp
                0x0000000023e93ee0       0x1c common/built-in.o
                0x0000000023e93ee0                _u_boot_list_2_cmd_2_cp
 .u_boot_list_2_cmd_2_crc32
                0x0000000023e93efc       0x1c common/built-in.o
                0x0000000023e93efc                _u_boot_list_2_cmd_2_crc32
 .u_boot_list_2_cmd_2_customer_init
                0x0000000023e93f18       0x1c common/built-in.o
                0x0000000023e93f18                _u_boot_list_2_cmd_2_customer_init
 .u_boot_list_2_cmd_2_dbg
                0x0000000023e93f34       0x1c common/built-in.o
                0x0000000023e93f34                _u_boot_list_2_cmd_2_dbg
 .u_boot_list_2_cmd_2_dcache
                0x0000000023e93f50       0x1c common/built-in.o
                0x0000000023e93f50                _u_boot_list_2_cmd_2_dcache
 .u_boot_list_2_cmd_2_debug
                0x0000000023e93f6c       0x1c common/built-in.o
                0x0000000023e93f6c                _u_boot_list_2_cmd_2_debug
 .u_boot_list_2_cmd_2_dhcp
                0x0000000023e93f88       0x1c common/built-in.o
                0x0000000023e93f88                _u_boot_list_2_cmd_2_dhcp
 .u_boot_list_2_cmd_2_do_ECC
                0x0000000023e93fa4       0x1c common/built-in.o
                0x0000000023e93fa4                _u_boot_list_2_cmd_2_do_ECC
 .u_boot_list_2_cmd_2_do_bbm
                0x0000000023e93fc0       0x1c common/built-in.o
                0x0000000023e93fc0                _u_boot_list_2_cmd_2_do_bbm
 .u_boot_list_2_cmd_2_dstar
                0x0000000023e93fdc       0x1c common/built-in.o
                0x0000000023e93fdc                _u_boot_list_2_cmd_2_dstar
 .u_boot_list_2_cmd_2_eeprom
                0x0000000023e93ff8       0x1c common/built-in.o
                0x0000000023e93ff8                _u_boot_list_2_cmd_2_eeprom
 .u_boot_list_2_cmd_2_env
                0x0000000023e94014       0x1c common/built-in.o
                0x0000000023e94014                _u_boot_list_2_cmd_2_env
 .u_boot_list_2_cmd_2_estar
                0x0000000023e94030       0x1c common/built-in.o
                0x0000000023e94030                _u_boot_list_2_cmd_2_estar
 .u_boot_list_2_cmd_2_estart
                0x0000000023e9404c       0x1c drivers/built-in.o
                0x0000000023e9404c                _u_boot_list_2_cmd_2_estart
 .u_boot_list_2_cmd_2_fatinfo
                0x0000000023e94068       0x1c common/built-in.o
                0x0000000023e94068                _u_boot_list_2_cmd_2_fatinfo
 .u_boot_list_2_cmd_2_fatload
                0x0000000023e94084       0x1c common/built-in.o
                0x0000000023e94084                _u_boot_list_2_cmd_2_fatload
 .u_boot_list_2_cmd_2_fatls
                0x0000000023e940a0       0x1c common/built-in.o
                0x0000000023e940a0                _u_boot_list_2_cmd_2_fatls
 .u_boot_list_2_cmd_2_fatread
                0x0000000023e940bc       0x1c common/built-in.o
                0x0000000023e940bc                _u_boot_list_2_cmd_2_fatread
 .u_boot_list_2_cmd_2_fatsize
                0x0000000023e940d8       0x1c common/built-in.o
                0x0000000023e940d8                _u_boot_list_2_cmd_2_fatsize
 .u_boot_list_2_cmd_2_go
                0x0000000023e940f4       0x1c common/built-in.o
                0x0000000023e940f4                _u_boot_list_2_cmd_2_go
 .u_boot_list_2_cmd_2_gpio
                0x0000000023e94110       0x1c common/built-in.o
                0x0000000023e94110                _u_boot_list_2_cmd_2_gpio
 .u_boot_list_2_cmd_2_help
                0x0000000023e9412c       0x1c common/built-in.o
                0x0000000023e9412c                _u_boot_list_2_cmd_2_help
 .u_boot_list_2_cmd_2_i2c
                0x0000000023e94148       0x1c common/built-in.o
                0x0000000023e94148                _u_boot_list_2_cmd_2_i2c
 .u_boot_list_2_cmd_2_icache
                0x0000000023e94164       0x1c common/built-in.o
                0x0000000023e94164                _u_boot_list_2_cmd_2_icache
 .u_boot_list_2_cmd_2_initDbgLevel
                0x0000000023e94180       0x1c common/built-in.o
                0x0000000023e94180                _u_boot_list_2_cmd_2_initDbgLevel
 .u_boot_list_2_cmd_2_loop
                0x0000000023e9419c       0x1c common/built-in.o
                0x0000000023e9419c                _u_boot_list_2_cmd_2_loop
 .u_boot_list_2_cmd_2_macaddr
                0x0000000023e941b8       0x1c drivers/built-in.o
                0x0000000023e941b8                _u_boot_list_2_cmd_2_macaddr
 .u_boot_list_2_cmd_2_md
                0x0000000023e941d4       0x1c common/built-in.o
                0x0000000023e941d4                _u_boot_list_2_cmd_2_md
 .u_boot_list_2_cmd_2_mm
                0x0000000023e941f0       0x1c common/built-in.o
                0x0000000023e941f0                _u_boot_list_2_cmd_2_mm
 .u_boot_list_2_cmd_2_mmc
                0x0000000023e9420c       0x1c common/built-in.o
                0x0000000023e9420c                _u_boot_list_2_cmd_2_mmc
 .u_boot_list_2_cmd_2_mmcinfo
                0x0000000023e94228       0x1c common/built-in.o
                0x0000000023e94228                _u_boot_list_2_cmd_2_mmcinfo
 .u_boot_list_2_cmd_2_mssdmmc
                0x0000000023e94244       0x1c common/built-in.o
                0x0000000023e94244                _u_boot_list_2_cmd_2_mssdmmc
 .u_boot_list_2_cmd_2_mstar
                0x0000000023e94260       0x1c common/built-in.o
                0x0000000023e94260                _u_boot_list_2_cmd_2_mstar
 .u_boot_list_2_cmd_2_mtdparts
                0x0000000023e9427c       0x1c common/built-in.o
                0x0000000023e9427c                _u_boot_list_2_cmd_2_mtdparts
 .u_boot_list_2_cmd_2_mw
                0x0000000023e94298       0x1c common/built-in.o
                0x0000000023e94298                _u_boot_list_2_cmd_2_mw
 .u_boot_list_2_cmd_2_mxp
                0x0000000023e942b4       0x1c common/built-in.o
                0x0000000023e942b4                _u_boot_list_2_cmd_2_mxp
 .u_boot_list_2_cmd_2_nand
                0x0000000023e942d0       0x1c common/built-in.o
                0x0000000023e942d0                _u_boot_list_2_cmd_2_nand
 .u_boot_list_2_cmd_2_nboot
                0x0000000023e942ec       0x1c common/built-in.o
                0x0000000023e942ec                _u_boot_list_2_cmd_2_nboot
 .u_boot_list_2_cmd_2_nm
                0x0000000023e94308       0x1c common/built-in.o
                0x0000000023e94308                _u_boot_list_2_cmd_2_nm
 .u_boot_list_2_cmd_2_ping
                0x0000000023e94324       0x1c common/built-in.o
                0x0000000023e94324                _u_boot_list_2_cmd_2_ping
 .u_boot_list_2_cmd_2_printenv
                0x0000000023e94340       0x1c common/built-in.o
                0x0000000023e94340                _u_boot_list_2_cmd_2_printenv
 .u_boot_list_2_cmd_2_question_mark
                0x0000000023e9435c       0x1c common/built-in.o
                0x0000000023e9435c                _u_boot_list_2_cmd_2_question_mark
 .u_boot_list_2_cmd_2_readbbm
                0x0000000023e94378       0x1c common/built-in.o
                0x0000000023e94378                _u_boot_list_2_cmd_2_readbbm
 .u_boot_list_2_cmd_2_readcis
                0x0000000023e94394       0x1c common/built-in.o
                0x0000000023e94394                _u_boot_list_2_cmd_2_readcis
 .u_boot_list_2_cmd_2_reset
                0x0000000023e943b0       0x1c common/built-in.o
                0x0000000023e943b0                _u_boot_list_2_cmd_2_reset
 .u_boot_list_2_cmd_2_riu
                0x0000000023e943cc       0x1c common/built-in.o
                0x0000000023e943cc                _u_boot_list_2_cmd_2_riu
 .u_boot_list_2_cmd_2_run
                0x0000000023e943e8       0x1c common/built-in.o
                0x0000000023e943e8                _u_boot_list_2_cmd_2_run
 .u_boot_list_2_cmd_2_saveenv
                0x0000000023e94404       0x1c common/built-in.o
                0x0000000023e94404                _u_boot_list_2_cmd_2_saveenv
 .u_boot_list_2_cmd_2_sdstar
                0x0000000023e94420       0x1c common/built-in.o
                0x0000000023e94420                _u_boot_list_2_cmd_2_sdstar
 .u_boot_list_2_cmd_2_secauth
                0x0000000023e9443c       0x1c common/built-in.o
                0x0000000023e9443c                _u_boot_list_2_cmd_2_secauth
 .u_boot_list_2_cmd_2_setclk
                0x0000000023e94458       0x1c common/built-in.o
                0x0000000023e94458                _u_boot_list_2_cmd_2_setclk
 .u_boot_list_2_cmd_2_setenv
                0x0000000023e94474       0x1c common/built-in.o
                0x0000000023e94474                _u_boot_list_2_cmd_2_setenv
 .u_boot_list_2_cmd_2_sf
                0x0000000023e94490       0x1c common/built-in.o
                0x0000000023e94490                _u_boot_list_2_cmd_2_sf
 .u_boot_list_2_cmd_2_sfbin
                0x0000000023e944ac       0x1c common/built-in.o
                0x0000000023e944ac                _u_boot_list_2_cmd_2_sfbin
 .u_boot_list_2_cmd_2_srcfg
                0x0000000023e944c8       0x1c common/built-in.o
                0x0000000023e944c8                _u_boot_list_2_cmd_2_srcfg
 .u_boot_list_2_cmd_2_tftpboot
                0x0000000023e944e4       0x1c common/built-in.o
                0x0000000023e944e4                _u_boot_list_2_cmd_2_tftpboot
 .u_boot_list_2_cmd_2_uart
                0x0000000023e94500       0x1c common/built-in.o
                0x0000000023e94500                _u_boot_list_2_cmd_2_uart
 .u_boot_list_2_cmd_2_ubi
                0x0000000023e9451c       0x1c common/built-in.o
                0x0000000023e9451c                _u_boot_list_2_cmd_2_ubi
 .u_boot_list_2_cmd_2_usb
                0x0000000023e94538       0x1c common/built-in.o
                0x0000000023e94538                _u_boot_list_2_cmd_2_usb
 .u_boot_list_2_cmd_2_usbboot
                0x0000000023e94554       0x1c common/built-in.o
                0x0000000023e94554                _u_boot_list_2_cmd_2_usbboot
 .u_boot_list_2_cmd_2_usbstar
                0x0000000023e94570       0x1c common/built-in.o
                0x0000000023e94570                _u_boot_list_2_cmd_2_usbstar
 .u_boot_list_2_cmd_2_ustar
                0x0000000023e9458c       0x1c common/built-in.o
                0x0000000023e9458c                _u_boot_list_2_cmd_2_ustar
 .u_boot_list_2_cmd_2_version
                0x0000000023e945a8       0x1c common/built-in.o
                0x0000000023e945a8                _u_boot_list_2_cmd_2_version
 .u_boot_list_2_cmd_2_writecis
                0x0000000023e945c4       0x1c common/built-in.o
                0x0000000023e945c4                _u_boot_list_2_cmd_2_writecis
 .u_boot_list_2_cmd_3
                0x0000000023e945e0        0x0 common/built-in.o
 .u_boot_list_2_env_clbk_1
                0x0000000023e945e0        0x0 common/built-in.o
 .u_boot_list_2_env_clbk_2_baudrate
                0x0000000023e945e0        0x8 drivers/serial/built-in.o
                0x0000000023e945e0                _u_boot_list_2_env_clbk_2_baudrate
 .u_boot_list_2_env_clbk_2_bootfile
                0x0000000023e945e8        0x8 net/built-in.o
                0x0000000023e945e8                _u_boot_list_2_env_clbk_2_bootfile
 .u_boot_list_2_env_clbk_2_callbacks
                0x0000000023e945f0        0x8 common/built-in.o
                0x0000000023e945f0                _u_boot_list_2_env_clbk_2_callbacks
 .u_boot_list_2_env_clbk_2_console
                0x0000000023e945f8        0x8 common/built-in.o
                0x0000000023e945f8                _u_boot_list_2_env_clbk_2_console
 .u_boot_list_2_env_clbk_2_flags
                0x0000000023e94600        0x8 common/built-in.o
                0x0000000023e94600                _u_boot_list_2_env_clbk_2_flags
 .u_boot_list_2_env_clbk_2_loadaddr
                0x0000000023e94608        0x8 common/built-in.o
                0x0000000023e94608                _u_boot_list_2_env_clbk_2_loadaddr
 .u_boot_list_2_env_clbk_2_silent
                0x0000000023e94610        0x8 common/built-in.o
                0x0000000023e94610                _u_boot_list_2_env_clbk_2_silent
 .u_boot_list_2_env_clbk_3
                0x0000000023e94618        0x0 common/built-in.o
 .u_boot_list_2_i2c_1
                0x0000000023e94618        0x0 common/built-in.o
 .u_boot_list_2_i2c_1
                0x0000000023e94618        0x0 drivers/i2c/built-in.o
 .u_boot_list_2_i2c_2_ms_i2c_0
                0x0000000023e94618       0x2c drivers/built-in.o
                0x0000000023e94618                _u_boot_list_2_i2c_2_ms_i2c_0
 .u_boot_list_2_i2c_2_ms_i2c_1
                0x0000000023e94644       0x2c drivers/built-in.o
                0x0000000023e94644                _u_boot_list_2_i2c_2_ms_i2c_1
 .u_boot_list_2_i2c_3
                0x0000000023e94670        0x0 common/built-in.o
 .u_boot_list_2_i2c_3
                0x0000000023e94670        0x0 drivers/i2c/built-in.o
                0x0000000023e94670                . = ALIGN (0x4)

.image_copy_end
                0x0000000023e94670        0x0
 *(.__image_copy_end)
 .__image_copy_end
                0x0000000023e94670        0x0 arch/arm/lib/built-in.o

.rel_dyn_start  0x0000000023e94670        0x0
 *(.__rel_dyn_start)
 .__rel_dyn_start
                0x0000000023e94670        0x0 arch/arm/lib/built-in.o

.rel.dyn        0x0000000023e94670     0xce28
 *(.rel*)
 .rel.got       0x0000000023e94670        0x0 arch/arm/cpu/armv7/start.o
 .rel.plt       0x0000000023e94670        0x0 arch/arm/cpu/armv7/start.o
 .rel.bss       0x0000000023e94670        0x0 arch/arm/cpu/armv7/start.o
 .rel.data.rel.ro
                0x0000000023e94670        0x0 arch/arm/cpu/armv7/start.o
 .rel.iplt      0x0000000023e94670        0x0 arch/arm/cpu/armv7/start.o
 .rel.text      0x0000000023e94670       0x20 arch/arm/cpu/armv7/start.o
 .rel.text.checkboard
                0x0000000023e94690       0x20 arch/arm/cpu/armv7/start.o
 .rel.text.get_timer
                0x0000000023e946b0       0x10 arch/arm/cpu/armv7/start.o
 .rel.vectors   0x0000000023e946c0       0x38 arch/arm/cpu/armv7/start.o
 .rel.text.relocate_vectors
                0x0000000023e946f8       0x20 arch/arm/cpu/armv7/start.o
 .rel.text.boot_jump_linux.isra.4
                0x0000000023e94718       0x28 arch/arm/cpu/armv7/start.o
 .rel.text.boot_prep_linux
                0x0000000023e94740       0x18 arch/arm/cpu/armv7/start.o
 .rel.text.interrupt_init
                0x0000000023e94758        0x8 arch/arm/cpu/armv7/start.o
 .rel.text.bad_mode
                0x0000000023e94760        0x8 arch/arm/cpu/armv7/start.o
 .rel.text.show_regs
                0x0000000023e94768       0x50 arch/arm/cpu/armv7/start.o
 .rel.text.do_undefined_instruction
                0x0000000023e947b8        0x8 arch/arm/cpu/armv7/start.o
 .rel.text.do_software_interrupt
                0x0000000023e947c0        0x8 arch/arm/cpu/armv7/start.o
 .rel.text.do_prefetch_abort
                0x0000000023e947c8        0x8 arch/arm/cpu/armv7/start.o
 .rel.text.do_data_abort
                0x0000000023e947d0        0x8 arch/arm/cpu/armv7/start.o
 .rel.text.do_not_used
                0x0000000023e947d8        0x8 arch/arm/cpu/armv7/start.o
 .rel.text.do_fiq
                0x0000000023e947e0        0x8 arch/arm/cpu/armv7/start.o
 .rel.text.do_irq
                0x0000000023e947e8        0x8 arch/arm/cpu/armv7/start.o
 .rel.text.do_reset
                0x0000000023e947f0        0x8 arch/arm/cpu/armv7/start.o
 .rel.text.enable_caches
                0x0000000023e947f8        0x8 arch/arm/cpu/armv7/start.o
 .rel.rodata    0x0000000023e94800      0x100 arch/arm/cpu/armv7/start.o
 .rel.text.jumptable_init
                0x0000000023e94900       0xa8 arch/arm/cpu/armv7/start.o
 .rel.text.hash_command
                0x0000000023e949a8        0x8 arch/arm/cpu/armv7/start.o
 .rel.text.bootdelay_process
                0x0000000023e949b0       0x48 arch/arm/cpu/armv7/start.o
 .rel.text.autoboot_command
                0x0000000023e949f8       0x78 arch/arm/cpu/armv7/start.o
 .rel.text.setup_mon_len
                0x0000000023e94a70       0x10 arch/arm/cpu/armv7/start.o
 .rel.text.announce_dram_init
                0x0000000023e94a80        0x8 arch/arm/cpu/armv7/start.o
 .rel.text.init_func_i2c
                0x0000000023e94a88       0x10 arch/arm/cpu/armv7/start.o
 .rel.text.init_func_watchdog_init
                0x0000000023e94a98        0x8 arch/arm/cpu/armv7/start.o
 .rel.text.init_baud_rate
                0x0000000023e94aa0        0x8 arch/arm/cpu/armv7/start.o
 .rel.text.board_init_f
                0x0000000023e94aa8        0x8 arch/arm/cpu/armv7/start.o
 .rel.text.initr_reloc_global_data
                0x0000000023e94ab0       0x18 arch/arm/cpu/armv7/start.o
 .rel.text.initr_net
                0x0000000023e94ac8        0x8 arch/arm/cpu/armv7/start.o
 .rel.text.initr_ethaddr
                0x0000000023e94ad0        0x8 arch/arm/cpu/armv7/start.o
 .rel.text.initr_env
                0x0000000023e94ad8       0x10 arch/arm/cpu/armv7/start.o
 .rel.text.initr_mmc
                0x0000000023e94ae8        0x8 arch/arm/cpu/armv7/start.o
 .rel.text.initr_nand
                0x0000000023e94af0       0x18 arch/arm/cpu/armv7/start.o
 .rel.text.initr_sstar
                0x0000000023e94b08       0x10 arch/arm/cpu/armv7/start.o
 .rel.text.board_init_r
                0x0000000023e94b18        0x8 arch/arm/cpu/armv7/start.o
 .rel.text.do_go
                0x0000000023e94b20       0x10 arch/arm/cpu/armv7/start.o
 .rel.text.do_bootm
                0x0000000023e94b30       0x18 arch/arm/cpu/armv7/start.o
 .rel.text.bootm_maybe_autostart
                0x0000000023e94b48       0x20 arch/arm/cpu/armv7/start.o
 .rel.text.bootm_find_ramdisk_fdt
                0x0000000023e94b68       0x10 arch/arm/cpu/armv7/start.o
 .rel.text.bootm_decomp_image
                0x0000000023e94b78       0xb0 arch/arm/cpu/armv7/start.o
 .rel.text.bootm_disable_interrupts
                0x0000000023e94c28       0x18 arch/arm/cpu/armv7/start.o
 .rel.text.image_get_kernel
                0x0000000023e94c40       0x30 arch/arm/cpu/armv7/start.o
 .rel.text.do_bootm_states
                0x0000000023e94c70       0xb8 arch/arm/cpu/armv7/start.o
 .rel.text.do_bootm_rtems
                0x0000000023e94d28        0x8 arch/arm/cpu/armv7/start.o
 .rel.text.do_bootm_plan9
                0x0000000023e94d30       0x18 arch/arm/cpu/armv7/start.o
 .rel.text.do_bootm_standalone
                0x0000000023e94d48       0x18 arch/arm/cpu/armv7/start.o
 .rel.text.do_bootm_netbsd
                0x0000000023e94d60       0x18 arch/arm/cpu/armv7/start.o
 .rel.text.do_bootvx_fdt
                0x0000000023e94d78       0x10 arch/arm/cpu/armv7/start.o
 .rel.text.bootm_os_get_boot_func
                0x0000000023e94d88        0x8 arch/arm/cpu/armv7/start.o
 .rel.text.do_help
                0x0000000023e94d90       0x10 arch/arm/cpu/armv7/start.o
 .rel.text.do_version
                0x0000000023e94da0       0x20 arch/arm/cpu/armv7/start.o
 .rel.text.env_attr_lookup
                0x0000000023e94dc0        0x8 arch/arm/cpu/armv7/start.o
 .rel.text.find_env_callback
                0x0000000023e94dc8       0x10 arch/arm/cpu/armv7/start.o
 .rel.text.on_callbacks
                0x0000000023e94dd8       0x20 arch/arm/cpu/armv7/start.o
 .rel.text.set_callback
                0x0000000023e94df8        0x8 arch/arm/cpu/armv7/start.o
 .rel.text.env_callback_init
                0x0000000023e94e00       0x20 arch/arm/cpu/armv7/start.o
 .rel.text.skip_num
                0x0000000023e94e20        0x8 arch/arm/cpu/armv7/start.o
 .rel.text.on_flags
                0x0000000023e94e28       0x20 arch/arm/cpu/armv7/start.o
 .rel.text.env_flags_parse_vartype
                0x0000000023e94e48       0x10 arch/arm/cpu/armv7/start.o
 .rel.text.env_flags_parse_varaccess
                0x0000000023e94e58       0x10 arch/arm/cpu/armv7/start.o
 .rel.text.set_flags
                0x0000000023e94e68       0x10 arch/arm/cpu/armv7/start.o
 .rel.text.env_flags_init
                0x0000000023e94e78       0x30 arch/arm/cpu/armv7/start.o
 .rel.text.env_flags_validate
                0x0000000023e94ea8       0x68 arch/arm/cpu/armv7/start.o
 .rel.text.readenv
                0x0000000023e94f10        0x8 arch/arm/cpu/armv7/start.o
 .rel.text.erase_and_write_env
                0x0000000023e94f18       0x28 arch/arm/cpu/armv7/start.o
 .rel.text.env_init
                0x0000000023e94f40        0x8 arch/arm/cpu/armv7/start.o
 .rel.text.saveenv
                0x0000000023e94f48       0x38 arch/arm/cpu/armv7/start.o
 .rel.text.env_relocate_spec
                0x0000000023e94f80       0x58 arch/arm/cpu/armv7/start.o
 .rel.text.parse_argv
                0x0000000023e94fd8       0x18 arch/arm/cpu/armv7/start.o
 .rel.text.do_icache
                0x0000000023e94ff0       0x18 arch/arm/cpu/armv7/start.o
 .rel.text.do_dcache
                0x0000000023e95008       0x18 arch/arm/cpu/armv7/start.o
 .rel.text.do_eeprom
                0x0000000023e95020       0x20 arch/arm/cpu/armv7/start.o
 .rel.text.do_fat_fsinfo
                0x0000000023e95040       0x10 arch/arm/cpu/armv7/start.o
 .rel.text.do_i2c
                0x0000000023e95050        0x8 arch/arm/cpu/armv7/start.o
 .rel.text.do_i2c_probe
                0x0000000023e95058       0x10 arch/arm/cpu/armv7/start.o
 .rel.text.do_i2c_bus_speed
                0x0000000023e95068       0x18 arch/arm/cpu/armv7/start.o
 .rel.text.do_i2c_show_bus
                0x0000000023e95080       0x28 arch/arm/cpu/armv7/start.o
 .rel.text.do_i2c_bus_num
                0x0000000023e950a8       0x30 arch/arm/cpu/armv7/start.o
 .rel.text.do_i2c_read
                0x0000000023e950d8       0x10 arch/arm/cpu/armv7/start.o
 .rel.text.do_i2c_write
                0x0000000023e950e8       0x10 arch/arm/cpu/armv7/start.o
 .rel.text.do_i2c_loop
                0x0000000023e950f8       0x10 arch/arm/cpu/armv7/start.o
 .rel.text.do_i2c_mw
                0x0000000023e95108       0x10 arch/arm/cpu/armv7/start.o
 .rel.text.do_i2c_md
                0x0000000023e95118       0x58 arch/arm/cpu/armv7/start.o
 .rel.text.mod_i2c_mem.isra.5
                0x0000000023e95170       0x60 arch/arm/cpu/armv7/start.o
 .rel.text.do_i2c_crc
                0x0000000023e951d0       0x20 arch/arm/cpu/armv7/start.o
 .rel.text.do_mem_md
                0x0000000023e951f0       0x20 arch/arm/cpu/armv7/start.o
 .rel.text.do_mem_base
                0x0000000023e95210       0x10 arch/arm/cpu/armv7/start.o
 .rel.text.do_mem_crc
                0x0000000023e95220        0x8 arch/arm/cpu/armv7/start.o
 .rel.text.do_mem_mw
                0x0000000023e95228        0x8 arch/arm/cpu/armv7/start.o
 .rel.text.mod_mem.isra.2.part.3
                0x0000000023e95230       0x48 arch/arm/cpu/armv7/start.o
 .rel.text.do_mem_cp
                0x0000000023e95278       0x10 arch/arm/cpu/armv7/start.o
 .rel.text.do_mem_cmp
                0x0000000023e95288       0x38 arch/arm/cpu/armv7/start.o
 .rel.text.do_mmcops
                0x0000000023e952c0       0x18 arch/arm/cpu/armv7/start.o
 .rel.text.init_mmc_device
                0x0000000023e952d8        0x8 arch/arm/cpu/armv7/start.o
 .rel.text.do_mmc_rescan
                0x0000000023e952e0        0x8 arch/arm/cpu/armv7/start.o
 .rel.text.do_mmc_dev
                0x0000000023e952e8       0x38 arch/arm/cpu/armv7/start.o
 .rel.text.do_mmcinfo
                0x0000000023e95320       0x98 arch/arm/cpu/armv7/start.o
 .rel.text.do_mmc_setdsr
                0x0000000023e953b8       0x28 arch/arm/cpu/armv7/start.o
 .rel.text.do_mmc_part
                0x0000000023e953e0       0x10 arch/arm/cpu/armv7/start.o
 .rel.text.do_mmc_erase
                0x0000000023e953f0       0x30 arch/arm/cpu/armv7/start.o
 .rel.text.do_mmc_write
                0x0000000023e95420       0x30 arch/arm/cpu/armv7/start.o
 .rel.text.do_mmc_read
                0x0000000023e95450       0x28 arch/arm/cpu/armv7/start.o
 .rel.text.mtd_part_info
                0x0000000023e95478       0x20 arch/arm/cpu/armv7/start.o
 .rel.text.memsize_format
                0x0000000023e95498       0x20 arch/arm/cpu/armv7/start.o
 .rel.text.index_partitions
                0x0000000023e954b8       0x28 arch/arm/cpu/armv7/start.o
 .rel.text.current_save
                0x0000000023e954e0       0x40 arch/arm/cpu/armv7/start.o
 .rel.text.part_sort_add
                0x0000000023e95520       0x18 arch/arm/cpu/armv7/start.o
 .rel.text.device_del
                0x0000000023e95538       0x18 arch/arm/cpu/armv7/start.o
 .rel.text.generate_mtdparts_save.constprop.6
                0x0000000023e95550       0x28 arch/arm/cpu/armv7/start.o
 .rel.text.device_delall.constprop.8
                0x0000000023e95578        0x8 arch/arm/cpu/armv7/start.o
 .rel.text.mtd_devices_init
                0x0000000023e95580       0x10 arch/arm/cpu/armv7/start.o
 .rel.text.get_mtd_info.constprop.9
                0x0000000023e95590       0x28 arch/arm/cpu/armv7/start.o
 .rel.text.part_validate
                0x0000000023e955b8       0x48 arch/arm/cpu/armv7/start.o
 .rel.text.device_find
                0x0000000023e95600        0x8 arch/arm/cpu/armv7/start.o
 .rel.text.device_parse
                0x0000000023e95608       0x80 arch/arm/cpu/armv7/start.o
 .rel.text.mtd_id_parse
                0x0000000023e95688       0x30 arch/arm/cpu/armv7/start.o
 .rel.text.find_dev_and_part
                0x0000000023e956b8       0x40 arch/arm/cpu/armv7/start.o
 .rel.text.mtdparts_init
                0x0000000023e956f8       0xd8 arch/arm/cpu/armv7/start.o
 .rel.text.do_chpart
                0x0000000023e957d0       0x38 arch/arm/cpu/armv7/start.o
 .rel.text.do_mtdparts
                0x0000000023e95808      0x108 arch/arm/cpu/armv7/start.o
 .rel.text.set_dev
                0x0000000023e95910       0x28 arch/arm/cpu/armv7/start.o
 .rel.text.arg_off
                0x0000000023e95938       0x18 arch/arm/cpu/armv7/start.o
 .rel.text.arg_off_size
                0x0000000023e95950       0x30 arch/arm/cpu/armv7/start.o
 .rel.text.adjust_size_for_badblocks
                0x0000000023e95980       0x10 arch/arm/cpu/armv7/start.o
 .rel.text.nand_load_image
                0x0000000023e95990       0x40 arch/arm/cpu/armv7/start.o
 .rel.text.do_nandboot
                0x0000000023e959d0       0x48 arch/arm/cpu/armv7/start.o
 .rel.text.nand_print_and_set_info.constprop.2
                0x0000000023e95a18       0x50 arch/arm/cpu/armv7/start.o
 .rel.text.otp_access
                0x0000000023e95a68       0x58 arch/arm/cpu/armv7/start.o
 .rel.text.nand_set_driving
                0x0000000023e95ac0       0x10 arch/arm/cpu/armv7/start.o
 .rel.text.do_nand
                0x0000000023e95ad0      0x1f8 arch/arm/cpu/armv7/start.o
 .rel.text.netboot_common
                0x0000000023e95cc8       0xd0 arch/arm/cpu/armv7/start.o
 .rel.text.do_sfbin
                0x0000000023e95d98       0x38 arch/arm/cpu/armv7/start.o
 .rel.text.do_ping
                0x0000000023e95dd0       0x18 arch/arm/cpu/armv7/start.o
 .rel.text.do_spi_flash
                0x0000000023e95de8       0xa8 arch/arm/cpu/armv7/start.o
 .rel.text.get_sf_size
                0x0000000023e95e90       0x18 arch/arm/cpu/armv7/start.o
 .rel.text.ubi_find_volume
                0x0000000023e95ea8       0x10 arch/arm/cpu/armv7/start.o
 .rel.text.ubi_volume_continue_write
                0x0000000023e95eb8       0x20 arch/arm/cpu/armv7/start.o
 .rel.text.ubi_volume_begin_write
                0x0000000023e95ed8       0x18 arch/arm/cpu/armv7/start.o
 .rel.text.ubi_volume_read
                0x0000000023e95ef0       0x38 arch/arm/cpu/armv7/start.o
 .rel.text.ubi_part
                0x0000000023e95f28       0x78 arch/arm/cpu/armv7/start.o
 .rel.text.do_ubi
                0x0000000023e95fa0      0x190 arch/arm/cpu/armv7/start.o
 .rel.text.usb_get_class_desc
                0x0000000023e96130       0x50 arch/arm/cpu/armv7/start.o
 .rel.text.usb_display_class_sub
                0x0000000023e96180       0xc8 arch/arm/cpu/armv7/start.o
 .rel.text.usb_show_tree_graph
                0x0000000023e96248       0x48 arch/arm/cpu/armv7/start.o
 .rel.text.usb_display_string
                0x0000000023e96290        0x8 arch/arm/cpu/armv7/start.o
 .rel.text.usb_display_config
                0x0000000023e96298       0xa8 arch/arm/cpu/armv7/start.o
 .rel.text.do_usbboot
                0x0000000023e96340        0x8 arch/arm/cpu/armv7/start.o
 .rel.text.usb_display_desc
                0x0000000023e96348       0x38 arch/arm/cpu/armv7/start.o
 .rel.text.do_usb
                0x0000000023e96380      0x1b0 arch/arm/cpu/armv7/start.o
 .rel.text.usb_stop
                0x0000000023e96530       0x18 arch/arm/cpu/armv7/start.o
 .rel.text.usb_disable_asynch
                0x0000000023e96548        0x8 arch/arm/cpu/armv7/start.o
 .rel.text.usb_control_msg
                0x0000000023e96550        0x8 arch/arm/cpu/armv7/start.o
 .rel.text.usb_parse_config
                0x0000000023e96558       0x60 arch/arm/cpu/armv7/start.o
 .rel.text.usb_get_configuration_no
                0x0000000023e965b8       0x20 arch/arm/cpu/armv7/start.o
 .rel.text.usb_set_interface
                0x0000000023e965d8        0x8 arch/arm/cpu/armv7/start.o
 .rel.text.usb_string_sub
                0x0000000023e965e0        0x8 arch/arm/cpu/armv7/start.o
 .rel.text.usb_get_dev_index
                0x0000000023e965e8        0x8 arch/arm/cpu/armv7/start.o
 .rel.text.usb_alloc_new_device
                0x0000000023e965f0       0x18 arch/arm/cpu/armv7/start.o
 .rel.text.usb_hub_allocate
                0x0000000023e96608       0x18 arch/arm/cpu/armv7/start.o
 .rel.text.usb_new_device
                0x0000000023e96620       0x68 arch/arm/cpu/armv7/start.o
 .rel.text.usb_scan_devices
                0x0000000023e96688       0x28 arch/arm/cpu/armv7/start.o
 .rel.text._usb_init
                0x0000000023e966b0       0x48 arch/arm/cpu/armv7/start.o
 .rel.text.usb_init
                0x0000000023e966f8        0x8 arch/arm/cpu/armv7/start.o
 .rel.text.usb_init_exhub_port
                0x0000000023e96700       0x18 arch/arm/cpu/armv7/start.o
 .rel.text.usb_post_init
                0x0000000023e96718       0x40 arch/arm/cpu/armv7/start.o
 .rel.text.usb_hub_port_connect_change
                0x0000000023e96758       0x18 arch/arm/cpu/armv7/start.o
 .rel.text.usb_hub_configure
                0x0000000023e96770       0x40 arch/arm/cpu/armv7/start.o
 .rel.text.usb_stor_BBB_transport
                0x0000000023e967b0       0x10 arch/arm/cpu/armv7/start.o
 .rel.text.usb_stor_CB_comdat
                0x0000000023e967c0        0x8 arch/arm/cpu/armv7/start.o
 .rel.text.usb_stor_CBI_get_status.isra.4
                0x0000000023e967c8        0x8 arch/arm/cpu/armv7/start.o
 .rel.text.usb_stor_CB_transport
                0x0000000023e967d0       0x10 arch/arm/cpu/armv7/start.o
 .rel.text.usb_request_sense.constprop.10
                0x0000000023e967e0        0x8 arch/arm/cpu/armv7/start.o
 .rel.text.usb_stor_write
                0x0000000023e967e8       0x10 arch/arm/cpu/armv7/start.o
 .rel.text.usb_stor_read
                0x0000000023e967f8       0x10 arch/arm/cpu/armv7/start.o
 .rel.text.usb_stor_get_dev
                0x0000000023e96808       0x10 arch/arm/cpu/armv7/start.o
 .rel.text.usb_stor_info
                0x0000000023e96818       0x20 arch/arm/cpu/armv7/start.o
 .rel.text.usb_storage_probe
                0x0000000023e96838       0x38 arch/arm/cpu/armv7/start.o
 .rel.text.usb_stor_get_info
                0x0000000023e96870       0x20 arch/arm/cpu/armv7/start.o
 .rel.text.usb_stor_scan
                0x0000000023e96890       0x48 arch/arm/cpu/armv7/start.o
 .rel.text._BootLogoDispPnlInit
                0x0000000023e968d8        0x8 arch/arm/cpu/armv7/start.o
 .rel.text._BootLogoYuv444ToYuv420
                0x0000000023e968e0       0x38 arch/arm/cpu/armv7/start.o
 .rel.text._BootDispCtrl
                0x0000000023e96918       0x78 arch/arm/cpu/armv7/start.o
 .rel.text._BootDbTable
                0x0000000023e96990       0x48 arch/arm/cpu/armv7/start.o
 .rel.text.do_display
                0x0000000023e969d8      0x118 arch/arm/cpu/armv7/start.o
 .rel.text.do_env_delete
                0x0000000023e96af0       0x10 arch/arm/cpu/armv7/start.o
 .rel.text.do_env_save
                0x0000000023e96b00       0x10 arch/arm/cpu/armv7/start.o
 .rel.text.do_env
                0x0000000023e96b10        0x8 arch/arm/cpu/armv7/start.o
 .rel.text.env_print
                0x0000000023e96b18       0x18 arch/arm/cpu/armv7/start.o
 .rel.text.do_env_print
                0x0000000023e96b30       0x10 arch/arm/cpu/armv7/start.o
 .rel.text.do_env_import
                0x0000000023e96b40       0x58 arch/arm/cpu/armv7/start.o
 .rel.text.do_env_default
                0x0000000023e96b98        0x8 arch/arm/cpu/armv7/start.o
 .rel.text._do_env_set.isra.0
                0x0000000023e96ba0       0x30 arch/arm/cpu/armv7/start.o
 .rel.text.get_env_id
                0x0000000023e96bd0        0x8 arch/arm/cpu/armv7/start.o
 .rel.text.setenv
                0x0000000023e96bd8        0x8 arch/arm/cpu/armv7/start.o
 .rel.text.setenv_hex
                0x0000000023e96be0        0x8 arch/arm/cpu/armv7/start.o
 .rel.text.do_env_export
                0x0000000023e96be8       0x40 arch/arm/cpu/armv7/start.o
 .rel.text.getenv_f
                0x0000000023e96c28        0x8 arch/arm/cpu/armv7/start.o
 .rel.text.getenv
                0x0000000023e96c30        0x8 arch/arm/cpu/armv7/start.o
 .rel.text.env_get_addr
                0x0000000023e96c38        0x8 arch/arm/cpu/armv7/start.o
 .rel.text.env_get_char
                0x0000000023e96c40        0x8 arch/arm/cpu/armv7/start.o
 .rel.text.set_default_env
                0x0000000023e96c48       0x40 arch/arm/cpu/armv7/start.o
 .rel.text.set_default_vars
                0x0000000023e96c88       0x10 arch/arm/cpu/armv7/start.o
 .rel.text.env_import
                0x0000000023e96c98       0x38 arch/arm/cpu/armv7/start.o
 .rel.text.env_export
                0x0000000023e96cd0       0x28 arch/arm/cpu/armv7/start.o
 .rel.text.env_relocate
                0x0000000023e96cf8        0x8 arch/arm/cpu/armv7/start.o
 .rel.text.env_complete
                0x0000000023e96d00       0x18 arch/arm/cpu/armv7/start.o
 .rel.text.console_setfile
                0x0000000023e96d18       0x30 arch/arm/cpu/armv7/start.o
 .rel.text.putc
                0x0000000023e96d48        0x8 arch/arm/cpu/armv7/start.o
 .rel.text.puts
                0x0000000023e96d50        0x8 arch/arm/cpu/armv7/start.o
 .rel.text.fgetc
                0x0000000023e96d58        0x8 arch/arm/cpu/armv7/start.o
 .rel.text.ftstc
                0x0000000023e96d60        0x8 arch/arm/cpu/armv7/start.o
 .rel.text.ctrlc
                0x0000000023e96d68       0x10 arch/arm/cpu/armv7/start.o
 .rel.text.confirm_yesno
                0x0000000023e96d78       0x20 arch/arm/cpu/armv7/start.o
 .rel.text.disable_ctrlc
                0x0000000023e96d98        0x8 arch/arm/cpu/armv7/start.o
 .rel.text.had_ctrlc
                0x0000000023e96da0        0x8 arch/arm/cpu/armv7/start.o
 .rel.text.clear_ctrlc
                0x0000000023e96da8        0x8 arch/arm/cpu/armv7/start.o
 .rel.text.on_console
                0x0000000023e96db0       0x20 arch/arm/cpu/armv7/start.o
 .rel.text.console_init_f
                0x0000000023e96dd0        0x8 arch/arm/cpu/armv7/start.o
 .rel.text.stdio_print_current_devices
                0x0000000023e96dd8       0x40 arch/arm/cpu/armv7/start.o
 .rel.text.console_init_r
                0x0000000023e96e18       0x10 arch/arm/cpu/armv7/start.o
 .rel.text.sbrk
                0x0000000023e96e28       0x18 arch/arm/cpu/armv7/start.o
 .rel.text.mem_malloc_init
                0x0000000023e96e40       0x18 arch/arm/cpu/armv7/start.o
 .rel.text.malloc_trim
                0x0000000023e96e58       0x18 arch/arm/cpu/armv7/start.o
 .rel.text.free
                0x0000000023e96e70       0x20 arch/arm/cpu/armv7/start.o
 .rel.text.malloc
                0x0000000023e96e90       0x48 arch/arm/cpu/armv7/start.o
 .rel.text.calloc
                0x0000000023e96ed8        0x8 arch/arm/cpu/armv7/start.o
 .rel.text.on_loadaddr
                0x0000000023e96ee0        0x8 arch/arm/cpu/armv7/start.o
 .rel.text.getenv_bootm_low
                0x0000000023e96ee8        0x8 arch/arm/cpu/armv7/start.o
 .rel.text.getenv_bootm_size
                0x0000000023e96ef0       0x10 arch/arm/cpu/armv7/start.o
 .rel.text.genimg_print_size
                0x0000000023e96f00       0x10 arch/arm/cpu/armv7/start.o
 .rel.text.genimg_get_os_name
                0x0000000023e96f10       0x10 arch/arm/cpu/armv7/start.o
 .rel.text.genimg_get_arch_name
                0x0000000023e96f20       0x10 arch/arm/cpu/armv7/start.o
 .rel.text.genimg_get_type_name
                0x0000000023e96f30       0x10 arch/arm/cpu/armv7/start.o
 .rel.text.genimg_get_comp_name
                0x0000000023e96f40       0x10 arch/arm/cpu/armv7/start.o
 .rel.text.image_print_contents
                0x0000000023e96f50       0x50 arch/arm/cpu/armv7/start.o
 .rel.text.genimg_get_kernel_addr_fit
                0x0000000023e96fa0        0x8 arch/arm/cpu/armv7/start.o
 .rel.text.boot_get_ramdisk
                0x0000000023e96fa8       0x50 arch/arm/cpu/armv7/start.o
 .rel.text.boot_ramdisk_high
                0x0000000023e96ff8       0x20 arch/arm/cpu/armv7/start.o
 .rel.text.stdio_get_list
                0x0000000023e97018        0x8 arch/arm/cpu/armv7/start.o
 .rel.text.stdio_get_by_name
                0x0000000023e97020        0x8 arch/arm/cpu/armv7/start.o
 .rel.text.stdio_register_dev
                0x0000000023e97028        0x8 arch/arm/cpu/armv7/start.o
 .rel.text.stdio_init_tables
                0x0000000023e97030        0x8 arch/arm/cpu/armv7/start.o
 .rel.text.stdio_add_devices
                0x0000000023e97038       0x28 arch/arm/cpu/armv7/start.o
 .rel.text.cli_simple_parse_line
                0x0000000023e97060        0x8 arch/arm/cpu/armv7/start.o
 .rel.text.cli_simple_run_command
                0x0000000023e97068        0x8 arch/arm/cpu/armv7/start.o
 .rel.text.cli_simple_loop
                0x0000000023e97070       0x20 arch/arm/cpu/armv7/start.o
 .rel.text.do_run
                0x0000000023e97090        0x8 arch/arm/cpu/armv7/start.o
 .rel.text.delete_char.part.0
                0x0000000023e97098       0x10 arch/arm/cpu/armv7/start.o
 .rel.text.cread_add_char
                0x0000000023e970a8        0x8 arch/arm/cpu/armv7/start.o
 .rel.text.cli_readline_into_buffer
                0x0000000023e970b0       0xb0 arch/arm/cpu/armv7/start.o
 .rel.text.cli_readline
                0x0000000023e97160        0x8 arch/arm/cpu/armv7/start.o
 .rel.text.find_cmd
                0x0000000023e97168       0x10 arch/arm/cpu/armv7/start.o
 .rel.text.cmd_usage
                0x0000000023e97178       0x18 arch/arm/cpu/armv7/start.o
 .rel.text._do_help
                0x0000000023e97190       0x10 arch/arm/cpu/armv7/start.o
 .rel.text.var_complete
                0x0000000023e971a0       0x10 arch/arm/cpu/armv7/start.o
 .rel.text.cmd_auto_complete
                0x0000000023e971b0       0x40 arch/arm/cpu/armv7/start.o
 .rel.text.cmd_process
                0x0000000023e971f0        0x8 arch/arm/cpu/armv7/start.o
 .rel.text.common_diskboot
                0x0000000023e971f8       0x28 arch/arm/cpu/armv7/start.o
 .rel.text.get_script_next_line
                0x0000000023e97220        0x8 arch/arm/cpu/armv7/start.o
 .rel.text.print_mxp_record
                0x0000000023e97228       0x50 arch/arm/cpu/armv7/start.o
 .rel.text.do_debug
                0x0000000023e97278        0x8 arch/arm/cpu/armv7/start.o
 .rel.text.do_mstar
                0x0000000023e97280       0x58 arch/arm/cpu/armv7/start.o
 .rel.text.do_sdstar
                0x0000000023e972d8       0x38 arch/arm/cpu/armv7/start.o
 .rel.text.do_usbstar
                0x0000000023e97310       0x58 arch/arm/cpu/armv7/start.o
 .rel.text.do_estar
                0x0000000023e97368       0x38 arch/arm/cpu/armv7/start.o
 .rel.text.do_dstar
                0x0000000023e973a0      0x110 arch/arm/cpu/armv7/start.o
 .rel.text.do_ustar
                0x0000000023e974b0      0x108 arch/arm/cpu/armv7/start.o
 .rel.text.do_setclk
                0x0000000023e975b8       0x38 arch/arm/cpu/armv7/start.o
 .rel.text.writeSpinandCIS
                0x0000000023e975f0       0x38 arch/arm/cpu/armv7/start.o
 .rel.text.do_readBBM
                0x0000000023e97628       0x18 arch/arm/cpu/armv7/start.o
 .rel.text.do_swapBlock
                0x0000000023e97640        0x8 arch/arm/cpu/armv7/start.o
 .rel.text.do_ECC
                0x0000000023e97648        0x8 arch/arm/cpu/armv7/start.o
 .rel.text.do_mxp
                0x0000000023e97650       0xb0 arch/arm/cpu/armv7/start.o
 .rel.text.do_aesdma
                0x0000000023e97700       0xb8 arch/arm/cpu/armv7/start.o
 .rel.text.do_uart
                0x0000000023e977b8       0x50 arch/arm/cpu/armv7/start.o
 .rel.text.do_fat_fsread
                0x0000000023e97808       0x40 arch/arm/cpu/armv7/start.o
 .rel.text.halt
                0x0000000023e97848        0x8 arch/arm/cpu/armv7/start.o
 .rel.text.do_auth
                0x0000000023e97850      0x100 arch/arm/cpu/armv7/start.o
 .rel.text.do_sdmmc_test
                0x0000000023e97950      0x100 arch/arm/cpu/armv7/start.o
 .rel.text._initDebugLevel
                0x0000000023e97a50       0x38 arch/arm/cpu/armv7/start.o
 .rel.text.do_set_debugging_message_level
                0x0000000023e97a88       0x48 arch/arm/cpu/armv7/start.o
 .rel.text.do_initDebugLevel
                0x0000000023e97ad0        0x8 arch/arm/cpu/armv7/start.o
 .rel.text.do_gpio
                0x0000000023e97ad8       0x68 arch/arm/cpu/armv7/start.o
 .rel.text.WriteRegBitPos
                0x0000000023e97b40       0x18 arch/arm/cpu/armv7/start.o
 .rel.text.do_riu
                0x0000000023e97b58       0x68 arch/arm/cpu/armv7/start.o
 .rel.text.do_sensor_cfg
                0x0000000023e97bc0       0x10 arch/arm/cpu/armv7/start.o
 .rel.rodata.boot_os
                0x0000000023e97bd0       0x30 arch/arm/cpu/armv7/start.o
 .rel.rodata.CSWTCH.33
                0x0000000023e97c00       0x28 arch/arm/cpu/armv7/start.o
 .rel.rodata.uimage_arch
                0x0000000023e97c28      0x188 arch/arm/cpu/armv7/start.o
 .rel.rodata.uimage_comp
                0x0000000023e97db0       0x80 arch/arm/cpu/armv7/start.o
 .rel.rodata.uimage_os
                0x0000000023e97e30       0x88 arch/arm/cpu/armv7/start.o
 .rel.rodata.uimage_type
                0x0000000023e97eb8      0x158 arch/arm/cpu/armv7/start.o
 .rel.data.init_sequence_f
                0x0000000023e98010      0x140 arch/arm/cpu/armv7/start.o
 .rel.data.init_sequence_r
                0x0000000023e98150      0x118 arch/arm/cpu/armv7/start.o
 .rel.u_boot_list_2_cmd_2_go
                0x0000000023e98268       0x20 arch/arm/cpu/armv7/start.o
 .rel.u_boot_list_2_cmd_2_reset
                0x0000000023e98288       0x20 arch/arm/cpu/armv7/start.o
 .rel.data.cmd_bootm_sub
                0x0000000023e982a8       0xc0 arch/arm/cpu/armv7/start.o
 .rel.u_boot_list_2_cmd_2_bootm
                0x0000000023e98368       0x20 arch/arm/cpu/armv7/start.o
 .rel.u_boot_list_2_cmd_2_help
                0x0000000023e98388       0x20 arch/arm/cpu/armv7/start.o
 .rel.u_boot_list_2_cmd_2_question_mark
                0x0000000023e983a8       0x20 arch/arm/cpu/armv7/start.o
 .rel.u_boot_list_2_cmd_2_version
                0x0000000023e983c8       0x20 arch/arm/cpu/armv7/start.o
 .rel.u_boot_list_2_env_clbk_2_callbacks
                0x0000000023e983e8       0x10 arch/arm/cpu/armv7/start.o
 .rel.u_boot_list_2_env_clbk_2_flags
                0x0000000023e983f8       0x10 arch/arm/cpu/armv7/start.o
 .rel.data.env_name_spec
                0x0000000023e98408        0x8 arch/arm/cpu/armv7/start.o
 .rel.data.location.7982
                0x0000000023e98410       0x10 arch/arm/cpu/armv7/start.o
 .rel.u_boot_list_2_cmd_2_dcache
                0x0000000023e98420       0x20 arch/arm/cpu/armv7/start.o
 .rel.u_boot_list_2_cmd_2_icache
                0x0000000023e98440       0x20 arch/arm/cpu/armv7/start.o
 .rel.u_boot_list_2_cmd_2_eeprom
                0x0000000023e98460       0x20 arch/arm/cpu/armv7/start.o
 .rel.u_boot_list_2_cmd_2_fatinfo
                0x0000000023e98480       0x20 arch/arm/cpu/armv7/start.o
 .rel.u_boot_list_2_cmd_2_fatload
                0x0000000023e984a0       0x20 arch/arm/cpu/armv7/start.o
 .rel.u_boot_list_2_cmd_2_fatls
                0x0000000023e984c0       0x20 arch/arm/cpu/armv7/start.o
 .rel.u_boot_list_2_cmd_2_fatsize
                0x0000000023e984e0       0x20 arch/arm/cpu/armv7/start.o
 .rel.data.cmd_i2c_sub
                0x0000000023e98500      0x1a0 arch/arm/cpu/armv7/start.o
 .rel.u_boot_list_2_cmd_2_i2c
                0x0000000023e986a0       0x20 arch/arm/cpu/armv7/start.o
 .rel.u_boot_list_2_cmd_2_base
                0x0000000023e986c0       0x20 arch/arm/cpu/armv7/start.o
 .rel.u_boot_list_2_cmd_2_cmp
                0x0000000023e986e0       0x20 arch/arm/cpu/armv7/start.o
 .rel.u_boot_list_2_cmd_2_cp
                0x0000000023e98700       0x20 arch/arm/cpu/armv7/start.o
 .rel.u_boot_list_2_cmd_2_crc32
                0x0000000023e98720       0x20 arch/arm/cpu/armv7/start.o
 .rel.u_boot_list_2_cmd_2_loop
                0x0000000023e98740       0x20 arch/arm/cpu/armv7/start.o
 .rel.u_boot_list_2_cmd_2_md
                0x0000000023e98760       0x20 arch/arm/cpu/armv7/start.o
 .rel.u_boot_list_2_cmd_2_mm
                0x0000000023e98780       0x20 arch/arm/cpu/armv7/start.o
 .rel.u_boot_list_2_cmd_2_mw
                0x0000000023e987a0       0x20 arch/arm/cpu/armv7/start.o
 .rel.u_boot_list_2_cmd_2_nm
                0x0000000023e987c0       0x20 arch/arm/cpu/armv7/start.o
 .rel.data.cmd_mmc
                0x0000000023e987e0      0x120 arch/arm/cpu/armv7/start.o
 .rel.u_boot_list_2_cmd_2_mmc
                0x0000000023e98900       0x20 arch/arm/cpu/armv7/start.o
 .rel.u_boot_list_2_cmd_2_mmcinfo
                0x0000000023e98920       0x20 arch/arm/cpu/armv7/start.o
 .rel.u_boot_list_2_cmd_2_chpart
                0x0000000023e98940       0x20 arch/arm/cpu/armv7/start.o
 .rel.u_boot_list_2_cmd_2_mtdparts
                0x0000000023e98960       0x20 arch/arm/cpu/armv7/start.o
 .rel.u_boot_list_2_cmd_2_nand
                0x0000000023e98980       0x20 arch/arm/cpu/armv7/start.o
 .rel.u_boot_list_2_cmd_2_nboot
                0x0000000023e989a0       0x20 arch/arm/cpu/armv7/start.o
 .rel.u_boot_list_2_cmd_2_bootp
                0x0000000023e989c0       0x20 arch/arm/cpu/armv7/start.o
 .rel.u_boot_list_2_cmd_2_dhcp
                0x0000000023e989e0       0x20 arch/arm/cpu/armv7/start.o
 .rel.u_boot_list_2_cmd_2_ping
                0x0000000023e98a00       0x20 arch/arm/cpu/armv7/start.o
 .rel.u_boot_list_2_cmd_2_sfbin
                0x0000000023e98a20       0x20 arch/arm/cpu/armv7/start.o
 .rel.u_boot_list_2_cmd_2_tftpboot
                0x0000000023e98a40       0x20 arch/arm/cpu/armv7/start.o
 .rel.u_boot_list_2_cmd_2_sf
                0x0000000023e98a60       0x20 arch/arm/cpu/armv7/start.o
 .rel.u_boot_list_2_cmd_2_ubi
                0x0000000023e98a80       0x20 arch/arm/cpu/armv7/start.o
 .rel.u_boot_list_2_cmd_2_usb
                0x0000000023e98aa0       0x20 arch/arm/cpu/armv7/start.o
 .rel.u_boot_list_2_cmd_2_usbboot
                0x0000000023e98ac0       0x20 arch/arm/cpu/armv7/start.o
 .rel.u_boot_list_2_cmd_2_bootframebuffer
                0x0000000023e98ae0       0x18 arch/arm/cpu/armv7/start.o
 .rel.u_boot_list_2_cmd_2_bootlogo
                0x0000000023e98af8       0x18 arch/arm/cpu/armv7/start.o
 .rel.data.cmd_env_sub
                0x0000000023e98b10      0x100 arch/arm/cpu/armv7/start.o
 .rel.u_boot_list_2_cmd_2_env
                0x0000000023e98c10       0x20 arch/arm/cpu/armv7/start.o
 .rel.u_boot_list_2_cmd_2_printenv
                0x0000000023e98c30       0x28 arch/arm/cpu/armv7/start.o
 .rel.u_boot_list_2_cmd_2_run
                0x0000000023e98c58       0x28 arch/arm/cpu/armv7/start.o
 .rel.u_boot_list_2_cmd_2_saveenv
                0x0000000023e98c80       0x20 arch/arm/cpu/armv7/start.o
 .rel.u_boot_list_2_cmd_2_setenv
                0x0000000023e98ca0       0x28 arch/arm/cpu/armv7/start.o
 .rel.data.env_htab
                0x0000000023e98cc8        0x8 arch/arm/cpu/armv7/start.o
 .rel.u_boot_list_2_env_clbk_2_console
                0x0000000023e98cd0       0x10 arch/arm/cpu/armv7/start.o
 .rel.u_boot_list_2_env_clbk_2_silent
                0x0000000023e98ce0       0x10 arch/arm/cpu/armv7/start.o
 .rel.data.av_  0x0000000023e98cf0      0x800 arch/arm/cpu/armv7/start.o
 .rel.u_boot_list_2_env_clbk_2_loadaddr
                0x0000000023e994f0       0x10 arch/arm/cpu/armv7/start.o
 .rel.data.stdio_names
                0x0000000023e99500       0x18 arch/arm/cpu/armv7/start.o
 .rel.u_boot_list_2_cmd_2_aes
                0x0000000023e99518       0x20 arch/arm/cpu/armv7/start.o
 .rel.u_boot_list_2_cmd_2_debug
                0x0000000023e99538       0x20 arch/arm/cpu/armv7/start.o
 .rel.u_boot_list_2_cmd_2_do_ECC
                0x0000000023e99558       0x20 arch/arm/cpu/armv7/start.o
 .rel.u_boot_list_2_cmd_2_do_bbm
                0x0000000023e99578       0x20 arch/arm/cpu/armv7/start.o
 .rel.u_boot_list_2_cmd_2_dstar
                0x0000000023e99598       0x20 arch/arm/cpu/armv7/start.o
 .rel.u_boot_list_2_cmd_2_estar
                0x0000000023e995b8       0x20 arch/arm/cpu/armv7/start.o
 .rel.u_boot_list_2_cmd_2_fatread
                0x0000000023e995d8       0x20 arch/arm/cpu/armv7/start.o
 .rel.u_boot_list_2_cmd_2_mstar
                0x0000000023e995f8       0x20 arch/arm/cpu/armv7/start.o
 .rel.u_boot_list_2_cmd_2_mxp
                0x0000000023e99618       0x20 arch/arm/cpu/armv7/start.o
 .rel.u_boot_list_2_cmd_2_readbbm
                0x0000000023e99638       0x20 arch/arm/cpu/armv7/start.o
 .rel.u_boot_list_2_cmd_2_readcis
                0x0000000023e99658       0x20 arch/arm/cpu/armv7/start.o
 .rel.u_boot_list_2_cmd_2_sdstar
                0x0000000023e99678       0x20 arch/arm/cpu/armv7/start.o
 .rel.u_boot_list_2_cmd_2_secauth
                0x0000000023e99698       0x20 arch/arm/cpu/armv7/start.o
 .rel.u_boot_list_2_cmd_2_setclk
                0x0000000023e996b8       0x20 arch/arm/cpu/armv7/start.o
 .rel.u_boot_list_2_cmd_2_uart
                0x0000000023e996d8       0x20 arch/arm/cpu/armv7/start.o
 .rel.u_boot_list_2_cmd_2_usbstar
                0x0000000023e996f8       0x20 arch/arm/cpu/armv7/start.o
 .rel.u_boot_list_2_cmd_2_ustar
                0x0000000023e99718       0x20 arch/arm/cpu/armv7/start.o
 .rel.u_boot_list_2_cmd_2_writecis
                0x0000000023e99738       0x20 arch/arm/cpu/armv7/start.o
 .rel.u_boot_list_2_cmd_2_mssdmmc
                0x0000000023e99758       0x20 arch/arm/cpu/armv7/start.o
 .rel.u_boot_list_2_cmd_2_customer_init
                0x0000000023e99778       0x18 arch/arm/cpu/armv7/start.o
 .rel.u_boot_list_2_cmd_2_dbg
                0x0000000023e99790       0x20 arch/arm/cpu/armv7/start.o
 .rel.u_boot_list_2_cmd_2_initDbgLevel
                0x0000000023e997b0       0x20 arch/arm/cpu/armv7/start.o
 .rel.u_boot_list_2_cmd_2_gpio
                0x0000000023e997d0       0x20 arch/arm/cpu/armv7/start.o
 .rel.u_boot_list_2_cmd_2_riu
                0x0000000023e997f0       0x20 arch/arm/cpu/armv7/start.o
 .rel.u_boot_list_2_cmd_2_srcfg
                0x0000000023e99810       0x20 arch/arm/cpu/armv7/start.o
 .rel.text.get_dev_hwpart.part.0
                0x0000000023e99830        0x8 arch/arm/cpu/armv7/start.o
 .rel.text.dev_print
                0x0000000023e99838      0x110 arch/arm/cpu/armv7/start.o
 .rel.text.print_part
                0x0000000023e99948       0xb0 arch/arm/cpu/armv7/start.o
 .rel.text.get_device
                0x0000000023e999f8       0x18 arch/arm/cpu/armv7/start.o
 .rel.text.get_device_and_partition
                0x0000000023e99a10       0x70 arch/arm/cpu/armv7/start.o
 .rel.text.test_block_type
                0x0000000023e99a80       0x10 arch/arm/cpu/armv7/start.o
 .rel.text.print_partition_extended
                0x0000000023e99a90       0x30 arch/arm/cpu/armv7/start.o
 .rel.text.get_partition_info_extended.constprop.1
                0x0000000023e99ac0       0xd0 arch/arm/cpu/armv7/start.o
 .rel.text.print_part_dos
                0x0000000023e99b90        0x8 arch/arm/cpu/armv7/start.o
 .rel.rodata.block_drvr
                0x0000000023e99b98       0x28 arch/arm/cpu/armv7/start.o
 .rel.text.ms_uart_padmux
                0x0000000023e99bc0        0x8 arch/arm/cpu/armv7/start.o
 .rel.text.ms_serial_initialize
                0x0000000023e99bc8        0x8 arch/arm/cpu/armv7/start.o
 .rel.text.default_serial_console
                0x0000000023e99bd0        0x8 arch/arm/cpu/armv7/start.o
 .rel.text.ms_uart_getc
                0x0000000023e99bd8        0x8 arch/arm/cpu/armv7/start.o
 .rel.text.ms_uart_putc
                0x0000000023e99be0       0x10 arch/arm/cpu/armv7/start.o
 .rel.text.ms_uart_init
                0x0000000023e99bf0       0x18 arch/arm/cpu/armv7/start.o
 .rel.text.Hal_CREG_SET_PORT
                0x0000000023e99c08        0x8 arch/arm/cpu/armv7/start.o
 .rel.text.Hal_CREG_GET_PORT
                0x0000000023e99c10        0x8 arch/arm/cpu/armv7/start.o
 .rel.text.Hal_CREG_GET_REG_BANK
                0x0000000023e99c18        0x8 arch/arm/cpu/armv7/start.o
 .rel.text._REG_WaitEvent
                0x0000000023e99c20        0x8 arch/arm/cpu/armv7/start.o
 .rel.text._REG_ResetIP
                0x0000000023e99c28       0x10 arch/arm/cpu/armv7/start.o
 .rel.text._SDMMC_EndProcess.isra.0
                0x0000000023e99c38      0x108 arch/arm/cpu/armv7/start.o
 .rel.text._REG_ClearMIEEvent.constprop.3
                0x0000000023e99d40        0x8 arch/arm/cpu/armv7/start.o
 .rel.text._REG_ClearSDSTS.constprop.4
                0x0000000023e99d48        0x8 arch/arm/cpu/armv7/start.o
 .rel.text.Hal_SDMMC_SetSDIODevice
                0x0000000023e99d50        0x8 arch/arm/cpu/armv7/start.o
 .rel.text.Hal_SDMMC_SetDataWidth
                0x0000000023e99d58        0x8 arch/arm/cpu/armv7/start.o
 .rel.text.Hal_SDMMC_SetBusTiming
                0x0000000023e99d60       0x10 arch/arm/cpu/armv7/start.o
 .rel.text.Hal_SDMMC_SetNrcDelay
                0x0000000023e99d70        0x8 arch/arm/cpu/armv7/start.o
 .rel.text.Hal_SDMMC_SetCmdToken
                0x0000000023e99d78        0x8 arch/arm/cpu/armv7/start.o
 .rel.text.Hal_SDMMC_GetRspToken
                0x0000000023e99d80        0x8 arch/arm/cpu/armv7/start.o
 .rel.text.Hal_SDMMC_TransCmdSetting
                0x0000000023e99d88        0x8 arch/arm/cpu/armv7/start.o
 .rel.text.Hal_SDMMC_SendCmdAndWaitProcess
                0x0000000023e99d90       0x30 arch/arm/cpu/armv7/start.o
 .rel.text.Hal_CARD_FindClockSetting
                0x0000000023e99dc0        0x8 arch/arm/cpu/armv7/start.o
 .rel.text.Hal_CARD_SetBusTiming
                0x0000000023e99dc8        0x8 arch/arm/cpu/armv7/start.o
 .rel.text.Hal_CARD_TransMIUAddr
                0x0000000023e99dd0        0x8 arch/arm/cpu/armv7/start.o
 .rel.text.mmc_send_cmd
                0x0000000023e99dd8       0x38 arch/arm/cpu/armv7/start.o
 .rel.text.mmc_set_ios
                0x0000000023e99e10       0x10 arch/arm/cpu/armv7/start.o
 .rel.text.mmc_core_init
                0x0000000023e99e20       0x28 arch/arm/cpu/armv7/start.o
 .rel.text.board_mmc_init
                0x0000000023e99e48       0x18 arch/arm/cpu/armv7/start.o
 .rel.text._SDMMC_CMDReq
                0x0000000023e99e60        0x8 arch/arm/cpu/armv7/start.o
 .rel.text._SDMMC_DATAReq
                0x0000000023e99e68        0x8 arch/arm/cpu/armv7/start.o
 .rel.text._SDMMC_SD_SWITCH_FUNC
                0x0000000023e99e70       0x10 arch/arm/cpu/armv7/start.o
 .rel.text.SDMMC_SwitchPAD
                0x0000000023e99e80       0x18 arch/arm/cpu/armv7/start.o
 .rel.text.SDMMC_SetPAD
                0x0000000023e99e98       0x18 arch/arm/cpu/armv7/start.o
 .rel.text.SDMMC_SetPower
                0x0000000023e99eb0       0x10 arch/arm/cpu/armv7/start.o
 .rel.text.SDMMC_SetClock
                0x0000000023e99ec0       0x18 arch/arm/cpu/armv7/start.o
 .rel.text.SDMMC_SetBusTiming
                0x0000000023e99ed8        0x8 arch/arm/cpu/armv7/start.o
 .rel.text.SDMMC_SetWideBus
                0x0000000023e99ee0       0x18 arch/arm/cpu/armv7/start.o
 .rel.text.SDMMC_SwitchHighBus
                0x0000000023e99ef8       0x40 arch/arm/cpu/armv7/start.o
 .rel.text.SDMMC_Init
                0x0000000023e99f38       0x28 arch/arm/cpu/armv7/start.o
 .rel.text.SDMMC_CIF_BLK_R
                0x0000000023e99f60       0x18 arch/arm/cpu/armv7/start.o
 .rel.text.SDMMC_CIF_BLK_W
                0x0000000023e99f78       0x18 arch/arm/cpu/armv7/start.o
 .rel.text.SDMMC_DMA_BLK_R
                0x0000000023e99f90       0x18 arch/arm/cpu/armv7/start.o
 .rel.text.SDMMC_DMA_BLK_W
                0x0000000023e99fa8       0x18 arch/arm/cpu/armv7/start.o
 .rel.text.SDMMC_ADMA_BLK_R
                0x0000000023e99fc0       0x18 arch/arm/cpu/armv7/start.o
 .rel.text.SDMMC_ADMA_BLK_W
                0x0000000023e99fd8       0x18 arch/arm/cpu/armv7/start.o
 .rel.text._PRT_MSG.part.0
                0x0000000023e99ff0       0x30 arch/arm/cpu/armv7/start.o
 .rel.text._PRT_VALUE.part.1
                0x0000000023e9a020       0x28 arch/arm/cpu/armv7/start.o
 .rel.text._PRT_LINE
                0x0000000023e9a048        0x8 arch/arm/cpu/armv7/start.o
 .rel.text._PRT_ENTER
                0x0000000023e9a050        0x8 arch/arm/cpu/armv7/start.o
 .rel.text._PRT_MSG
                0x0000000023e9a058       0x38 arch/arm/cpu/armv7/start.o
 .rel.text._DUMP_MEM_ARR
                0x0000000023e9a090       0x30 arch/arm/cpu/armv7/start.o
 .rel.text.IPV_SDMMC_DMA_RW.part.3
                0x0000000023e9a0c0       0x38 arch/arm/cpu/armv7/start.o
 .rel.text.IPV_SDMMC_TimerTest
                0x0000000023e9a0f8       0x20 arch/arm/cpu/armv7/start.o
 .rel.text.IPV_SDMMC_CardDetect
                0x0000000023e9a118       0x18 arch/arm/cpu/armv7/start.o
 .rel.text.IPV_SDMMC_Init
                0x0000000023e9a130       0x18 arch/arm/cpu/armv7/start.o
 .rel.text.IPV_SDMMC_SetWideBus
                0x0000000023e9a148       0x18 arch/arm/cpu/armv7/start.o
 .rel.text.IPV_SDMMC_SetHighBus
                0x0000000023e9a160       0x18 arch/arm/cpu/armv7/start.o
 .rel.text.IPV_SDMMC_SetClock
                0x0000000023e9a178       0x10 arch/arm/cpu/armv7/start.o
 .rel.text.IPV_SDMMC_SetBusTiming
                0x0000000023e9a188       0x10 arch/arm/cpu/armv7/start.o
 .rel.text.IPV_SDMMC_CIFD_RW
                0x0000000023e9a198       0x38 arch/arm/cpu/armv7/start.o
 .rel.text.IPV_SDMMC_ADMA_RW
                0x0000000023e9a1d0       0x38 arch/arm/cpu/armv7/start.o
 .rel.text.IPV_SDMMC_TestPattern
                0x0000000023e9a208       0x18 arch/arm/cpu/armv7/start.o
 .rel.text.IPV_SDMMC_BurnRW
                0x0000000023e9a220       0x50 arch/arm/cpu/armv7/start.o
 .rel.text.IPV_SDMMC_SetPAD
                0x0000000023e9a270       0x10 arch/arm/cpu/armv7/start.o
 .rel.text.IPV_SDMMC_PowerSavingModeVerify
                0x0000000023e9a280       0x18 arch/arm/cpu/armv7/start.o
 .rel.text._HAL_FSP_WaitDone
                0x0000000023e9a298       0x18 arch/arm/cpu/armv7/start.o
 .rel.text.HAL_SERFLASH_SelectReadMode
                0x0000000023e9a2b0       0x30 arch/arm/cpu/armv7/start.o
 .rel.text.msFlash_ActiveFlash_Set_HW_WP
                0x0000000023e9a2e0       0x10 arch/arm/cpu/armv7/start.o
 .rel.text.HAL_SERFLASH_ClkDiv
                0x0000000023e9a2f0       0x58 arch/arm/cpu/armv7/start.o
 .rel.text.HAL_SERFLASH_Config
                0x0000000023e9a348        0x8 arch/arm/cpu/armv7/start.o
 .rel.text.HAL_SERFLASH_Init
                0x0000000023e9a350       0x38 arch/arm/cpu/armv7/start.o
 .rel.text.HAL_SERFLASH_DetectSize
                0x0000000023e9a388        0x8 arch/arm/cpu/armv7/start.o
 .rel.text.HAL_SERFLASH_AddressToBlock
                0x0000000023e9a390       0x10 arch/arm/cpu/armv7/start.o
 .rel.text.HAL_SERFLASH_BlockToAddress
                0x0000000023e9a3a0        0x8 arch/arm/cpu/armv7/start.o
 .rel.text.HAL_FSP_ReadBufs
                0x0000000023e9a3a8       0x58 arch/arm/cpu/armv7/start.o
 .rel.text.HAL_FSP_WriteBufs
                0x0000000023e9a400       0x68 arch/arm/cpu/armv7/start.o
 .rel.text.HAL_FSP_Read
                0x0000000023e9a468       0x10 arch/arm/cpu/armv7/start.o
 .rel.text.HAL_SERFLASH_Read
                0x0000000023e9a478       0x30 arch/arm/cpu/armv7/start.o
 .rel.text.HAL_FSP_WriteStatus
                0x0000000023e9a4a8       0x28 arch/arm/cpu/armv7/start.o
 .rel.text.HAL_FSP_WriteProtect
                0x0000000023e9a4d0       0x28 arch/arm/cpu/armv7/start.o
 .rel.text.HAL_SERFLASH_WriteProtect
                0x0000000023e9a4f8       0x28 arch/arm/cpu/armv7/start.o
 .rel.text.HAL_FSP_ReadID
                0x0000000023e9a520       0x28 arch/arm/cpu/armv7/start.o
 .rel.text.HAL_SERFLASH_ReadID
                0x0000000023e9a548       0x18 arch/arm/cpu/armv7/start.o
 .rel.text.HAL_FSP_ReadREMS4
                0x0000000023e9a560       0x38 arch/arm/cpu/armv7/start.o
 .rel.text.HAL_FSP_WriteStatusReg
                0x0000000023e9a598       0x20 arch/arm/cpu/armv7/start.o
 .rel.text.HAL_FSP_Entry
                0x0000000023e9a5b8       0x28 arch/arm/cpu/armv7/start.o
 .rel.text.HAL_FSP_Exit
                0x0000000023e9a5e0       0x10 arch/arm/cpu/armv7/start.o
 .rel.text.HAL_FSP_WriteExtAddrReg
                0x0000000023e9a5f0       0x30 arch/arm/cpu/armv7/start.o
 .rel.text.HAL_SERFLASH_DetectType
                0x0000000023e9a620       0x78 arch/arm/cpu/armv7/start.o
 .rel.text.HAL_SERFLASH_WriteExtAddrRegister
                0x0000000023e9a698       0x18 arch/arm/cpu/armv7/start.o
 .rel.text._HAL_FSP_BlockErase
                0x0000000023e9a6b0       0x10 arch/arm/cpu/armv7/start.o
 .rel.text.HAL_FSP_BlockErase
                0x0000000023e9a6c0       0x10 arch/arm/cpu/armv7/start.o
 .rel.text._HAL_PP_BDMAToFSP
                0x0000000023e9a6d0       0x38 arch/arm/cpu/armv7/start.o
 .rel.text.HAL_FSP_Write_BDMA
                0x0000000023e9a708       0x30 arch/arm/cpu/armv7/start.o
 .rel.text.HAL_SERFLASH_Write
                0x0000000023e9a738       0x20 arch/arm/cpu/armv7/start.o
 .rel.text.MDrv_SERFLASH_DetectSize
                0x0000000023e9a758       0x18 arch/arm/cpu/armv7/start.o
 .rel.text.MDrv_SERFLASH_Init
                0x0000000023e9a770       0x20 arch/arm/cpu/armv7/start.o
 .rel.text.MDrv_SERFLASH_AddressToBlock
                0x0000000023e9a790       0x18 arch/arm/cpu/armv7/start.o
 .rel.text.MDrv_SERFLASH_BlockErase
                0x0000000023e9a7a8       0x18 arch/arm/cpu/armv7/start.o
 .rel.text.MDrv_SERFLASH_AddressErase
                0x0000000023e9a7c0       0x18 arch/arm/cpu/armv7/start.o
 .rel.text.MDrv_SERFLASH_Write
                0x0000000023e9a7d8       0x18 arch/arm/cpu/armv7/start.o
 .rel.text.MDrv_SERFLASH_Read
                0x0000000023e9a7f0       0x18 arch/arm/cpu/armv7/start.o
 .rel.text.MDrv_SERFLASH_SectorErase
                0x0000000023e9a808       0x20 arch/arm/cpu/armv7/start.o
 .rel.text.MDrv_SERFLASH_WriteProtect
                0x0000000023e9a828       0x18 arch/arm/cpu/armv7/start.o
 .rel.text.MDrv_SERFLASH_WriteExtAddrRegister
                0x0000000023e9a840       0x18 arch/arm/cpu/armv7/start.o
 .rel.text._spi_flash_write
                0x0000000023e9a858       0x18 arch/arm/cpu/armv7/start.o
 .rel.text._spi_flash_erase
                0x0000000023e9a870       0x18 arch/arm/cpu/armv7/start.o
 .rel.text.spi_flash_probe
                0x0000000023e9a888       0x48 arch/arm/cpu/armv7/start.o
 .rel.text.runAuthenticate
                0x0000000023e9a8d0       0x10 arch/arm/cpu/armv7/start.o
 .rel.text._HAL_FSP_ChkWaitDone
                0x0000000023e9a8e0        0x8 arch/arm/cpu/armv7/start.o
 .rel.text._HAL_FSP_GetRData
                0x0000000023e9a8e8        0x8 arch/arm/cpu/armv7/start.o
 .rel.text._HAL_SPINAND_BDMA_Write.isra.0
                0x0000000023e9a8f0        0x8 arch/arm/cpu/armv7/start.o
 .rel.text.FSP_WRITE_BYTE
                0x0000000023e9a8f8       0x18 arch/arm/cpu/armv7/start.o
 .rel.text._HAL_FSP_CHECK_SPINAND_DONE
                0x0000000023e9a910       0x10 arch/arm/cpu/armv7/start.o
 .rel.text._HAL_FSP_SendOneCmd3A.constprop.11
                0x0000000023e9a920       0x18 arch/arm/cpu/armv7/start.o
 .rel.text._HAL_FSP_SendOneCmd
                0x0000000023e9a938       0x18 arch/arm/cpu/armv7/start.o
 .rel.text.HAL_SPINAND_PLANE_HANDLER
                0x0000000023e9a950        0x8 arch/arm/cpu/armv7/start.o
 .rel.text.HAL_SPINAND_RFC
                0x0000000023e9a958       0x10 arch/arm/cpu/armv7/start.o
 .rel.text.HAL_SPINAND_Read
                0x0000000023e9a968       0x10 arch/arm/cpu/armv7/start.o
 .rel.text.HAL_SPINAND_ReadID
                0x0000000023e9a978       0x18 arch/arm/cpu/armv7/start.o
 .rel.text.HAL_SPINAND_SetCKG
                0x0000000023e9a990       0x40 arch/arm/cpu/armv7/start.o
 .rel.text.HAL_SPINAND_DumpCkg
                0x0000000023e9a9d0       0x68 arch/arm/cpu/armv7/start.o
 .rel.text.HAL_SPINAND_Read_RandomIn
                0x0000000023e9aa38        0x8 arch/arm/cpu/armv7/start.o
 .rel.text.HAL_SPINAND_ReadStatusRegister
                0x0000000023e9aa40       0x18 arch/arm/cpu/armv7/start.o
 .rel.text.HAL_SPINAND_WriteStatusRegister
                0x0000000023e9aa58       0x18 arch/arm/cpu/armv7/start.o
 .rel.text.HAL_SPINAND_PROGRAM_BY_BDMA
                0x0000000023e9aa70       0x20 arch/arm/cpu/armv7/start.o
 .rel.text.HAL_SPINAND_PROGRAM_LOAD_DATA
                0x0000000023e9aa90       0x18 arch/arm/cpu/armv7/start.o
 .rel.text.HAL_SPINAND_Write
                0x0000000023e9aaa8       0x20 arch/arm/cpu/armv7/start.o
 .rel.text.HAL_SPINAND_BLOCKERASE
                0x0000000023e9aac8       0x20 arch/arm/cpu/armv7/start.o
 .rel.text.HAL_SPINAND_WB_BBM
                0x0000000023e9aae8       0x10 arch/arm/cpu/armv7/start.o
 .rel.text.HAL_SPINAND_WB_DumpBBM
                0x0000000023e9aaf8       0x18 arch/arm/cpu/armv7/start.o
 .rel.text.HAL_SPINAND_DieSelect
                0x0000000023e9ab10       0x18 arch/arm/cpu/armv7/start.o
 .rel.text.PalSpinand_SetDriving
                0x0000000023e9ab28       0x10 arch/arm/cpu/armv7/start.o
 .rel.text.HAL_SPINAND_Init
                0x0000000023e9ab38        0x8 arch/arm/cpu/armv7/start.o
 .rel.text._MDrv_SPINAND_GET_INFO
                0x0000000023e9ab40       0x30 arch/arm/cpu/armv7/start.o
 .rel.text.MDrv_SPINAND_Init
                0x0000000023e9ab70       0x18 arch/arm/cpu/armv7/start.o
 .rel.text.MDrv_SPINAND_Read
                0x0000000023e9ab88        0x8 arch/arm/cpu/armv7/start.o
 .rel.text.MDrv_SPINAND_WB_BBM
                0x0000000023e9ab90        0x8 arch/arm/cpu/armv7/start.o
 .rel.text.MDrv_SPINAND_SetDevDriving
                0x0000000023e9ab98       0x10 arch/arm/cpu/armv7/start.o
 .rel.text._MDrv_SPINAND_GetMtdPartsFromPNI
                0x0000000023e9aba8      0x2f8 arch/arm/cpu/armv7/start.o
 .rel.text.MDrv_SPINAND_WriteCIS_for_ROM
                0x0000000023e9aea0       0x20 arch/arm/cpu/armv7/start.o
 .rel.text.MDrv_SPINAND_SearchCIS_in_DRAM
                0x0000000023e9aec0       0x40 arch/arm/cpu/armv7/start.o
 .rel.text.MDrv_SPINAND_GetMtdParts
                0x0000000023e9af00       0x58 arch/arm/cpu/armv7/start.o
 .rel.text.MDrv_SPINAND_GetPartOffset
                0x0000000023e9af58       0x18 arch/arm/cpu/armv7/start.o
 .rel.text.MDrv_SPINAND_ReadCISBlk
                0x0000000023e9af70        0x8 arch/arm/cpu/armv7/start.o
 .rel.text.GD_SPINAND_SetDriving
                0x0000000023e9af78       0x18 arch/arm/cpu/armv7/start.o
 .rel.text.spi_nand_read_byte
                0x0000000023e9af90        0x8 arch/arm/cpu/armv7/start.o
 .rel.text.spi_nand_read_word
                0x0000000023e9af98        0x8 arch/arm/cpu/armv7/start.o
 .rel.text.spi_nand_waitfunc
                0x0000000023e9afa0        0x8 arch/arm/cpu/armv7/start.o
 .rel.text.spi_nand_ecc_read_page_raw
                0x0000000023e9afa8       0x10 arch/arm/cpu/armv7/start.o
 .rel.text.spi_nand_ecc_read_page
                0x0000000023e9afb8       0x10 arch/arm/cpu/armv7/start.o
 .rel.text.spi_nand_cmdfunc
                0x0000000023e9afc8       0x40 arch/arm/cpu/armv7/start.o
 .rel.text.spi_nand_write_page
                0x0000000023e9b008       0x18 arch/arm/cpu/armv7/start.o
 .rel.text.spi_nand_ecc_write_oob
                0x0000000023e9b020       0x18 arch/arm/cpu/armv7/start.o
 .rel.text.spi_nand_ecc_read_subpage
                0x0000000023e9b038       0x28 arch/arm/cpu/armv7/start.o
 .rel.text.spi_nand_ecc_read_oob
                0x0000000023e9b060       0x18 arch/arm/cpu/armv7/start.o
 .rel.text.drvSPINAND_get_DrvContext_address
                0x0000000023e9b078        0x8 arch/arm/cpu/armv7/start.o
 .rel.text.setNandInformation
                0x0000000023e9b080        0x8 arch/arm/cpu/armv7/start.o
 .rel.text.board_nand_init
                0x0000000023e9b088      0x108 arch/arm/cpu/armv7/start.o
 .rel.text.flib_Host20_Periodic_Setting
                0x0000000023e9b190       0x18 arch/arm/cpu/armv7/start.o
 .rel.text.flib_Host20_StopRun_Setting
                0x0000000023e9b1a8       0x20 arch/arm/cpu/armv7/start.o
 .rel.text.flib_Host20_Reset_HC
                0x0000000023e9b1c8        0x8 arch/arm/cpu/armv7/start.o
 .rel.text.flib_Host20_Asynchronous_Setting
                0x0000000023e9b1d0       0x18 arch/arm/cpu/armv7/start.o
 .rel.text.flib_Host20_Bulk_Init
                0x0000000023e9b1e8       0x38 arch/arm/cpu/armv7/start.o
 .rel.text.flib_Host20_PortBusReset
                0x0000000023e9b220       0x18 arch/arm/cpu/armv7/start.o
 .rel.text.Dump_QTD
                0x0000000023e9b238       0x18 arch/arm/cpu/armv7/start.o
 .rel.text.flib_Host20_GetStructure
                0x0000000023e9b250        0x8 arch/arm/cpu/armv7/start.o
 .rel.text.flib_Host20_ReleaseStructure
                0x0000000023e9b258        0x8 arch/arm/cpu/armv7/start.o
 .rel.text.flib_Host20_QHD_Control_Init
                0x0000000023e9b260        0x8 arch/arm/cpu/armv7/start.o
 .rel.text.flib_Host20_InitStructure
                0x0000000023e9b268       0x48 arch/arm/cpu/armv7/start.o
 .rel.text.flib_Host20_Init
                0x0000000023e9b2b0       0x20 arch/arm/cpu/armv7/start.o
 .rel.text.flib_Host20_CheckingForResult_QHD
                0x0000000023e9b2d0       0x58 arch/arm/cpu/armv7/start.o
 .rel.text.flib_Host20_Issue_Interrupt_NonBlock
                0x0000000023e9b328        0x8 arch/arm/cpu/armv7/start.o
 .rel.text.flib_Host20_Send_qTD
                0x0000000023e9b330       0x38 arch/arm/cpu/armv7/start.o
 .rel.text.xhci_ssport_set_state
                0x0000000023e9b368       0x10 arch/arm/cpu/armv7/start.o
 .rel.text.VA2PA
                0x0000000023e9b378       0x10 arch/arm/cpu/armv7/start.o
 .rel.text.PA2VA
                0x0000000023e9b388       0x10 arch/arm/cpu/armv7/start.o
 .rel.text.xhci_ppc
                0x0000000023e9b398       0x28 arch/arm/cpu/armv7/start.o
 .rel.text.MIU_select_setting_ehc
                0x0000000023e9b3c0       0x10 arch/arm/cpu/armv7/start.o
 .rel.text.TV_usb_init
                0x0000000023e9b3d0       0x40 arch/arm/cpu/armv7/start.o
 .rel.text.Usb_host_Init
                0x0000000023e9b410       0x18 arch/arm/cpu/armv7/start.o
 .rel.text._usb_lowlevel_init
                0x0000000023e9b428       0x58 arch/arm/cpu/armv7/start.o
 .rel.text.usb_lowlevel_stop
                0x0000000023e9b480       0x10 arch/arm/cpu/armv7/start.o
 .rel.text.Usb_host_SetEverInited
                0x0000000023e9b490       0x10 arch/arm/cpu/armv7/start.o
 .rel.text.USB_Bulk_InitEx
                0x0000000023e9b4a0       0x20 arch/arm/cpu/armv7/start.o
 .rel.text.submit_bulk_msg
                0x0000000023e9b4c0       0x20 arch/arm/cpu/armv7/start.o
 .rel.text.submit_control_msg
                0x0000000023e9b4e0       0x10 arch/arm/cpu/armv7/start.o
 .rel.text.submit_int_msg
                0x0000000023e9b4f0       0x20 arch/arm/cpu/armv7/start.o
 .rel.text.MHal_EMAC_Ewavetest_100M
                0x0000000023e9b510        0x8 arch/arm/cpu/armv7/start.o
 .rel.text.MHal_EMAC_Ewavetest_10M_LTP
                0x0000000023e9b518        0x8 arch/arm/cpu/armv7/start.o
 .rel.text.MHal_EMAC_Ewavetest_10M_ALLONE
                0x0000000023e9b520        0x8 arch/arm/cpu/armv7/start.o
 .rel.text.MHal_EMAC_Ewavetest_10M_TPIDLE
                0x0000000023e9b528        0x8 arch/arm/cpu/armv7/start.o
 .rel.text.MHal_EMAC_Write_MAN
                0x0000000023e9b530        0x8 arch/arm/cpu/armv7/start.o
 .rel.text.MHal_EMAC_CableConnection
                0x0000000023e9b538       0x20 arch/arm/cpu/armv7/start.o
 .rel.text.MHal_EMAC_CheckTSR
                0x0000000023e9b558        0x8 arch/arm/cpu/armv7/start.o
 .rel.text.MHal_EMAC_NegotiationPHY
                0x0000000023e9b560       0x20 arch/arm/cpu/armv7/start.o
 .rel.text.MHal_EMAC_eWave_Table_Init
                0x0000000023e9b580       0x28 arch/arm/cpu/armv7/start.o
 .rel.text.MHal_EMAC_HW_init
                0x0000000023e9b5a8        0x8 arch/arm/cpu/armv7/start.o
 .rel.text.MHal_EMAC_PHY_reset
                0x0000000023e9b5b0        0x8 arch/arm/cpu/armv7/start.o
 .rel.text.MDrv_EMAC_open
                0x0000000023e9b5b8       0x18 arch/arm/cpu/armv7/start.o
 .rel.text.MDrv_EMAC_PhyAddrScan
                0x0000000023e9b5d0       0x20 arch/arm/cpu/armv7/start.o
 .rel.text.MDrv_EMAC_VarInit
                0x0000000023e9b5f0       0x58 arch/arm/cpu/armv7/start.o
 .rel.text.MDrv_EMAC_DumpMem
                0x0000000023e9b648       0x28 arch/arm/cpu/armv7/start.o
 .rel.text.MDrv_EMAC_tx
                0x0000000023e9b670       0x20 arch/arm/cpu/armv7/start.o
 .rel.text.MDrv_EMAC_rx
                0x0000000023e9b690       0x28 arch/arm/cpu/armv7/start.o
 .rel.text.MDrv_EMAC_PatchPHY
                0x0000000023e9b6b8        0x8 arch/arm/cpu/armv7/start.o
 .rel.text.MDrv_EMAC_initialize
                0x0000000023e9b6c0       0xb8 arch/arm/cpu/armv7/start.o
 .rel.text.MDrv_EMAC_SwReset
                0x0000000023e9b778        0x8 arch/arm/cpu/armv7/start.o
 .rel.text.board_eth_init
                0x0000000023e9b780        0x8 arch/arm/cpu/armv7/start.o
 .rel.text.do_emac
                0x0000000023e9b788        0x8 arch/arm/cpu/armv7/start.o
 .rel.text.do_setMac
                0x0000000023e9b790       0x30 arch/arm/cpu/armv7/start.o
 .rel.text.MHal_GPIO_Pad_Set
                0x0000000023e9b7c0       0x20 arch/arm/cpu/armv7/start.o
 .rel.text.MHal_GPIO_Pad_Oen
                0x0000000023e9b7e0       0x20 arch/arm/cpu/armv7/start.o
 .rel.text.MHal_GPIO_Pad_Level
                0x0000000023e9b800       0x20 arch/arm/cpu/armv7/start.o
 .rel.text.MHal_GPIO_Set_High
                0x0000000023e9b820       0x20 arch/arm/cpu/armv7/start.o
 .rel.text.MHal_GPIO_Set_Low
                0x0000000023e9b840       0x20 arch/arm/cpu/armv7/start.o
 .rel.text.MHal_GPIO_Set_Input
                0x0000000023e9b860       0x20 arch/arm/cpu/armv7/start.o
 .rel.text.MHal_GPIO_Get_InOut
                0x0000000023e9b880       0x20 arch/arm/cpu/armv7/start.o
 .rel.text._HalPadDisablePadMux
                0x0000000023e9b8a0        0x8 arch/arm/cpu/armv7/start.o
 .rel.text.HalPadSetMode_General
                0x0000000023e9b8a8        0x8 arch/arm/cpu/armv7/start.o
 .rel.text.HalPadSetVal
                0x0000000023e9b8b0       0xc8 arch/arm/cpu/armv7/start.o
 .rel.text.HalPadSetMode
                0x0000000023e9b978        0x8 arch/arm/cpu/armv7/start.o
 .rel.text.chk_magic_seq
                0x0000000023e9b980        0x8 arch/arm/cpu/armv7/start.o
 .rel.text.mxp_check_table_magic
                0x0000000023e9b988        0x8 arch/arm/cpu/armv7/start.o
 .rel.text.mxp_init
                0x0000000023e9b990       0x40 arch/arm/cpu/armv7/start.o
 .rel.text.mxp_init_table
                0x0000000023e9b9d0       0x28 arch/arm/cpu/armv7/start.o
 .rel.text.mxp_get_total_record_count
                0x0000000023e9b9f8        0x8 arch/arm/cpu/armv7/start.o
 .rel.text.mxp_save_table
                0x0000000023e9ba00       0x20 arch/arm/cpu/armv7/start.o
 .rel.text.mxp_save_table_from_mem
                0x0000000023e9ba20       0x18 arch/arm/cpu/armv7/start.o
 .rel.text.mxp_get_record_by_index
                0x0000000023e9ba38       0x18 arch/arm/cpu/armv7/start.o
 .rel.text.mxp_delete_record_by_index
                0x0000000023e9ba50       0x20 arch/arm/cpu/armv7/start.o
 .rel.text.mxp_get_record_index
                0x0000000023e9ba70       0x10 arch/arm/cpu/armv7/start.o
 .rel.text.mxp_set_record
                0x0000000023e9ba80       0x30 arch/arm/cpu/armv7/start.o
 .rel.text.mxp_load_table
                0x0000000023e9bab0       0x30 arch/arm/cpu/armv7/start.o
 .rel.text.nor_flash_mxp_get_storage_info
                0x0000000023e9bae0        0x8 arch/arm/cpu/armv7/start.o
 .rel.text.nor_flash_mxp_write_bytes
                0x0000000023e9bae8       0x18 arch/arm/cpu/armv7/start.o
 .rel.text.nor_flash_mxp_update_byte
                0x0000000023e9bb00       0x30 arch/arm/cpu/armv7/start.o
 .rel.text.nor_flash_mxp_read_bytes
                0x0000000023e9bb30       0x18 arch/arm/cpu/armv7/start.o
 .rel.text.mxp_init_nor_flash
                0x0000000023e9bb48       0x50 arch/arm/cpu/armv7/start.o
 .rel.text.Set_SR_MCLK
                0x0000000023e9bb98       0x40 arch/arm/cpu/armv7/start.o
 .rel.text.HAL_HWI2C_ReadChipByte
                0x0000000023e9bbd8        0x8 arch/arm/cpu/armv7/start.o
 .rel.text.HAL_HWI2C_WriteChipByte
                0x0000000023e9bbe0        0x8 arch/arm/cpu/armv7/start.o
 .rel.text.HAL_HWI2C_WriteClk2Byte
                0x0000000023e9bbe8        0x8 arch/arm/cpu/armv7/start.o
 .rel.text._Hal_HWI2C_GetPortRegOffset
                0x0000000023e9bbf0        0x8 arch/arm/cpu/armv7/start.o
 .rel.text.HAL_HWI2C_ReadByte
                0x0000000023e9bbf8        0x8 arch/arm/cpu/armv7/start.o
 .rel.text.HAL_HWI2C_WriteByte
                0x0000000023e9bc00        0x8 arch/arm/cpu/armv7/start.o
 .rel.text.HAL_HWI2C_Write2Byte
                0x0000000023e9bc08        0x8 arch/arm/cpu/armv7/start.o
 .rel.text.HAL_HWI2C_SelectPort
                0x0000000023e9bc10      0x100 arch/arm/cpu/armv7/start.o
 .rel.text.HAL_HWI2C_SetClk
                0x0000000023e9bd10       0x10 arch/arm/cpu/armv7/start.o
 .rel.text._Hal_HWI2C_SetClk
                0x0000000023e9bd20       0x18 arch/arm/cpu/armv7/start.o
 .rel.text.HAL_HWI2C_ReadRdy
                0x0000000023e9bd38        0x8 arch/arm/cpu/armv7/start.o
 .rel.text.HAL_HWI2C_DMA_WaitDone
                0x0000000023e9bd40       0x10 arch/arm/cpu/armv7/start.o
 .rel.text.HAL_HWI2C_NoAck
                0x0000000023e9bd50        0x8 arch/arm/cpu/armv7/start.o
 .rel.text.HAL_HWI2C_Master_Enable
                0x0000000023e9bd58        0x8 arch/arm/cpu/armv7/start.o
 .rel.text.ms_i2c_probe
                0x0000000023e9bd60       0x18 arch/arm/cpu/armv7/start.o
 .rel.text.HAL_HWI2C_DMA_Init
                0x0000000023e9bd78       0x48 arch/arm/cpu/armv7/start.o
 .rel.text._Hal_HWI2C_InitPort
                0x0000000023e9bdc0       0x10 arch/arm/cpu/armv7/start.o
 .rel.text.Hal_HWI2C_Init
                0x0000000023e9bdd0       0x20 arch/arm/cpu/armv7/start.o
 .rel.text.ms_i2c_init
                0x0000000023e9bdf0        0x8 arch/arm/cpu/armv7/start.o
 .rel.text.HAL_HWI2C_DMA_WriteBytes
                0x0000000023e9bdf8       0x20 arch/arm/cpu/armv7/start.o
 .rel.text.HAL_HWI2C_DMA_ReadBytes
                0x0000000023e9be18       0x48 arch/arm/cpu/armv7/start.o
 .rel.text.HAL_HWI2C_XferWrite
                0x0000000023e9be60       0x60 arch/arm/cpu/armv7/start.o
 .rel.text.HAL_HWI2C_XferRead
                0x0000000023e9bec0       0x58 arch/arm/cpu/armv7/start.o
 .rel.text.__DrvDispCtxBindInputPortWidthVidLayer
                0x0000000023e9bf18       0x40 arch/arm/cpu/armv7/start.o
 .rel.text._DrvDispCtxInitDeviceContain
                0x0000000023e9bf58       0x10 arch/arm/cpu/armv7/start.o
 .rel.text._DrvDispCtxInitVidLayerContain
                0x0000000023e9bf68       0x10 arch/arm/cpu/armv7/start.o
 .rel.text._DrvDispCtxInitInputPortContain
                0x0000000023e9bf78       0x10 arch/arm/cpu/armv7/start.o
 .rel.text._DrvDispCtxInitHalContain
                0x0000000023e9bf88       0x10 arch/arm/cpu/armv7/start.o
 .rel.text._DrvDispCtxAllocDevContain
                0x0000000023e9bf98       0x20 arch/arm/cpu/armv7/start.o
 .rel.text._DrvDispCtxAllocVidLayerContain
                0x0000000023e9bfb8       0x20 arch/arm/cpu/armv7/start.o
 .rel.text._DrvDispCtxAllocInputPortContain
                0x0000000023e9bfd8       0x38 arch/arm/cpu/armv7/start.o
 .rel.text.DrvDispCtxInit
                0x0000000023e9c010       0x10 arch/arm/cpu/armv7/start.o
 .rel.text.DrvDispCtxAllocate
                0x0000000023e9c020       0x18 arch/arm/cpu/armv7/start.o
 .rel.text.DrvDispCtxSetCurCtx
                0x0000000023e9c038       0x48 arch/arm/cpu/armv7/start.o
 .rel.text.__DrvDispIfGetTimingFromTbl
                0x0000000023e9c080        0x8 arch/arm/cpu/armv7/start.o
 .rel.text._DrvDispIfTransDeviceOutpuTimingInfoToHal
                0x0000000023e9c088      0x110 arch/arm/cpu/armv7/start.o
 .rel.text._DrvDispIfTransInputPortFrameDataToHal
                0x0000000023e9c198       0xb0 arch/arm/cpu/armv7/start.o
 .rel.text._DrvDispIfTransInputPortAttrToHal
                0x0000000023e9c248       0x18 arch/arm/cpu/armv7/start.o
 .rel.text._DrvDispIfExecuteQuery
                0x0000000023e9c260      0x140 arch/arm/cpu/armv7/start.o
 .rel.text.DrvDispIfSetClk
                0x0000000023e9c3a0       0x10 arch/arm/cpu/armv7/start.o
 .rel.text.DrvDispIfInitPanelConfig
                0x0000000023e9c3b0       0x28 arch/arm/cpu/armv7/start.o
 .rel.text.DrvDispIfDeviceCreateInstance
                0x0000000023e9c3d8       0x28 arch/arm/cpu/armv7/start.o
 .rel.text.DrvDispIfVideoLayerCreateInstance
                0x0000000023e9c400       0x10 arch/arm/cpu/armv7/start.o
 .rel.text.DrvDispIfInputPortCreateInstance
                0x0000000023e9c410       0x10 arch/arm/cpu/armv7/start.o
 .rel.text.DrvDispIfSetDbgLevel
                0x0000000023e9c420        0x8 arch/arm/cpu/armv7/start.o
 .rel.text.MHAL_DISP_InitPanelConfig
                0x0000000023e9c428       0x18 arch/arm/cpu/armv7/start.o
 .rel.text.MHAL_DISP_DeviceCreateInstance
                0x0000000023e9c440       0x18 arch/arm/cpu/armv7/start.o
 .rel.text.MHAL_DISP_DeviceEnable
                0x0000000023e9c458       0x18 arch/arm/cpu/armv7/start.o
 .rel.text.MHAL_DISP_DeviceSetBackGroundColor
                0x0000000023e9c470       0x18 arch/arm/cpu/armv7/start.o
 .rel.text.MHAL_DISP_DeviceAddOutInterface
                0x0000000023e9c488       0x18 arch/arm/cpu/armv7/start.o
 .rel.text.MHAL_DISP_DeviceSetOutputTiming
                0x0000000023e9c4a0       0x18 arch/arm/cpu/armv7/start.o
 .rel.text.MHAL_DISP_VideoLayerCreateInstance
                0x0000000023e9c4b8       0x18 arch/arm/cpu/armv7/start.o
 .rel.text.MHAL_DISP_InputPortCreateInstance
                0x0000000023e9c4d0       0x18 arch/arm/cpu/armv7/start.o
 .rel.text.MHAL_DISP_InputPortFlip
                0x0000000023e9c4e8       0x18 arch/arm/cpu/armv7/start.o
 .rel.text.MHAL_DISP_InputPortEnable
                0x0000000023e9c500       0x18 arch/arm/cpu/armv7/start.o
 .rel.text.MHAL_DISP_InputPortSetAttr
                0x0000000023e9c518       0x18 arch/arm/cpu/armv7/start.o
 .rel.text.MHAL_DISP_DbgLevel
                0x0000000023e9c530       0x18 arch/arm/cpu/armv7/start.o
 .rel.text._HalDispIfGetInfoDeviceEnable
                0x0000000023e9c548       0x18 arch/arm/cpu/armv7/start.o
 .rel.text._HalDispIfGetInfoDeviceBackGroundColor
                0x0000000023e9c560       0x18 arch/arm/cpu/armv7/start.o
 .rel.text._HalDispIfGetInfoDeviceInterface
                0x0000000023e9c578       0x40 arch/arm/cpu/armv7/start.o
 .rel.text._HalDispIfGetInfoInputPortInit
                0x0000000023e9c5b8       0x10 arch/arm/cpu/armv7/start.o
 .rel.text._HalDispIfGetInfoInputPortEnable
                0x0000000023e9c5c8       0x28 arch/arm/cpu/armv7/start.o
 .rel.text._HalDispIfGetInfoClkSet
                0x0000000023e9c5f0       0x10 arch/arm/cpu/armv7/start.o
 .rel.text._HalDispIfSetDeviceInit
                0x0000000023e9c600        0x8 arch/arm/cpu/armv7/start.o
 .rel.text._HalDispIfGetInfoDeviceOutputTiming
                0x0000000023e9c608       0x18 arch/arm/cpu/armv7/start.o
 .rel.text._HalDispIfGetInfoDeviceLcdParam
                0x0000000023e9c620       0x60 arch/arm/cpu/armv7/start.o
 .rel.text._HalDispIfGetInfoInputPortAttr
                0x0000000023e9c680       0x28 arch/arm/cpu/armv7/start.o
 .rel.text._HalDispIfGetInfoInputPortFlip
                0x0000000023e9c6a8       0x88 arch/arm/cpu/armv7/start.o
 .rel.text._HalDispIfGetInfoInputPortCrop
                0x0000000023e9c730       0x30 arch/arm/cpu/armv7/start.o
 .rel.text._HalDispIfGetInfoDeviceGammaParam
                0x0000000023e9c760       0x18 arch/arm/cpu/armv7/start.o
 .rel.text._HalDispIfGetInfoDevicTimeZone
                0x0000000023e9c778       0x18 arch/arm/cpu/armv7/start.o
 .rel.text._HalDispIfSetInputPortInit
                0x0000000023e9c790       0x60 arch/arm/cpu/armv7/start.o
 .rel.text._HalDispIfGetInfoInputPortRotate
                0x0000000023e9c7f0       0x90 arch/arm/cpu/armv7/start.o
 .rel.text._HalDispIfSetInputPortRotate
                0x0000000023e9c880       0x40 arch/arm/cpu/armv7/start.o
 .rel.text._HalDispIfSetInputPortCrop
                0x0000000023e9c8c0       0x10 arch/arm/cpu/armv7/start.o
 .rel.text._HalDispIfGetInfoClkGet
                0x0000000023e9c8d0       0x18 arch/arm/cpu/armv7/start.o
 .rel.text._HalDispIfSetClkSet
                0x0000000023e9c8e8       0x18 arch/arm/cpu/armv7/start.o
 .rel.text.__HalDispIfGetNonLinearCurve
                0x0000000023e9c900        0x8 arch/arm/cpu/armv7/start.o
 .rel.text.__HalDispIfPictureTransNonLinear
                0x0000000023e9c908       0x68 arch/arm/cpu/armv7/start.o
 .rel.text._HalDispIfSetDeviceLcdParam
                0x0000000023e9c970       0x18 arch/arm/cpu/armv7/start.o
 .rel.text._HalDispIfSetAllMopgLineBufVal
                0x0000000023e9c988       0x20 arch/arm/cpu/armv7/start.o
 .rel.text._HalDispIfSetMopgWinIsUsedForLbstart
                0x0000000023e9c9a8       0x28 arch/arm/cpu/armv7/start.o
 .rel.text._HalDispIfSetInputPortEnable
                0x0000000023e9c9d0       0x10 arch/arm/cpu/armv7/start.o
 .rel.text._HalDispIfSetMopgLineBufOrder
                0x0000000023e9c9e0       0x30 arch/arm/cpu/armv7/start.o
 .rel.text._HalDispIfSetInputPortAttr
                0x0000000023e9ca10       0x10 arch/arm/cpu/armv7/start.o
 .rel.text._HalDispIfSetMopRotImiAddrManage
                0x0000000023e9ca20       0x38 arch/arm/cpu/armv7/start.o
 .rel.text._HalDispIfSetInputPortFlip
                0x0000000023e9ca58       0x30 arch/arm/cpu/armv7/start.o
 .rel.text._HalDispIfGetCallBack
                0x0000000023e9ca88      0x138 arch/arm/cpu/armv7/start.o
 .rel.text.HalDispIfInit
                0x0000000023e9cbc0      0x258 arch/arm/cpu/armv7/start.o
 .rel.text.HalDispIfQuery
                0x0000000023e9ce18       0x18 arch/arm/cpu/armv7/start.o
 .rel.text.HalDispIrqIoCtl
                0x0000000023e9ce30      0x190 arch/arm/cpu/armv7/start.o
 .rel.text.HalDispPqGetHwCtx
                0x0000000023e9cfc0        0x8 arch/arm/cpu/armv7/start.o
 .rel.text.HalDispPqSetHwCtxFlag
                0x0000000023e9cfc8        0x8 arch/arm/cpu/armv7/start.o
 .rel.text.HalDispPqSetPeaking
                0x0000000023e9cfd0       0x18 arch/arm/cpu/armv7/start.o
 .rel.text.HalDispPqSetGammaConfig
                0x0000000023e9cfe8       0x18 arch/arm/cpu/armv7/start.o
 .rel.text.sine
                0x0000000023e9d000       0x10 arch/arm/cpu/armv7/start.o
 .rel.text.cosine
                0x0000000023e9d010       0x10 arch/arm/cpu/armv7/start.o
 .rel.text.SetVideoSatHueMatrix
                0x0000000023e9d020        0x8 arch/arm/cpu/armv7/start.o
 .rel.text.SetVideoContrastMatrix
                0x0000000023e9d028       0x20 arch/arm/cpu/armv7/start.o
 .rel.text.SetVideoColorMatrix
                0x0000000023e9d048        0x8 arch/arm/cpu/armv7/start.o
 .rel.text.HalDispColorInitVar
                0x0000000023e9d050        0x8 arch/arm/cpu/armv7/start.o
 .rel.text.HalDispColorSetColorCorrectMatrix
                0x0000000023e9d058       0x20 arch/arm/cpu/armv7/start.o
 .rel.text.HalDispColorSeletYuvToRgbMatrix
                0x0000000023e9d078       0x40 arch/arm/cpu/armv7/start.o
 .rel.text.HalDispColorAdjustBrightness
                0x0000000023e9d0b8       0x20 arch/arm/cpu/armv7/start.o
 .rel.text.HalDispColorAdjustHCS
                0x0000000023e9d0d8       0x20 arch/arm/cpu/armv7/start.o
 .rel.text.HalDispColorAdjustVideoRGB
                0x0000000023e9d0f8       0x20 arch/arm/cpu/armv7/start.o
 .rel.text.HalMopsShadowInit
                0x0000000023e9d118       0x30 arch/arm/cpu/armv7/start.o
 .rel.text._HalMopGetSwShadow
                0x0000000023e9d148       0x18 arch/arm/cpu/armv7/start.o
 .rel.text._HalMopSetSwShadow
                0x0000000023e9d160       0x18 arch/arm/cpu/armv7/start.o
 .rel.text._HalMopGetShadowReg
                0x0000000023e9d178       0x18 arch/arm/cpu/armv7/start.o
 .rel.text._HalDispMopgGwinRegBkMap
                0x0000000023e9d190       0x10 arch/arm/cpu/armv7/start.o
 .rel.text._HalDispMopgGwinRegShiftMap
                0x0000000023e9d1a0       0x18 arch/arm/cpu/armv7/start.o
 .rel.text._HalDispMopgGwinRegSwShadowMap
                0x0000000023e9d1b8       0x18 arch/arm/cpu/armv7/start.o
 .rel.text.HalDispMopRot0SetRotateMode
                0x0000000023e9d1d0       0x10 arch/arm/cpu/armv7/start.o
 .rel.text.HalDispMopRot1SetRotateMode
                0x0000000023e9d1e0       0x10 arch/arm/cpu/armv7/start.o
 .rel.text.DrvPnlCtxInit
                0x0000000023e9d1f0       0x28 arch/arm/cpu/armv7/start.o
 .rel.text.DrvPnlCtxAllocate
                0x0000000023e9d218       0x28 arch/arm/cpu/armv7/start.o
 .rel.text._DrvPnlIfExecuteQuery
                0x0000000023e9d240       0x88 arch/arm/cpu/armv7/start.o
 .rel.text.DrvPnlIfSetClkConfig
                0x0000000023e9d2c8       0x10 arch/arm/cpu/armv7/start.o
 .rel.text.DrvPnlIfCreateInstance
                0x0000000023e9d2d8       0x20 arch/arm/cpu/armv7/start.o
 .rel.text.DrvPnlIfSetDbgLevel
                0x0000000023e9d2f8        0x8 arch/arm/cpu/armv7/start.o
 .rel.text.MhalPnlSetParamConfig
                0x0000000023e9d300       0x10 arch/arm/cpu/armv7/start.o
 .rel.text.MhalPnlSetMipiDsiConfig
                0x0000000023e9d310       0x10 arch/arm/cpu/armv7/start.o
 .rel.text.MhalPnlSetDebugLevel
                0x0000000023e9d320       0x10 arch/arm/cpu/armv7/start.o
 .rel.text._HalPnlIfGetInfoClkSetConfig
                0x0000000023e9d330       0x10 arch/arm/cpu/armv7/start.o
 .rel.text._HalPnlIfGetInfoParamConfig
                0x0000000023e9d340       0x78 arch/arm/cpu/armv7/start.o
 .rel.text._HalPnlIfGetInfoMipiDsiParamConfig
                0x0000000023e9d3b8       0x80 arch/arm/cpu/armv7/start.o
 .rel.text._HalPnlIfSetClkSetConfig
                0x0000000023e9d438       0x18 arch/arm/cpu/armv7/start.o
 .rel.text._HalPnlIfGetInfoClkGetConfig
                0x0000000023e9d450       0x18 arch/arm/cpu/armv7/start.o
 .rel.text.__HalPnlIfSetSscConfig
                0x0000000023e9d468       0x18 arch/arm/cpu/armv7/start.o
 .rel.text.__HalPnlIfSetPolarityConfig
                0x0000000023e9d480       0x40 arch/arm/cpu/armv7/start.o
 .rel.text.__HalPnlIfSetLpllConfig
                0x0000000023e9d4c0       0x38 arch/arm/cpu/armv7/start.o
 .rel.text.__HalPnlIfSetTimeGenConfig
                0x0000000023e9d4f8       0x80 arch/arm/cpu/armv7/start.o
 .rel.text.__HalPnlIfSetTestPatConfig
                0x0000000023e9d578       0x18 arch/arm/cpu/armv7/start.o
 .rel.text._HalPnlIfSetMipiDsiParamConfig
                0x0000000023e9d590       0x30 arch/arm/cpu/armv7/start.o
 .rel.text._HalPnlIfGetCallBack
                0x0000000023e9d5c0       0x18 arch/arm/cpu/armv7/start.o
 .rel.text.HalPnlIfInit
                0x0000000023e9d5d8       0xd0 arch/arm/cpu/armv7/start.o
 .rel.text.HalPnlIfQuery
                0x0000000023e9d6a8       0x10 arch/arm/cpu/armv7/start.o
 .rel.text.HalPnlGetLpllGain
                0x0000000023e9d6b8       0x10 arch/arm/cpu/armv7/start.o
 .rel.text.HalPnlGetLpllDiv
                0x0000000023e9d6c8       0x10 arch/arm/cpu/armv7/start.o
 .rel.text.HalPnlDumpLpllSetting
                0x0000000023e9d6d8        0x8 arch/arm/cpu/armv7/start.o
 .rel.text.HalPnlSetMipiDsiLaneNum
                0x0000000023e9d6e0       0x28 arch/arm/cpu/armv7/start.o
 .rel.text.HalPnlSetMipiDsiCtrlMode
                0x0000000023e9d708       0x60 arch/arm/cpu/armv7/start.o
 .rel.text.HalPnlSetMipiDsiShortPacket
                0x0000000023e9d768       0x28 arch/arm/cpu/armv7/start.o
 .rel.text.HalPnlSetMipiDsiLongPacket
                0x0000000023e9d790       0x28 arch/arm/cpu/armv7/start.o
 .rel.text.HalPnlSetMipiDsiPhyTimConfig
                0x0000000023e9d7b8       0x30 arch/arm/cpu/armv7/start.o
 .rel.text.HalPnlSetMipiDsiVideoTimingConfig
                0x0000000023e9d7e8       0xb8 arch/arm/cpu/armv7/start.o
 .rel.text.HalPnlSetMipiDsiChSel
                0x0000000023e9d8a0       0x18 arch/arm/cpu/armv7/start.o
 .rel.text.HalPnlSetMipiDsiChPolarity
                0x0000000023e9d8b8        0x8 arch/arm/cpu/armv7/start.o
 .rel.text.jpeg_consume_input
                0x0000000023e9d8c0       0x58 arch/arm/cpu/armv7/start.o
 .rel.text.jpeg_calc_output_dimensions
                0x0000000023e9d918       0x38 arch/arm/cpu/armv7/start.o
 .rel.text.jinit_master_decompress
                0x0000000023e9d950       0x10 arch/arm/cpu/armv7/start.o
 .rel.text.finish_input_pass
                0x0000000023e9d960        0x8 arch/arm/cpu/armv7/start.o
 .rel.text.reset_input_controller
                0x0000000023e9d968        0x8 arch/arm/cpu/armv7/start.o
 .rel.text.consume_markers
                0x0000000023e9d970       0x38 arch/arm/cpu/armv7/start.o
 .rel.text.jinit_input_controller
                0x0000000023e9d9a8       0x20 arch/arm/cpu/armv7/start.o
 .rel.text.start_pass_main
                0x0000000023e9d9c8       0x18 arch/arm/cpu/armv7/start.o
 .rel.text.jinit_d_main_controller
                0x0000000023e9d9e0        0x8 arch/arm/cpu/armv7/start.o
 .rel.text.start_output_pass
                0x0000000023e9d9e8       0x10 arch/arm/cpu/armv7/start.o
 .rel.text.jinit_d_coef_controller
                0x0000000023e9d9f8       0x30 arch/arm/cpu/armv7/start.o
 .rel.text.start_pass_dpost
                0x0000000023e9da28       0x18 arch/arm/cpu/armv7/start.o
 .rel.text.jinit_d_post_controller
                0x0000000023e9da40        0x8 arch/arm/cpu/armv7/start.o
 .rel.text.read_markers
                0x0000000023e9da48       0x48 arch/arm/cpu/armv7/start.o
 .rel.text.jinit_marker_reader
                0x0000000023e9da90       0x28 arch/arm/cpu/armv7/start.o
 .rel.text.jpeg_huff_decode
                0x0000000023e9dab8        0x8 arch/arm/cpu/armv7/start.o
 .rel.text.decode_mcu_DC_first
                0x0000000023e9dac0        0x8 arch/arm/cpu/armv7/start.o
 .rel.text.decode_mcu_AC_first
                0x0000000023e9dac8        0x8 arch/arm/cpu/armv7/start.o
 .rel.text.decode_mcu_AC_refine
                0x0000000023e9dad0        0x8 arch/arm/cpu/armv7/start.o
 .rel.text.decode_mcu_sub
                0x0000000023e9dad8        0x8 arch/arm/cpu/armv7/start.o
 .rel.text.decode_mcu
                0x0000000023e9dae0       0x10 arch/arm/cpu/armv7/start.o
 .rel.text.start_pass_huff_decoder
                0x0000000023e9daf0       0x68 arch/arm/cpu/armv7/start.o
 .rel.text.jinit_huff_decoder
                0x0000000023e9db58       0x10 arch/arm/cpu/armv7/start.o
 .rel.text.arith_decode
                0x0000000023e9db68        0x8 arch/arm/cpu/armv7/start.o
 .rel.text.start_pass
                0x0000000023e9db70      0x140 arch/arm/cpu/armv7/start.o
 .rel.text.jinit_arith_decoder
                0x0000000023e9dcb0       0x10 arch/arm/cpu/armv7/start.o
 .rel.text.jinit_inverse_dct
                0x0000000023e9dcc0        0x8 arch/arm/cpu/armv7/start.o
 .rel.text.jinit_upsampler
                0x0000000023e9dcc8       0x38 arch/arm/cpu/armv7/start.o
 .rel.text.jinit_color_deconverter
                0x0000000023e9dd00       0xf0 arch/arm/cpu/armv7/start.o
 .rel.text.jinit_merged_upsampler
                0x0000000023e9ddf0       0x28 arch/arm/cpu/armv7/start.o
 .rel.text.start_pass_1_quant
                0x0000000023e9de18       0x30 arch/arm/cpu/armv7/start.o
 .rel.text.jinit_1pass_quantizer
                0x0000000023e9de48       0x20 arch/arm/cpu/armv7/start.o
 .rel.text.start_pass_2_quant
                0x0000000023e9de68       0x28 arch/arm/cpu/armv7/start.o
 .rel.text.jinit_2pass_quantizer
                0x0000000023e9de90       0x10 arch/arm/cpu/armv7/start.o
 .rel.text.fill_mem_input_buffer
                0x0000000023e9dea0        0x8 arch/arm/cpu/armv7/start.o
 .rel.text.jpeg_mem_src
                0x0000000023e9dea8       0x28 arch/arm/cpu/armv7/start.o
 .rel.text.output_message
                0x0000000023e9ded0        0x8 arch/arm/cpu/armv7/start.o
 .rel.text.jpeg_std_error
                0x0000000023e9ded8       0x30 arch/arm/cpu/armv7/start.o
 .rel.text.alloc_small
                0x0000000023e9df08       0x10 arch/arm/cpu/armv7/start.o
 .rel.text.jinit_memory_mgr
                0x0000000023e9df18       0x58 arch/arm/cpu/armv7/start.o
 .rel.rodata.ms_mmc_ops
                0x0000000023e9df70       0x18 arch/arm/cpu/armv7/start.o
 .rel.rodata.CSWTCH.4
                0x0000000023e9df88       0x18 arch/arm/cpu/armv7/start.o
 .rel.rodata.jpeg_std_message_table
                0x0000000023e9dfa0      0x3f8 arch/arm/cpu/armv7/start.o
 .rel.data.ms_serial_drv
                0x0000000023e9e398       0x30 arch/arm/cpu/armv7/start.o
 .rel.data._hal_SERFLASH_table
                0x0000000023e9e3c8      0x1f8 arch/arm/cpu/armv7/start.o
 .rel.data.spi_nand_bbt_descr
                0x0000000023e9e5c0        0x8 arch/arm/cpu/armv7/start.o
 .rel.data.spi_nand_bbt_main_descr
                0x0000000023e9e5c8        0x8 arch/arm/cpu/armv7/start.o
 .rel.data.spi_nand_bbt_mirror_descr
                0x0000000023e9e5d0        0x8 arch/arm/cpu/armv7/start.o
 .rel.data.packet
                0x0000000023e9e5d8        0x8 arch/arm/cpu/armv7/start.o
 .rel.u_boot_list_2_cmd_2_estart
                0x0000000023e9e5e0       0x20 arch/arm/cpu/armv7/start.o
 .rel.u_boot_list_2_cmd_2_macaddr
                0x0000000023e9e600       0x20 arch/arm/cpu/armv7/start.o
 .rel.u_boot_list_2_i2c_2_ms_i2c_0
                0x0000000023e9e620       0x30 arch/arm/cpu/armv7/start.o
 .rel.u_boot_list_2_i2c_2_ms_i2c_1
                0x0000000023e9e650       0x30 arch/arm/cpu/armv7/start.o
 .rel.text.i2c_get_adapter
                0x0000000023e9e680       0x18 arch/arm/cpu/armv7/start.o
 .rel.text.i2c_init_bus
                0x0000000023e9e698       0x10 arch/arm/cpu/armv7/start.o
 .rel.text.i2c_set_bus_num
                0x0000000023e9e6a8       0x18 arch/arm/cpu/armv7/start.o
 .rel.text.mmc_set_capacity
                0x0000000023e9e6c0       0x40 arch/arm/cpu/armv7/start.o
 .rel.text.mmc_send_status
                0x0000000023e9e700       0x10 arch/arm/cpu/armv7/start.o
 .rel.text.find_mmc_device
                0x0000000023e9e710       0x10 arch/arm/cpu/armv7/start.o
 .rel.text.mmc_bread
                0x0000000023e9e720       0x10 arch/arm/cpu/armv7/start.o
 .rel.text.mmc_select_hwpart
                0x0000000023e9e730        0x8 arch/arm/cpu/armv7/start.o
 .rel.text.mmc_startup
                0x0000000023e9e738       0xa0 arch/arm/cpu/armv7/start.o
 .rel.text.mmc_create
                0x0000000023e9e7d8       0x28 arch/arm/cpu/armv7/start.o
 .rel.text.mmc_start_init
                0x0000000023e9e800       0x10 arch/arm/cpu/armv7/start.o
 .rel.text.print_mmc_devices
                0x0000000023e9e810       0x28 arch/arm/cpu/armv7/start.o
 .rel.text.get_mmc_num
                0x0000000023e9e838        0x8 arch/arm/cpu/armv7/start.o
 .rel.text.mmc_initialize
                0x0000000023e9e840       0x10 arch/arm/cpu/armv7/start.o
 .rel.text.mmc_berase
                0x0000000023e9e850       0x10 arch/arm/cpu/armv7/start.o
 .rel.text.mmc_bwrite
                0x0000000023e9e860       0x18 arch/arm/cpu/armv7/start.o
 .rel.text.__mtd_next_device
                0x0000000023e9e878        0x8 arch/arm/cpu/armv7/start.o
 .rel.text.del_mtd_device
                0x0000000023e9e880       0x10 arch/arm/cpu/armv7/start.o
 .rel.text.get_mtd_device
                0x0000000023e9e890        0x8 arch/arm/cpu/armv7/start.o
 .rel.text.__put_mtd_device
                0x0000000023e9e898       0x10 arch/arm/cpu/armv7/start.o
 .rel.text.add_mtd_device
                0x0000000023e9e8a8       0x20 arch/arm/cpu/armv7/start.o
 .rel.text.mtd_erase_callback
                0x0000000023e9e8c8        0x8 arch/arm/cpu/armv7/start.o
 .rel.text.del_mtd_partitions
                0x0000000023e9e8d0        0x8 arch/arm/cpu/armv7/start.o
 .rel.text.add_mtd_partitions
                0x0000000023e9e8d8       0xe8 arch/arm/cpu/armv7/start.o
 .rel.text.mtd_is_partition
                0x0000000023e9e9c0        0x8 arch/arm/cpu/armv7/start.o
 .rel.data.mtd_partitions
                0x0000000023e9e9c8       0x10 arch/arm/cpu/armv7/start.o
 .rel.text.nand_register
                0x0000000023e9e9d8       0x28 arch/arm/cpu/armv7/start.o
 .rel.text.nand_init
                0x0000000023e9ea00       0x28 arch/arm/cpu/armv7/start.o
 .rel.text.verify_bbt_descr
                0x0000000023e9ea28       0x20 arch/arm/cpu/armv7/start.o
 .rel.text.create_bbt
                0x0000000023e9ea48       0x20 arch/arm/cpu/armv7/start.o
 .rel.text.write_bbt
                0x0000000023e9ea68       0x40 arch/arm/cpu/armv7/start.o
 .rel.text.nand_default_bbt
                0x0000000023e9eaa8       0x28 arch/arm/cpu/armv7/start.o
 .rel.text.nand_erase_opts
                0x0000000023e9ead0       0x48 arch/arm/cpu/armv7/start.o
 .rel.text.nand_write_skip_bad
                0x0000000023e9eb18       0x28 arch/arm/cpu/armv7/start.o
 .rel.text.nand_read_skip_bad
                0x0000000023e9eb40       0x28 arch/arm/cpu/armv7/start.o
 .rel.text.nand_calculate_ecc
                0x0000000023e9eb68        0x8 arch/arm/cpu/armv7/start.o
 .rel.text.nand_set_defaults
                0x0000000023e9eb70       0x88 arch/arm/cpu/armv7/start.o
 .rel.text.nand_fill_oob
                0x0000000023e9ebf8       0x20 arch/arm/cpu/armv7/start.o
 .rel.text.nand_wait
                0x0000000023e9ec18       0x10 arch/arm/cpu/armv7/start.o
 .rel.text.nand_select_chip
                0x0000000023e9ec28       0x20 arch/arm/cpu/armv7/start.o
 .rel.text.nand_transfer_oob
                0x0000000023e9ec48       0x20 arch/arm/cpu/armv7/start.o
 .rel.text.nand_scan_ident
                0x0000000023e9ec68       0xb0 arch/arm/cpu/armv7/start.o
 .rel.text.nand_scan_tail
                0x0000000023e9ed18      0x158 arch/arm/cpu/armv7/start.o
 .rel.data.bbt_main_descr
                0x0000000023e9ee70        0x8 arch/arm/cpu/armv7/start.o
 .rel.data.bbt_main_no_oob_descr
                0x0000000023e9ee78        0x8 arch/arm/cpu/armv7/start.o
 .rel.data.bbt_mirror_descr
                0x0000000023e9ee80        0x8 arch/arm/cpu/armv7/start.o
 .rel.data.bbt_mirror_no_oob_descr
                0x0000000023e9ee88        0x8 arch/arm/cpu/armv7/start.o
 .rel.data.nand_flash_ids
                0x0000000023e9ee90      0x288 arch/arm/cpu/armv7/start.o
 .rel.text.add_to_list
                0x0000000023e9f118       0x10 arch/arm/cpu/armv7/start.o
 .rel.text.validate_vid_hdr
                0x0000000023e9f128       0x30 arch/arm/cpu/armv7/start.o
 .rel.text.ubi_compare_lebs
                0x0000000023e9f158       0x18 arch/arm/cpu/armv7/start.o
 .rel.text.ubi_add_to_av
                0x0000000023e9f170       0x10 arch/arm/cpu/armv7/start.o
 .rel.text.ubi_early_get_peb
                0x0000000023e9f180       0x20 arch/arm/cpu/armv7/start.o
 .rel.text.ubi_attach
                0x0000000023e9f1a0      0x218 arch/arm/cpu/armv7/start.o
 .rel.text.ubi_get_device
                0x0000000023e9f3b8        0x8 arch/arm/cpu/armv7/start.o
 .rel.text.ubi_attach_mtd_dev
                0x0000000023e9f3c0      0x110 arch/arm/cpu/armv7/start.o
 .rel.text.ubi_detach_mtd_dev
                0x0000000023e9f4d0       0x28 arch/arm/cpu/armv7/start.o
 .rel.text.ubi_init
                0x0000000023e9f4f8       0x58 arch/arm/cpu/armv7/start.o
 .rel.text.ubi_exit
                0x0000000023e9f550       0x18 arch/arm/cpu/armv7/start.o
 .rel.text.ubi_mtd_param_parse
                0x0000000023e9f568       0x68 arch/arm/cpu/armv7/start.o
 .rel.text.vtbl_check
                0x0000000023e9f5d0       0x38 arch/arm/cpu/armv7/start.o
 .rel.text.ubi_change_vtbl_record
                0x0000000023e9f608       0x38 arch/arm/cpu/armv7/start.o
 .rel.text.ubi_read_volume_table
                0x0000000023e9f640       0xa8 arch/arm/cpu/armv7/start.o
 .rel.text.self_check_volumes
                0x0000000023e9f6e8       0x90 arch/arm/cpu/armv7/start.o
 .rel.text.ubi_create_volume
                0x0000000023e9f778       0x48 arch/arm/cpu/armv7/start.o
 .rel.text.ubi_resize_volume
                0x0000000023e9f7c0       0x20 arch/arm/cpu/armv7/start.o
 .rel.text.ubi_add_volume
                0x0000000023e9f7e0       0x10 arch/arm/cpu/armv7/start.o
 .rel.text.ubi_eba_read_leb
                0x0000000023e9f7f0       0x30 arch/arm/cpu/armv7/start.o
 .rel.text.ubi_eba_write_leb
                0x0000000023e9f820       0x60 arch/arm/cpu/armv7/start.o
 .rel.text.ubi_eba_write_leb_st
                0x0000000023e9f880       0x30 arch/arm/cpu/armv7/start.o
 .rel.text.ubi_eba_copy_leb
                0x0000000023e9f8b0       0x28 arch/arm/cpu/armv7/start.o
 .rel.text.ubi_eba_init
                0x0000000023e9f8d8       0x30 arch/arm/cpu/armv7/start.o
 .rel.text.validate_ec_hdr
                0x0000000023e9f908       0x30 arch/arm/cpu/armv7/start.o
 .rel.text.self_check_ec_hdr.part.0
                0x0000000023e9f938       0x18 arch/arm/cpu/armv7/start.o
 .rel.text.validate_vid_hdr.isra.1
                0x0000000023e9f950       0x80 arch/arm/cpu/armv7/start.o
 .rel.text.self_check_vid_hdr.part.2
                0x0000000023e9f9d0       0x18 arch/arm/cpu/armv7/start.o
 .rel.text.ubi_io_is_bad
                0x0000000023e9f9e8       0x10 arch/arm/cpu/armv7/start.o
 .rel.text.self_check_not_bad.part.3
                0x0000000023e9f9f8       0x10 arch/arm/cpu/armv7/start.o
 .rel.text.ubi_io_read
                0x0000000023e9fa08       0x30 arch/arm/cpu/armv7/start.o
 .rel.text.self_check_peb_ec_hdr.part.5
                0x0000000023e9fa38       0x18 arch/arm/cpu/armv7/start.o
 .rel.text.ubi_io_mark_bad
                0x0000000023e9fa50       0x18 arch/arm/cpu/armv7/start.o
 .rel.text.ubi_io_read_ec_hdr
                0x0000000023e9fa68       0x28 arch/arm/cpu/armv7/start.o
 .rel.text.ubi_io_read_vid_hdr
                0x0000000023e9fa90       0x28 arch/arm/cpu/armv7/start.o
 .rel.text.ubi_self_check_all_ff
                0x0000000023e9fab8       0x30 arch/arm/cpu/armv7/start.o
 .rel.text.ubi_io_write
                0x0000000023e9fae8       0x68 arch/arm/cpu/armv7/start.o
 .rel.text.do_sync_erase.part.7
                0x0000000023e9fb50       0x38 arch/arm/cpu/armv7/start.o
 .rel.text.ubi_io_sync_erase
                0x0000000023e9fb88       0x60 arch/arm/cpu/armv7/start.o
 .rel.text.prot_queue_del
                0x0000000023e9fbe8       0x10 arch/arm/cpu/armv7/start.o
 .rel.text.do_work
                0x0000000023e9fbf8       0x10 arch/arm/cpu/armv7/start.o
 .rel.text.self_check_in_wl_tree
                0x0000000023e9fc08       0x10 arch/arm/cpu/armv7/start.o
 .rel.text.schedule_erase
                0x0000000023e9fc18        0x8 arch/arm/cpu/armv7/start.o
 .rel.text.ensure_wear_leveling
                0x0000000023e9fc20        0x8 arch/arm/cpu/armv7/start.o
 .rel.text.erase_worker
                0x0000000023e9fc28       0x78 arch/arm/cpu/armv7/start.o
 .rel.text.wear_leveling_worker
                0x0000000023e9fca0       0x40 arch/arm/cpu/armv7/start.o
 .rel.text.ubi_wl_get_peb
                0x0000000023e9fce0       0x20 arch/arm/cpu/armv7/start.o
 .rel.text.ubi_wl_put_peb
                0x0000000023e9fd00       0x20 arch/arm/cpu/armv7/start.o
 .rel.text.ubi_wl_scrub_peb
                0x0000000023e9fd20       0x28 arch/arm/cpu/armv7/start.o
 .rel.text.ubi_wl_init
                0x0000000023e9fd48       0x28 arch/arm/cpu/armv7/start.o
 .rel.text.crc32_le
                0x0000000023e9fd70        0x8 arch/arm/cpu/armv7/start.o
 .rel.text.ubi_update_reserved
                0x0000000023e9fd78        0x8 arch/arm/cpu/armv7/start.o
 .rel.text.ubi_calculate_reserved
                0x0000000023e9fd80       0x10 arch/arm/cpu/armv7/start.o
 .rel.text.ubi_dump_flash
                0x0000000023e9fd90       0x18 arch/arm/cpu/armv7/start.o
 .rel.text.ubi_dump_vol_info
                0x0000000023e9fda8       0x78 arch/arm/cpu/armv7/start.o
 .rel.text.get_current
                0x0000000023e9fe20       0x10 arch/arm/cpu/armv7/start.o
 .rel.text.serial_register
                0x0000000023e9fe30        0x8 arch/arm/cpu/armv7/start.o
 .rel.text.serial_stdio_init
                0x0000000023e9fe38       0x38 arch/arm/cpu/armv7/start.o
 .rel.text.serial_assign
                0x0000000023e9fe70       0x10 arch/arm/cpu/armv7/start.o
 .rel.text.on_baudrate
                0x0000000023e9fe80       0x18 arch/arm/cpu/armv7/start.o
 .rel.u_boot_list_2_env_clbk_2_baudrate
                0x0000000023e9fe98       0x10 arch/arm/cpu/armv7/start.o
 .rel.text.fs_probe_unsupported
                0x0000000023e9fea8        0x8 arch/arm/cpu/armv7/start.o
 .rel.text.fs_get_info
                0x0000000023e9feb0        0x8 arch/arm/cpu/armv7/start.o
 .rel.text.fs_close
                0x0000000023e9feb8        0x8 arch/arm/cpu/armv7/start.o
 .rel.text.fs_set_blk_dev
                0x0000000023e9fec0       0x20 arch/arm/cpu/armv7/start.o
 .rel.text.fs_ls
                0x0000000023e9fee0        0x8 arch/arm/cpu/armv7/start.o
 .rel.text.fs_size
                0x0000000023e9fee8        0x8 arch/arm/cpu/armv7/start.o
 .rel.text.fs_read
                0x0000000023e9fef0       0x10 arch/arm/cpu/armv7/start.o
 .rel.text.do_size
                0x0000000023e9ff00        0x8 arch/arm/cpu/armv7/start.o
 .rel.text.do_load
                0x0000000023e9ff08       0x48 arch/arm/cpu/armv7/start.o
 .rel.text.do_ls
                0x0000000023e9ff50        0x8 arch/arm/cpu/armv7/start.o
 .rel.text.downcase
                0x0000000023e9ff58        0x8 arch/arm/cpu/armv7/start.o
 .rel.text.disk_read
                0x0000000023e9ff60       0x10 arch/arm/cpu/armv7/start.o
 .rel.text.read_bootsectandvi
                0x0000000023e9ff70       0x20 arch/arm/cpu/armv7/start.o
 .rel.text.get_vfatname
                0x0000000023e9ff90       0x10 arch/arm/cpu/armv7/start.o
 .rel.text.get_dentfromdir.isra.1
                0x0000000023e9ffa0       0x28 arch/arm/cpu/armv7/start.o
 .rel.text.fat_set_blk_dev
                0x0000000023e9ffc8       0x28 arch/arm/cpu/armv7/start.o
 .rel.text.fat_register_device
                0x0000000023e9fff0       0x10 arch/arm/cpu/armv7/start.o
 .rel.text.do_fat_read_at
                0x0000000023ea0000       0x50 arch/arm/cpu/armv7/start.o
 .rel.text.file_fat_detectfs
                0x0000000023ea0050       0xb0 arch/arm/cpu/armv7/start.o
 .rel.text.file_fat_read_at
                0x0000000023ea0100        0x8 arch/arm/cpu/armv7/start.o
 .rel.text.fat_read_file
                0x0000000023ea0108        0x8 arch/arm/cpu/armv7/start.o
 .rel.text.do_fat_read_fstart
                0x0000000023ea0110       0x20 arch/arm/cpu/armv7/start.o
 .rel.data.fstypes
                0x0000000023ea0130       0x80 arch/arm/cpu/armv7/start.o
 .rel.text.xz_crc32_init
                0x0000000023ea01b0        0x8 arch/arm/cpu/armv7/start.o
 .rel.text.xz_crc32
                0x0000000023ea01b8        0x8 arch/arm/cpu/armv7/start.o
 .rel.text.xz_dec_run
                0x0000000023ea01c0       0x60 arch/arm/cpu/armv7/start.o
 .rel.text.xz_dec_init
                0x0000000023ea0220        0x8 arch/arm/cpu/armv7/start.o
 .rel.text.xz_dec_lzma2_run
                0x0000000023ea0228       0x48 arch/arm/cpu/armv7/start.o
 .rel.text.xz_dec_lzma2_create
                0x0000000023ea0270       0x28 arch/arm/cpu/armv7/start.o
 .rel.text.inflate_fast
                0x0000000023ea0298       0x18 arch/arm/cpu/armv7/start.o
 .rel.text.inflate_table
                0x0000000023ea02b0       0x20 arch/arm/cpu/armv7/start.o
 .rel.text.inflateInit2_
                0x0000000023ea02d0       0x10 arch/arm/cpu/armv7/start.o
 .rel.text.inflate
                0x0000000023ea02e0      0x188 arch/arm/cpu/armv7/start.o
 .rel.text.zunzip
                0x0000000023ea0468       0x28 arch/arm/cpu/armv7/start.o
 .rel.text.gunzip
                0x0000000023ea0490       0x10 arch/arm/cpu/armv7/start.o
 .rel.text.initcall_run_list
                0x0000000023ea04a0        0x8 arch/arm/cpu/armv7/start.o
 .rel.text.lmb_alloc_base
                0x0000000023ea04a8        0x8 arch/arm/cpu/armv7/start.o
 .rel.text.match_string.isra.2
                0x0000000023ea04b0        0x8 arch/arm/cpu/armv7/start.o
 .rel.text.hcreate_r
                0x0000000023ea04b8        0x8 arch/arm/cpu/armv7/start.o
 .rel.text.hdestroy_r
                0x0000000023ea04c0        0x8 arch/arm/cpu/armv7/start.o
 .rel.text.hmatch_r
                0x0000000023ea04c8        0x8 arch/arm/cpu/armv7/start.o
 .rel.text.hsearch_r
                0x0000000023ea04d0        0x8 arch/arm/cpu/armv7/start.o
 .rel.text.hdelete_r
                0x0000000023ea04d8        0x8 arch/arm/cpu/armv7/start.o
 .rel.text.hexport_r
                0x0000000023ea04e0       0x18 arch/arm/cpu/armv7/start.o
 .rel.text.himport_r
                0x0000000023ea04f8       0x20 arch/arm/cpu/armv7/start.o
 .rel.text.display_options
                0x0000000023ea0518       0x10 arch/arm/cpu/armv7/start.o
 .rel.text.print_size
                0x0000000023ea0528       0x28 arch/arm/cpu/armv7/start.o
 .rel.text.print_buffer
                0x0000000023ea0550       0x28 arch/arm/cpu/armv7/start.o
 .rel.text.crc32_no_comp
                0x0000000023ea0578        0x8 arch/arm/cpu/armv7/start.o
 .rel.text.hang
                0x0000000023ea0580        0x8 arch/arm/cpu/armv7/start.o
 .rel.text.skip_spaces
                0x0000000023ea0588        0x8 arch/arm/cpu/armv7/start.o
 .rel.text.strim
                0x0000000023ea0590        0x8 arch/arm/cpu/armv7/start.o
 .rel.text.string.isra.0
                0x0000000023ea0598        0x8 arch/arm/cpu/armv7/start.o
 .rel.text.number.isra.4
                0x0000000023ea05a0        0x8 arch/arm/cpu/armv7/start.o
 .rel.text.vsnprintf_internal.isra.6
                0x0000000023ea05a8       0x10 arch/arm/cpu/armv7/start.o
 .rel.text.simple_strtoul
                0x0000000023ea05b8        0x8 arch/arm/cpu/armv7/start.o
 .rel.text.simple_strtoull
                0x0000000023ea05c0        0x8 arch/arm/cpu/armv7/start.o
 .rel.text.simple_itoa
                0x0000000023ea05c8        0x8 arch/arm/cpu/armv7/start.o
 .rel.text.tinfl_decompress
                0x0000000023ea05d0      0x1f8 arch/arm/cpu/armv7/start.o
 .rel.text.ArpInit
                0x0000000023ea07c8       0x30 arch/arm/cpu/armv7/start.o
 .rel.text.arp_raw_request
                0x0000000023ea07f8       0x18 arch/arm/cpu/armv7/start.o
 .rel.text.ArpRequest
                0x0000000023ea0810       0x38 arch/arm/cpu/armv7/start.o
 .rel.text.ArpTimeoutCheck
                0x0000000023ea0848       0x20 arch/arm/cpu/armv7/start.o
 .rel.text.ArpReceive
                0x0000000023ea0868       0x40 arch/arm/cpu/armv7/start.o
 .rel.text.DhcpOptionsProcess
                0x0000000023ea08a8       0x68 arch/arm/cpu/armv7/start.o
 .rel.text.DhcpHandler
                0x0000000023ea0910       0x88 arch/arm/cpu/armv7/start.o
 .rel.text.BootpReset
                0x0000000023ea0998       0x20 arch/arm/cpu/armv7/start.o
 .rel.text.BootpRequest
                0x0000000023ea09b8       0x60 arch/arm/cpu/armv7/start.o
 .rel.text.BootpTimeout
                0x0000000023ea0a18       0x20 arch/arm/cpu/armv7/start.o
 .rel.text.eth_current_changed
                0x0000000023ea0a38       0x10 arch/arm/cpu/armv7/start.o
 .rel.text.eth_setenv_enetaddr
                0x0000000023ea0a48        0x8 arch/arm/cpu/armv7/start.o
 .rel.text.eth_getenv_enetaddr_by_index
                0x0000000023ea0a50       0x10 arch/arm/cpu/armv7/start.o
 .rel.text.eth_get_dev_index
                0x0000000023ea0a60        0x8 arch/arm/cpu/armv7/start.o
 .rel.text.eth_write_hwaddr
                0x0000000023ea0a68       0x60 arch/arm/cpu/armv7/start.o
 .rel.text.eth_register
                0x0000000023ea0ac8       0x18 arch/arm/cpu/armv7/start.o
 .rel.text.eth_initialize
                0x0000000023ea0ae0       0x88 arch/arm/cpu/armv7/start.o
 .rel.text.eth_halt
                0x0000000023ea0b68        0x8 arch/arm/cpu/armv7/start.o
 .rel.text.eth_send
                0x0000000023ea0b70        0x8 arch/arm/cpu/armv7/start.o
 .rel.text.eth_rx
                0x0000000023ea0b78        0x8 arch/arm/cpu/armv7/start.o
 .rel.text.eth_try_another
                0x0000000023ea0b80       0x28 arch/arm/cpu/armv7/start.o
 .rel.text.eth_init
                0x0000000023ea0ba8       0x20 arch/arm/cpu/armv7/start.o
 .rel.text.eth_set_current
                0x0000000023ea0bc8       0x20 arch/arm/cpu/armv7/start.o
 .rel.text.eth_get_name
                0x0000000023ea0be8       0x10 arch/arm/cpu/armv7/start.o
 .rel.text.net_clear_handlers
                0x0000000023ea0bf8       0x20 arch/arm/cpu/armv7/start.o
 .rel.text.startAgainTimeout
                0x0000000023ea0c18        0x8 arch/arm/cpu/armv7/start.o
 .rel.text.net_auto_load
                0x0000000023ea0c20       0x10 arch/arm/cpu/armv7/start.o
 .rel.text.NetStartAgain
                0x0000000023ea0c30       0x78 arch/arm/cpu/armv7/start.o
 .rel.text.net_set_udp_handler
                0x0000000023ea0ca8       0x10 arch/arm/cpu/armv7/start.o
 .rel.text.net_get_arp_handler
                0x0000000023ea0cb8        0x8 arch/arm/cpu/armv7/start.o
 .rel.text.net_set_icmp_handler
                0x0000000023ea0cc0        0x8 arch/arm/cpu/armv7/start.o
 .rel.text.NetSetTimeout
                0x0000000023ea0cc8       0x18 arch/arm/cpu/armv7/start.o
 .rel.text.NetReceive
                0x0000000023ea0ce0       0x40 arch/arm/cpu/armv7/start.o
 .rel.text.NetEthHdrSize
                0x0000000023ea0d20        0x8 arch/arm/cpu/armv7/start.o
 .rel.text.NetSetEther
                0x0000000023ea0d28       0x10 arch/arm/cpu/armv7/start.o
 .rel.text.net_update_ether
                0x0000000023ea0d38        0x8 arch/arm/cpu/armv7/start.o
 .rel.text.net_set_ip_header
                0x0000000023ea0d40        0x8 arch/arm/cpu/armv7/start.o
 .rel.text.net_set_udp_header
                0x0000000023ea0d48        0x8 arch/arm/cpu/armv7/start.o
 .rel.text.NetSendUDPPacket
                0x0000000023ea0d50       0x40 arch/arm/cpu/armv7/start.o
 .rel.text.on_bootfile
                0x0000000023ea0d90        0x8 arch/arm/cpu/armv7/start.o
 .rel.text.ip_to_string
                0x0000000023ea0d98        0x8 arch/arm/cpu/armv7/start.o
 .rel.text.NetInitLoop
                0x0000000023ea0da0       0x78 arch/arm/cpu/armv7/start.o
 .rel.text.net_init
                0x0000000023ea0e18       0x20 arch/arm/cpu/armv7/start.o
 .rel.text.NetLoop
                0x0000000023ea0e38      0x1c0 arch/arm/cpu/armv7/start.o
 .rel.text.ping_timeout
                0x0000000023ea0ff8        0x8 arch/arm/cpu/armv7/start.o
 .rel.text.ping_start
                0x0000000023ea1000       0x58 arch/arm/cpu/armv7/start.o
 .rel.text.ping_receive
                0x0000000023ea1058       0x18 arch/arm/cpu/armv7/start.o
 .rel.text.tftp_complete
                0x0000000023ea1070       0x30 arch/arm/cpu/armv7/start.o
 .rel.text.TftpSend
                0x0000000023ea10a0       0xe8 arch/arm/cpu/armv7/start.o
 .rel.text.update_block_number
                0x0000000023ea1188       0x38 arch/arm/cpu/armv7/start.o
 .rel.text.TftpHandler
                0x0000000023ea11c0       0xc8 arch/arm/cpu/armv7/start.o
 .rel.text.TftpTimeout
                0x0000000023ea1288       0x40 arch/arm/cpu/armv7/start.o
 .rel.text.icmp_handler
                0x0000000023ea12c8       0x10 arch/arm/cpu/armv7/start.o
 .rel.text.TftpStart
                0x0000000023ea12d8      0x1a8 arch/arm/cpu/armv7/start.o
 .rel.u_boot_list_2_env_clbk_2_bootfile
                0x0000000023ea1480       0x10 arch/arm/cpu/armv7/start.o
 .rel.text.raise
                0x0000000023ea1490        0x8 arch/arm/cpu/armv7/start.o

.rel_dyn_end    0x0000000023ea1498        0x0
 *(.__rel_dyn_end)
 .__rel_dyn_end
                0x0000000023ea1498        0x0 arch/arm/lib/built-in.o

.end            0x0000000023ea1498        0x0
 *(.__end)
 .__end         0x0000000023ea1498        0x0 arch/arm/lib/built-in.o
                0x0000000023ea1498                _image_binary_end = .
                0x0000000023ea2000                . = ALIGN (0x1000)

.mmutable
 *(.mmutable)

.bss_start      0x0000000023e94670        0x0
 *(.__bss_start)
 .__bss_start   0x0000000023e94670        0x0 arch/arm/lib/built-in.o
                0x0000000023e94670                __bss_start
                0x0000000023e94670                __bss_base = .

.bss            0x0000000023e94670    0x93c78
 *(.bss*)
 .bss.current_ms_ticks
                0x0000000023e94670        0x4 arch/arm/cpu/armv7/built-in.o
 .bss.offset_ms_ticks
                0x0000000023e94674        0x4 arch/arm/cpu/armv7/built-in.o
 .bss.params    0x0000000023e94678        0x4 arch/arm/lib/built-in.o
 .bss.stored_bootdelay
                0x0000000023e9467c        0x4 common/built-in.o
 .bss.monitor_flash_len
                0x0000000023e94680        0x4 common/built-in.o
                0x0000000023e94680                monitor_flash_len
 .bss.images    0x0000000023e94684      0x130 common/built-in.o
                0x0000000023e94684                images
 .bss.callback_list
                0x0000000023e947b4        0x4 common/built-in.o
 .bss.flags_list
                0x0000000023e947b8        0x4 common/built-in.o
 .bss.env_flags
                0x0000000023e947bc        0x1 common/built-in.o
 *fill*         0x0000000023e947bd        0x3 
 .bss.env_ptr   0x0000000023e947c0        0x4 common/built-in.o
                0x0000000023e947c0                env_ptr
 .bss.ms_nand_env_offset
                0x0000000023e947c4        0x4 common/built-in.o
                0x0000000023e947c4                ms_nand_env_offset
 .bss.ms_nand_env_redund_offset
                0x0000000023e947c8        0x4 common/built-in.o
                0x0000000023e947c8                ms_nand_env_redund_offset
 .bss.i2c_dp_last_addr
                0x0000000023e947cc        0x4 common/built-in.o
 .bss.i2c_dp_last_alen
                0x0000000023e947d0        0x4 common/built-in.o
 .bss.i2c_dp_last_chip
                0x0000000023e947d4        0x1 common/built-in.o
 *fill*         0x0000000023e947d5        0x3 
 .bss.i2c_mm_last_addr
                0x0000000023e947d8        0x4 common/built-in.o
 .bss.i2c_mm_last_alen
                0x0000000023e947dc        0x4 common/built-in.o
 .bss.i2c_mm_last_chip
                0x0000000023e947e0        0x1 common/built-in.o
 *fill*         0x0000000023e947e1        0x3 
 .bss.base_address
                0x0000000023e947e4        0x4 common/built-in.o
 .bss.dp_last_addr
                0x0000000023e947e8        0x4 common/built-in.o
 .bss.dp_last_size
                0x0000000023e947ec        0x4 common/built-in.o
 .bss.mm_last_addr
                0x0000000023e947f0        0x4 common/built-in.o
 .bss.mm_last_size
                0x0000000023e947f4        0x4 common/built-in.o
 .bss.current_mtd_dev
                0x0000000023e947f8        0x4 common/built-in.o
                0x0000000023e947f8                current_mtd_dev
 .bss.current_mtd_partnum
                0x0000000023e947fc        0x1 common/built-in.o
                0x0000000023e947fc                current_mtd_partnum
 *fill*         0x0000000023e947fd        0x3 
 .bss.devices   0x0000000023e94800        0x8 common/built-in.o
 .bss.initialized.7892
                0x0000000023e94808        0x4 common/built-in.o
 .bss.last_ids  0x0000000023e9480c       0x80 common/built-in.o
 .bss.last_partition
                0x0000000023e9488c       0x10 common/built-in.o
 .bss.last_parts
                0x0000000023e9489c      0x200 common/built-in.o
 .bss.mtdids    0x0000000023e94a9c        0x8 common/built-in.o
 *fill*         0x0000000023e94aa4        0x4 
 .bss.last.7649
                0x0000000023e94aa8        0x8 common/built-in.o
 .bss.flash     0x0000000023e94ab0        0x4 common/built-in.o
 .bss.buffer    0x0000000023e94ab4       0x50 common/built-in.o
 .bss.ubi       0x0000000023e94b04        0x4 common/built-in.o
 .bss.ubi_dev   0x0000000023e94b08       0x5c common/built-in.o
 .bss.ubi_initialized
                0x0000000023e94b64        0x4 common/built-in.o
 .bss.UsbPortSelect
                0x0000000023e94b68        0x4 common/built-in.o
                0x0000000023e94b68                UsbPortSelect
 .bss.asynch_allowed
                0x0000000023e94b6c        0x4 common/built-in.o
 .bss.dev_index
                0x0000000023e94b70        0x4 common/built-in.o
 .bss.hub_dev   0x0000000023e94b74      0x100 common/built-in.o
 *fill*         0x0000000023e94c74        0xc 
 .bss.usb_dev   0x0000000023e94c80    0x16000 common/built-in.o
 .bss.usb_hub_index
                0x0000000023eaac80        0x4 common/built-in.o
 .bss.usb_started
                0x0000000023eaac84        0x1 common/built-in.o
                0x0000000023eaac84                usb_started
 *fill*         0x0000000023eaac85        0x3 
 .bss.CBWTag    0x0000000023eaac88        0x4 common/built-in.o
 *fill*         0x0000000023eaac8c       0x34 
 .bss.usb_ccb   0x0000000023eaacc0       0xc0 common/built-in.o
 .bss.usb_dev_desc
                0x0000000023eaad80       0x74 common/built-in.o
 .bss.usb_max_devs
                0x0000000023eaadf4        0x4 common/built-in.o
 .bss.usb_stor  0x0000000023eaadf8       0x34 common/built-in.o
 .bss.pDevCtx.9773
                0x0000000023eaae2c        0x4 common/built-in.o
 .bss.pInputPortCtx.9775
                0x0000000023eaae30        0x4 common/built-in.o
 .bss.pPnlDev.9795
                0x0000000023eaae34        0x4 common/built-in.o
 .bss.pVidLayerCtx.9774
                0x0000000023eaae38        0x4 common/built-in.o
 .bss.ctrlc_disabled
                0x0000000023eaae3c        0x4 common/built-in.o
 .bss.ctrlc_was_pressed
                0x0000000023eaae40        0x4 common/built-in.o
 .bss.current_mallinfo
                0x0000000023eaae44       0x28 common/built-in.o
 .bss.max_sbrked_mem
                0x0000000023eaae6c        0x4 common/built-in.o
 .bss.max_total_mem
                0x0000000023eaae70        0x4 common/built-in.o
 .bss.mem_malloc_brk
                0x0000000023eaae74        0x4 common/built-in.o
                0x0000000023eaae74                mem_malloc_brk
 .bss.mem_malloc_end
                0x0000000023eaae78        0x4 common/built-in.o
                0x0000000023eaae78                mem_malloc_end
 .bss.mem_malloc_start
                0x0000000023eaae7c        0x4 common/built-in.o
                0x0000000023eaae7c                mem_malloc_start
 .bss.top_pad   0x0000000023eaae80        0x4 common/built-in.o
 .bss.save_addr
                0x0000000023eaae84        0x4 common/built-in.o
                0x0000000023eaae84                save_addr
 .bss.save_size
                0x0000000023eaae88        0x4 common/built-in.o
                0x0000000023eaae88                save_size
 .bss.devs      0x0000000023eaae8c       0x3c common/built-in.o
 .bss.stdio_devices
                0x0000000023eaaec8        0xc common/built-in.o
                0x0000000023eaaec8                stdio_devices
 .bss.lastcommand.6365
                0x0000000023eaaed4      0x400 common/built-in.o
 .bss.console_buffer
                0x0000000023eab2d4      0x401 common/built-in.o
                0x0000000023eab2d4                console_buffer
 *fill*         0x0000000023eab6d5        0x3 
 .bss.hist_add_idx
                0x0000000023eab6d8        0x4 common/built-in.o
 .bss.hist_lines
                0x0000000023eab6dc     0x5014 common/built-in.o
 .bss.hist_list
                0x0000000023eb06f0       0x50 common/built-in.o
 .bss.hist_max  0x0000000023eb0740        0x4 common/built-in.o
 .bss.hist_num  0x0000000023eb0744        0x4 common/built-in.o
 .bss.initted.6445
                0x0000000023eb0748        0x4 common/built-in.o
 .bss.tmp_buf   0x0000000023eb074c      0x400 common/built-in.o
 .bss.tmp_buf.6326
                0x0000000023eb0b4c      0x200 common/built-in.o
 .bss.init_sdcard_flag
                0x0000000023eb0d4c        0x4 common/built-in.o
 .bss.init_usb_flag
                0x0000000023eb0d50        0x4 common/built-in.o
 .bss.probe     0x0000000023eb0d54        0x4 common/built-in.o
                0x0000000023eb0d54                probe
 .bss.uart_multi_base
                0x0000000023eb0d58        0x4 drivers/built-in.o
                0x0000000023eb0d58                uart_multi_base
 .bss.gePort    0x0000000023eb0d5c        0xc drivers/built-in.o
 .bss.gb_SDIODevice
                0x0000000023eb0d68        0x3 drivers/built-in.o
 .bss.gb_StopWProc
                0x0000000023eb0d6b        0x3 drivers/built-in.o
 *fill*         0x0000000023eb0d6e        0x2 
 .bss.gpu8Buf   0x0000000023eb0d70        0xc drivers/built-in.o
 .bss.gst_RspStruct
                0x0000000023eb0d7c       0x6c drivers/built-in.o
 .bss.gu16_DDR_MODE_REG
                0x0000000023eb0de8        0x6 drivers/built-in.o
 .bss.gu16_DDR_MODE_REG_ForR2N
                0x0000000023eb0dee        0x6 drivers/built-in.o
 .bss.gu16_SD_MODE_DatLine
                0x0000000023eb0df4        0x6 drivers/built-in.o
 .bss.gu16_WT_NRC
                0x0000000023eb0dfa        0x6 drivers/built-in.o
 .bss.ge_BusTiming
                0x0000000023eb0e00        0xc drivers/built-in.o
 .bss.gu32_DevSlotDev
                0x0000000023eb0e0c       0x28 drivers/built-in.o
 .bss._pstRsp   0x0000000023eb0e34        0xc drivers/built-in.o
 .bss._stSDMMCInfo
                0x0000000023eb0e40       0xf0 drivers/built-in.o
 .bss.gu8RspBuf
                0x0000000023eb0f30      0x600 drivers/built-in.o
 .bss.gu16Ret1  0x0000000023eb1530        0x2 drivers/built-in.o
 .bss.gu16Ret2  0x0000000023eb1532        0x2 drivers/built-in.o
 .bss.gu16Ret3  0x0000000023eb1534        0x2 drivers/built-in.o
 .bss.gu8Pattern
                0x0000000023eb1536        0x1 drivers/built-in.o
 .bss._bHasEAR  0x0000000023eb1537        0x1 drivers/built-in.o
                0x0000000023eb1537                _bHasEAR
 .bss._bNon4kErase
                0x0000000023eb1538        0x1 drivers/built-in.o
                0x0000000023eb1538                _bNon4kErase
 *fill*         0x0000000023eb1539        0x3 
 .bss._hal_SERFLASH
                0x0000000023eb153c       0x2c drivers/built-in.o
                0x0000000023eb153c                _hal_SERFLASH
 .bss._s32SERFLASH_Mutex
                0x0000000023eb1568        0x4 drivers/built-in.o
 .bss._u8SERFLASHDbgLevel
                0x0000000023eb156c        0x1 drivers/built-in.o
                0x0000000023eb156c                _u8SERFLASHDbgLevel
 .bss.bDetect   0x0000000023eb156d        0x1 drivers/built-in.o
                0x0000000023eb156d                bDetect
 .bss.u8BDMA    0x0000000023eb156e      0x100 drivers/built-in.o
 .bss._SERFLASHDrvStatus
                0x0000000023eb166e        0x1 drivers/built-in.o
 *fill*         0x0000000023eb166f        0x1 
 .bss._SERFLASHInfo
                0x0000000023eb1670       0x10 drivers/built-in.o
 .bss._u8SPINANDDbgLevel
                0x0000000023eb1680        0x1 drivers/built-in.o
                0x0000000023eb1680                _u8SPINANDDbgLevel
 *fill*         0x0000000023eb1681        0x3 
 .bss.SetDriving
                0x0000000023eb1684        0x4 drivers/built-in.o
                0x0000000023eb1684                SetDriving
 .bss.gtSpiNandDrv
                0x0000000023eb1688      0x24c drivers/built-in.o
                0x0000000023eb1688                gtSpiNandDrv
 .bss.u32_CurRow
                0x0000000023eb18d4        0x4 drivers/built-in.o
 *fill*         0x0000000023eb18d8       0x28 
 .bss.Host20_qHD_List_Bulk0
                0x0000000023eb1900       0x30 drivers/built-in.o
                0x0000000023eb1900                Host20_qHD_List_Bulk0
 *fill*         0x0000000023eb1930       0x50 
 .bss.Host20_qHD_List_Bulk1
                0x0000000023eb1980       0x30 drivers/built-in.o
                0x0000000023eb1980                Host20_qHD_List_Bulk1
 *fill*         0x0000000023eb19b0       0x50 
 .bss.Host20_qHD_List_Control0
                0x0000000023eb1a00       0x30 drivers/built-in.o
                0x0000000023eb1a00                Host20_qHD_List_Control0
 *fill*         0x0000000023eb1a30       0x50 
 .bss.Host20_qHD_List_Control1
                0x0000000023eb1a80       0x30 drivers/built-in.o
                0x0000000023eb1a80                Host20_qHD_List_Control1
 .bss.Host20_qTD_Manage
                0x0000000023eb1ab0       0x10 drivers/built-in.o
                0x0000000023eb1ab0                Host20_qTD_Manage
 *fill*         0x0000000023eb1ac0       0x40 
 .bss.QtdBuf    0x0000000023eb1b00      0x280 drivers/built-in.o
                0x0000000023eb1b00                QtdBuf
 .bss.UsbCtrlBuf
                0x0000000023eb1d80      0x100 drivers/built-in.o
                0x0000000023eb1d80                UsbCtrlBuf
 .bss.UsbDataBuf
                0x0000000023eb1e80      0x100 drivers/built-in.o
                0x0000000023eb1e80                UsbDataBuf
 .bss.ms_ehci   0x0000000023eb1f80       0x38 drivers/built-in.o
 .bss.FirstBulkIn
                0x0000000023eb1fb8        0x4 drivers/built-in.o
                0x0000000023eb1fb8                FirstBulkIn
 .bss.FirstBulkOut
                0x0000000023eb1fbc        0x4 drivers/built-in.o
                0x0000000023eb1fbc                FirstBulkOut
 .bss.miu0_bus_base_addr
                0x0000000023eb1fc0        0x4 drivers/built-in.o
 .bss.miu1_bus_base_addr
                0x0000000023eb1fc4        0x4 drivers/built-in.o
 .bss.rh_status
                0x0000000023eb1fc8        0x4 drivers/built-in.o
 .bss.MHalThisBCE
                0x0000000023eb1fcc       0x1f drivers/built-in.o
                0x0000000023eb1fcc                MHalThisBCE
 *fill*         0x0000000023eb1feb        0x1 
 .bss.EMAC_MEM_BASE
                0x0000000023eb1fec        0x4 drivers/built-in.o
                0x0000000023eb1fec                EMAC_MEM_BASE
 .bss.RAM_ADDR_BASE
                0x0000000023eb1ff0        0x4 drivers/built-in.o
                0x0000000023eb1ff0                RAM_ADDR_BASE
 .bss.RBQP_BASE
                0x0000000023eb1ff4        0x4 drivers/built-in.o
                0x0000000023eb1ff4                RBQP_BASE
 .bss.RX_BUFFER_BASE
                0x0000000023eb1ff8        0x4 drivers/built-in.o
                0x0000000023eb1ff8                RX_BUFFER_BASE
 .bss.ThisBCE   0x0000000023eb1ffc       0x20 drivers/built-in.o
                0x0000000023eb1ffc                ThisBCE
 .bss.ThisUVE   0x0000000023eb201c       0xa0 drivers/built-in.o
                0x0000000023eb201c                ThisUVE
 .bss.eWaveCbTable
                0x0000000023eb20bc       0x14 drivers/built-in.o
                0x0000000023eb20bc                eWaveCbTable
 .bss.emac_init
                0x0000000023eb20d0        0x4 drivers/built-in.o
                0x0000000023eb20d0                emac_init
 .bss.emac_var  0x0000000023eb20d4    0x38400 drivers/built-in.o
 .bss.hw_device
                0x0000000023eea4d4       0x44 drivers/built-in.o
                0x0000000023eea4d4                hw_device
 .bss.nic_device
                0x0000000023eea518       0x44 drivers/built-in.o
                0x0000000023eea518                nic_device
 .bss.packet_data
                0x0000000023eea55c      0x830 drivers/built-in.o
 .bss.phy_id    0x0000000023eead8c        0x1 drivers/built-in.o
                0x0000000023eead8c                phy_id
 .bss.t_packet  0x0000000023eead8d      0x830 drivers/built-in.o
 *fill*         0x0000000023eeb5bd        0x3 
 .bss.mxp       0x0000000023eeb5c0        0x4 drivers/built-in.o
 .bss.mxp_base  0x0000000023eeb5c4        0x4 drivers/built-in.o
                0x0000000023eeb5c4                mxp_base
 .bss.mxp_parts
                0x0000000023eeb5c8        0x4 drivers/built-in.o
 .bss.mxp_record_count
                0x0000000023eeb5cc        0x4 drivers/built-in.o
 .bss.mxp_table_size
                0x0000000023eeb5d0        0x4 drivers/built-in.o
 .bss.nor_flash_mxp
                0x0000000023eeb5d4        0x4 drivers/built-in.o
 .bss.norflash  0x0000000023eeb5d8        0x4 drivers/built-in.o
 .bss.HWI2C_DMA
                0x0000000023eeb5dc       0x10 drivers/built-in.o
                0x0000000023eeb5dc                HWI2C_DMA
 .bss._gMChipIO_MapBase
                0x0000000023eeb5ec        0x4 drivers/built-in.o
 .bss._gMClkIO_MapBase
                0x0000000023eeb5f0        0x4 drivers/built-in.o
 .bss._gMIO_MapBase
                0x0000000023eeb5f4        0x8 drivers/built-in.o
 .bss.errBuf    0x0000000023eeb5fc     0x1000 drivers/built-in.o
                0x0000000023eeb5fc                errBuf
 .bss.g_bDMAEnable
                0x0000000023eec5fc        0x2 drivers/built-in.o
 .bss.g_bLastByte
                0x0000000023eec5fe        0x2 drivers/built-in.o
 .bss.g_stPortCfg
                0x0000000023eec600       0x48 drivers/built-in.o
 .bss.g_u16DmaDelayFactor
                0x0000000023eec648        0x4 drivers/built-in.o
 .bss.msI2CInit
                0x0000000023eec64c        0x4 drivers/built-in.o
 .bss.perrBuf   0x0000000023eec650        0x4 drivers/built-in.o
                0x0000000023eec650                perrBuf
 .bss.gbDispCtxInit
                0x0000000023eec654        0x1 drivers/built-in.o
                0x0000000023eec654                gbDispCtxInit
 *fill*         0x0000000023eec655        0x3 
 .bss.gstDispCtxContainTbl
                0x0000000023eec658      0x190 drivers/built-in.o
                0x0000000023eec658                gstDispCtxContainTbl
 .bss.pgstCurDispDevCtx
                0x0000000023eec7e8        0x4 drivers/built-in.o
                0x0000000023eec7e8                pgstCurDispDevCtx
 .bss.pgstCurInputPortCtx
                0x0000000023eec7ec       0x88 drivers/built-in.o
                0x0000000023eec7ec                pgstCurInputPortCtx
 .bss.pgstCurVidLayerCtx
                0x0000000023eec874        0x8 drivers/built-in.o
                0x0000000023eec874                pgstCurVidLayerCtx
 .bss._gu32DispDbgLevel
                0x0000000023eec87c        0x4 drivers/built-in.o
                0x0000000023eec87c                _gu32DispDbgLevel
 .bss.gstDevTimingTbl
                0x0000000023eec880      0x45c drivers/built-in.o
                0x0000000023eec880                gstDevTimingTbl
 .bss.bImiInit  0x0000000023eeccdc        0x1 drivers/built-in.o
                0x0000000023eeccdc                bImiInit
 .bss.gbDispHwIfInit
                0x0000000023eeccdd        0x1 drivers/built-in.o
                0x0000000023eeccdd                gbDispHwIfInit
 .bss.gbMopgInitNum
                0x0000000023eeccde        0x1 drivers/built-in.o
                0x0000000023eeccde                gbMopgInitNum
 *fill*         0x0000000023eeccdf        0x1 
 .bss.gpDispCbTbl
                0x0000000023eecce0      0x1b0 drivers/built-in.o
                0x0000000023eecce0                gpDispCbTbl
 .bss.gpMopgLbOdTbl
                0x0000000023eece90       0x80 drivers/built-in.o
                0x0000000023eece90                gpMopgLbOdTbl
 .bss.sbMopRotHwInit.7710
                0x0000000023eecf10        0x1 drivers/built-in.o
 .bss.sbMopgHwInit.7708
                0x0000000023eecf11        0x1 drivers/built-in.o
 .bss.sbMopsHwInit.7709
                0x0000000023eecf12        0x1 drivers/built-in.o
 .bss.sbMopsSwShadowInit.7711
                0x0000000023eecf13        0x1 drivers/built-in.o
 .bss.u32MopRotImiTotalAddr
                0x0000000023eecf14        0x4 drivers/built-in.o
                0x0000000023eecf14                u32MopRotImiTotalAddr
 .bss.u32Rot0ImiCaddr
                0x0000000023eecf18        0x4 drivers/built-in.o
                0x0000000023eecf18                u32Rot0ImiCaddr
 .bss.u32Rot0ImiYaddr
                0x0000000023eecf1c        0x4 drivers/built-in.o
                0x0000000023eecf1c                u32Rot0ImiYaddr
 .bss.u32Rot1ImiCaddr
                0x0000000023eecf20        0x4 drivers/built-in.o
                0x0000000023eecf20                u32Rot1ImiCaddr
 .bss.u32Rot1ImiYaddr
                0x0000000023eecf24        0x4 drivers/built-in.o
                0x0000000023eecf24                u32Rot1ImiYaddr
 .bss.gu32InternalIsrStatus
                0x0000000023eecf28        0x4 drivers/built-in.o
                0x0000000023eecf28                gu32InternalIsrStatus
 .bss.gu32VgaHpdIsrStatus
                0x0000000023eecf2c        0x4 drivers/built-in.o
                0x0000000023eecf2c                gu32VgaHpdIsrStatus
 .bss.gstHwPqCtx
                0x0000000023eecf30       0xdc drivers/built-in.o
                0x0000000023eecf30                gstHwPqCtx
 .bss.g_tColorCfg
                0x0000000023eed00c       0xe8 drivers/built-in.o
                0x0000000023eed00c                g_tColorCfg
 .bss.u16Mopg01SwShadowReg
                0x0000000023eed0f4       0x20 drivers/built-in.o
                0x0000000023eed0f4                u16Mopg01SwShadowReg
 .bss.u16Mopg01SwShadowVal
                0x0000000023eed114       0x10 drivers/built-in.o
                0x0000000023eed114                u16Mopg01SwShadowVal
 .bss.u16Mopg02SwShadowReg
                0x0000000023eed124       0x20 drivers/built-in.o
                0x0000000023eed124                u16Mopg02SwShadowReg
 .bss.u16Mopg02SwShadowVal
                0x0000000023eed144       0x10 drivers/built-in.o
                0x0000000023eed144                u16Mopg02SwShadowVal
 .bss.u16MopsSwShadowReg
                0x0000000023eed154        0x4 drivers/built-in.o
                0x0000000023eed154                u16MopsSwShadowReg
 .bss.u16MopsSwShadowVal
                0x0000000023eed158        0x2 drivers/built-in.o
                0x0000000023eed158                u16MopsSwShadowVal
 .bss.gbPnlCtxInit
                0x0000000023eed15a        0x1 drivers/built-in.o
                0x0000000023eed15a                gbPnlCtxInit
 *fill*         0x0000000023eed15b        0x1 
 .bss.gstPnlCtxTbl
                0x0000000023eed15c       0x10 drivers/built-in.o
                0x0000000023eed15c                gstPnlCtxTbl
 .bss._gu32PnlDbgLevel
                0x0000000023eed16c        0x4 drivers/built-in.o
                0x0000000023eed16c                _gu32PnlDbgLevel
 .bss.gbHwIfInit
                0x0000000023eed170        0x1 drivers/built-in.o
                0x0000000023eed170                gbHwIfInit
 *fill*         0x0000000023eed171        0x3 
 .bss.gpPnlCbTbl
                0x0000000023eed174       0x90 drivers/built-in.o
                0x0000000023eed174                gpPnlCbTbl
 .bss.mmc_devices
                0x0000000023eed204        0x8 drivers/mmc/built-in.o
 .bss.mtd_idr   0x0000000023eed20c      0x200 drivers/mtd/built-in.o
 .bss.dev_name  0x0000000023eed40c        0x8 drivers/mtd/nand/built-in.o
 *fill*         0x0000000023eed414        0x4 
 .bss.nand_chip
                0x0000000023eed418      0x338 drivers/mtd/nand/built-in.o
 .bss.nand_info
                0x0000000023eed750       0xc8 drivers/mtd/nand/built-in.o
                0x0000000023eed750                nand_info
 .bss.total_nand_size
                0x0000000023eed818        0x4 drivers/mtd/nand/built-in.o
 .bss.ech       0x0000000023eed81c        0x4 drivers/mtd/ubi/built-in.o
 .bss.vidh      0x0000000023eed820        0x4 drivers/mtd/ubi/built-in.o
 .bss.mtd_dev_param
                0x0000000023eed824      0x980 drivers/mtd/ubi/built-in.o
 .bss.mtd_devs  0x0000000023eee1a4        0x4 drivers/mtd/ubi/built-in.o
 .bss.ubi_class
                0x0000000023eee1a8        0x4 drivers/mtd/ubi/built-in.o
                0x0000000023eee1a8                ubi_class
 .bss.ubi_devices
                0x0000000023eee1ac       0x80 drivers/mtd/ubi/built-in.o
                0x0000000023eee1ac                ubi_devices
 .bss.ubi_wl_entry_slab
                0x0000000023eee22c        0x4 drivers/mtd/ubi/built-in.o
                0x0000000023eee22c                ubi_wl_entry_slab
 .bss.empty_vtbl_record
                0x0000000023eee230       0xac drivers/mtd/ubi/built-in.o
 .bss.serial_current
                0x0000000023eee2dc        0x4 drivers/serial/built-in.o
 .bss.serial_devices
                0x0000000023eee2e0        0x4 drivers/serial/built-in.o
 .bss.fs_dev_desc
                0x0000000023eee2e4        0x4 fs/built-in.o
 .bss.fs_partition
                0x0000000023eee2e8       0x50 fs/built-in.o
 .bss.fs_type   0x0000000023eee338        0x4 fs/built-in.o
 .bss.cur_dev   0x0000000023eee33c        0x4 fs/built-in.o
 .bss.cur_part_info
                0x0000000023eee340       0x50 fs/built-in.o
 *fill*         0x0000000023eee390       0x30 
 .bss.do_fat_read_at_block
                0x0000000023eee3c0    0x10000 fs/built-in.o
                0x0000000023eee3c0                do_fat_read_at_block
 .bss.get_contents_vfatname_block
                0x0000000023efe3c0    0x10000 fs/built-in.o
                0x0000000023efe3c0                get_contents_vfatname_block
 .bss.get_dentfromdir_block
                0x0000000023f0e3c0    0x10000 fs/built-in.o
                0x0000000023f0e3c0                get_dentfromdir_block
 .bss.xz_crc32_table
                0x0000000023f1e3c0      0x400 lib/built-in.o
 .bss.s_xzdec   0x0000000023f1e7c0      0x4b0 lib/built-in.o
                0x0000000023f1e7c0                s_xzdec
 .bss.dic_buf_len
                0x0000000023f1ec70        0x4 lib/built-in.o
                0x0000000023f1ec70                dic_buf_len
 .bss.dict_buf  0x0000000023f1ec74        0x4 lib/built-in.o
                0x0000000023f1ec74                dict_buf
 .bss.s_lzma2   0x0000000023f1ec78     0x6f28 lib/built-in.o
                0x0000000023f1ec78                s_lzma2
 .bss.errno     0x0000000023f25ba0        0x4 lib/built-in.o
                0x0000000023f25ba0                errno
 .bss.local.6551
                0x0000000023f25ba4       0x16 lib/built-in.o
 .bss.NetArpPacketBuf
                0x0000000023f25bba      0x640 net/built-in.o
 *fill*         0x0000000023f261fa        0x2 
 .bss.NetArpTxPacket
                0x0000000023f261fc        0x4 net/built-in.o
 .bss.NetArpWaitPacketIP
                0x0000000023f26200        0x4 net/built-in.o
                0x0000000023f26200                NetArpWaitPacketIP
 .bss.NetArpWaitPacketMAC
                0x0000000023f26204        0x4 net/built-in.o
                0x0000000023f26204                NetArpWaitPacketMAC
 .bss.NetArpWaitReplyIP
                0x0000000023f26208        0x4 net/built-in.o
 .bss.NetArpWaitTimerStart
                0x0000000023f2620c        0x4 net/built-in.o
                0x0000000023f2620c                NetArpWaitTimerStart
 .bss.NetArpWaitTry
                0x0000000023f26210        0x4 net/built-in.o
                0x0000000023f26210                NetArpWaitTry
 .bss.NetArpWaitTxPacketSize
                0x0000000023f26214        0x4 net/built-in.o
                0x0000000023f26214                NetArpWaitTxPacketSize
 .bss.BootpTry  0x0000000023f26218        0x4 net/built-in.o
                0x0000000023f26218                BootpTry
 .bss.NetDHCPServerIP
                0x0000000023f2621c        0x4 net/built-in.o
 .bss.bootp_ids
                0x0000000023f26220       0x10 net/built-in.o
                0x0000000023f26220                bootp_ids
 .bss.bootp_num_ids
                0x0000000023f26230        0x4 net/built-in.o
                0x0000000023f26230                bootp_num_ids
 .bss.bootp_start
                0x0000000023f26234        0x4 net/built-in.o
                0x0000000023f26234                bootp_start
 .bss.bootp_timeout
                0x0000000023f26238        0x4 net/built-in.o
                0x0000000023f26238                bootp_timeout
 .bss.dhcp_leasetime
                0x0000000023f2623c        0x4 net/built-in.o
 .bss.dhcp_state
                0x0000000023f26240        0x4 net/built-in.o
 .bss.act.6831  0x0000000023f26244        0x4 net/built-in.o
 .bss.env_changed_id.6832
                0x0000000023f26248        0x4 net/built-in.o
 .bss.eth_current
                0x0000000023f2624c        0x4 net/built-in.o
                0x0000000023f2624c                eth_current
 .bss.eth_devices
                0x0000000023f26250        0x4 net/built-in.o
 .bss.first_failed.6826
                0x0000000023f26254        0x4 net/built-in.o
 .bss.index.6779
                0x0000000023f26258        0x4 net/built-in.o
 .bss.BootFile  0x0000000023f2625c       0x80 net/built-in.o
                0x0000000023f2625c                BootFile
 .bss.NetBootFileSize
                0x0000000023f262dc        0x2 net/built-in.o
                0x0000000023f262dc                NetBootFileSize
 *fill*         0x0000000023f262de        0x2 
 .bss.NetBootFileXferSize
                0x0000000023f262e0        0x4 net/built-in.o
                0x0000000023f262e0                NetBootFileXferSize
 .bss.NetDevExists
                0x0000000023f262e4        0x4 net/built-in.o
 .bss.NetEtherNullAddr
                0x0000000023f262e8        0x6 net/built-in.o
                0x0000000023f262e8                NetEtherNullAddr
 *fill*         0x0000000023f262ee        0x2 
 .bss.NetIPID   0x0000000023f262f0        0x4 net/built-in.o
                0x0000000023f262f0                NetIPID
 .bss.NetOurDNSIP
                0x0000000023f262f4        0x4 net/built-in.o
                0x0000000023f262f4                NetOurDNSIP
 .bss.NetOurEther
                0x0000000023f262f8        0x6 net/built-in.o
                0x0000000023f262f8                NetOurEther
 *fill*         0x0000000023f262fe        0x2 
 .bss.NetOurGatewayIP
                0x0000000023f26300        0x4 net/built-in.o
                0x0000000023f26300                NetOurGatewayIP
 .bss.NetOurHostName
                0x0000000023f26304       0x20 net/built-in.o
                0x0000000023f26304                NetOurHostName
 .bss.NetOurIP  0x0000000023f26324        0x4 net/built-in.o
                0x0000000023f26324                NetOurIP
 .bss.NetOurNISDomain
                0x0000000023f26328       0x20 net/built-in.o
                0x0000000023f26328                NetOurNISDomain
 .bss.NetOurRootPath
                0x0000000023f26348       0x40 net/built-in.o
                0x0000000023f26348                NetOurRootPath
 .bss.NetOurSubnetMask
                0x0000000023f26388        0x4 net/built-in.o
                0x0000000023f26388                NetOurSubnetMask
 .bss.NetRestartWrap
                0x0000000023f2638c        0x4 net/built-in.o
                0x0000000023f2638c                NetRestartWrap
 .bss.NetRestarted
                0x0000000023f26390        0x4 net/built-in.o
 .bss.NetRxPacket
                0x0000000023f26394        0x4 net/built-in.o
                0x0000000023f26394                NetRxPacket
 .bss.NetRxPacketLen
                0x0000000023f26398        0x4 net/built-in.o
                0x0000000023f26398                NetRxPacketLen
 .bss.NetRxPackets
                0x0000000023f2639c       0x10 net/built-in.o
                0x0000000023f2639c                NetRxPackets
 .bss.NetServerEther
                0x0000000023f263ac        0x6 net/built-in.o
                0x0000000023f263ac                NetServerEther
 *fill*         0x0000000023f263b2        0x2 
 .bss.NetServerIP
                0x0000000023f263b4        0x4 net/built-in.o
                0x0000000023f263b4                NetServerIP
 .bss.NetTryCount
                0x0000000023f263b8        0x4 net/built-in.o
 .bss.NetTxPacket
                0x0000000023f263bc        0x4 net/built-in.o
                0x0000000023f263bc                NetTxPacket
 .bss.PktBuf    0x0000000023f263c0     0x1e40 net/built-in.o
 .bss.arp_packet_handler
                0x0000000023f28200        0x4 net/built-in.o
 .bss.env_changed_id.6545
                0x0000000023f28204        0x4 net/built-in.o
 .bss.net_state
                0x0000000023f28208        0x4 net/built-in.o
                0x0000000023f28208                net_state
 .bss.packet_icmp_handler
                0x0000000023f2820c        0x4 net/built-in.o
 .bss.timeDelta
                0x0000000023f28210        0x4 net/built-in.o
 .bss.timeHandler
                0x0000000023f28214        0x4 net/built-in.o
 .bss.timeStart
                0x0000000023f28218        0x4 net/built-in.o
 .bss.udp_packet_handler
                0x0000000023f2821c        0x4 net/built-in.o
 .bss.NetPingIP
                0x0000000023f28220        0x4 net/built-in.o
                0x0000000023f28220                NetPingIP
 .bss.PingSeqNo
                0x0000000023f28224        0x2 net/built-in.o
 *fill*         0x0000000023f28226        0x2 
 .bss.TftpBlock
                0x0000000023f28228        0x4 net/built-in.o
 .bss.TftpBlockWrap
                0x0000000023f2822c        0x4 net/built-in.o
 .bss.TftpBlockWrapOffset
                0x0000000023f28230        0x4 net/built-in.o
 .bss.TftpFinalBlock
                0x0000000023f28234        0x4 net/built-in.o
 .bss.TftpLastBlock
                0x0000000023f28238        0x4 net/built-in.o
 .bss.TftpOurPort
                0x0000000023f2823c        0x4 net/built-in.o
 .bss.TftpRemoteIP
                0x0000000023f28240        0x4 net/built-in.o
 .bss.TftpRemotePort
                0x0000000023f28244        0x4 net/built-in.o
 .bss.TftpState
                0x0000000023f28248        0x4 net/built-in.o
 .bss.TftpTimeoutCount
                0x0000000023f2824c        0x4 net/built-in.o
 .bss.TftpWriting
                0x0000000023f28250        0x4 net/built-in.o
 .bss.default_filename
                0x0000000023f28254        0xd net/built-in.o
 .bss.tftp_filename
                0x0000000023f28261       0x80 net/built-in.o
 *fill*         0x0000000023f282e1        0x3 
 .bss.time_start
                0x0000000023f282e4        0x4 net/built-in.o
                0x0000000023f282e8                . = ALIGN (0x4)
                0x0000000023f282e8                __bss_limit = .

.bss_end        0x0000000023f282e8        0x0
 *(.__bss_end)
 .__bss_end     0x0000000023f282e8        0x0 arch/arm/lib/built-in.o
                0x0000000023f282e8                __bss_end

.dynsym         0x0000000023ea1498       0x30
 *(.dynsym)
 .dynsym        0x0000000023ea1498       0x30 arch/arm/cpu/armv7/start.o

.dynbss         0x0000000023ea14c8        0x0
 *(.dynbss)
 .dynbss        0x0000000023ea14c8        0x0 arch/arm/cpu/armv7/start.o

.dynstr         0x0000000023ea14c8        0x1
 *(.dynstr*)
 .dynstr        0x0000000023ea14c8        0x1 arch/arm/cpu/armv7/start.o

.dynamic        0x0000000023ea14cc       0x90
 *(.dynamic*)
 .dynamic       0x0000000023ea14cc       0x90 arch/arm/cpu/armv7/start.o
                0x0000000023ea14cc                _DYNAMIC

.plt            0x0000000023ea155c        0x0
 *(.plt*)
 .plt           0x0000000023ea155c        0x0 arch/arm/cpu/armv7/start.o

.interp         0x0000000023ea155c       0x11
 *(.interp*)
 .interp        0x0000000023ea155c       0x11 arch/arm/cpu/armv7/start.o

.gnu.hash       0x0000000023ea1570       0x18
 *(.gnu.hash)
 .gnu.hash      0x0000000023ea1570       0x18 arch/arm/cpu/armv7/start.o

.gnu            0x0000000023ea1588        0x0
 *(.gnu*)
 .gnu.version_d
                0x0000000023ea1588        0x0 arch/arm/cpu/armv7/start.o
 .gnu.version   0x0000000023ea1588        0x0 arch/arm/cpu/armv7/start.o
 .gnu.version_r
                0x0000000023ea1588        0x0 arch/arm/cpu/armv7/start.o

.ARM.exidx
 *(.ARM.exidx*)

.gnu.linkonce.armexidx
 *(.gnu.linkonce.armexidx.*)
LOAD arch/arm/cpu/armv7/start.o
START GROUP
LOAD arch/arm/cpu/built-in.o
LOAD arch/arm/cpu/armv7/built-in.o
LOAD arch/arm/lib/built-in.o
LOAD common/built-in.o
LOAD disk/built-in.o
LOAD drivers/built-in.o
LOAD drivers/dma/built-in.o
LOAD drivers/gpio/built-in.o
LOAD drivers/i2c/built-in.o
LOAD drivers/mmc/built-in.o
LOAD drivers/mtd/built-in.o
LOAD drivers/mtd/nand/built-in.o
LOAD drivers/mtd/onenand/built-in.o
LOAD drivers/mtd/spi/built-in.o
LOAD drivers/mtd/ubi/built-in.o
LOAD drivers/net/built-in.o
LOAD drivers/net/phy/built-in.o
LOAD drivers/pci/built-in.o
LOAD drivers/power/built-in.o
LOAD drivers/power/battery/built-in.o
LOAD drivers/power/fuel_gauge/built-in.o
LOAD drivers/power/mfd/built-in.o
LOAD drivers/power/pmic/built-in.o
LOAD drivers/serial/built-in.o
LOAD drivers/spi/built-in.o
LOAD drivers/usb/eth/built-in.o
LOAD drivers/usb/gadget/built-in.o
LOAD drivers/usb/host/built-in.o
LOAD drivers/usb/musb-new/built-in.o
LOAD drivers/usb/musb/built-in.o
LOAD drivers/usb/phy/built-in.o
LOAD drivers/usb/ulpi/built-in.o
LOAD fs/built-in.o
LOAD lib/built-in.o
LOAD net/built-in.o
LOAD test/built-in.o
LOAD test/dm/built-in.o
END GROUP
LOAD arch/arm/lib/eabi_compat.o
LOAD /home/industio/ssd20x/gcc-arm-8.2-2018.08-x86_64-arm-linux-gnueabihf/bin/../lib/gcc/arm-linux-gnueabihf/8.2.1/libgcc.a
OUTPUT(u-boot elf32-littlearm)

.ARM.attributes
                0x0000000000000000       0x2d
 .ARM.attributes
                0x0000000000000000       0x21 arch/arm/cpu/armv7/start.o
 .ARM.attributes
                0x0000000000000021       0x2f arch/arm/cpu/armv7/built-in.o
 .ARM.attributes
                0x0000000000000050       0x2d arch/arm/lib/built-in.o
 .ARM.attributes
                0x000000000000007d       0x31 common/built-in.o
 .ARM.attributes
                0x00000000000000ae       0x2d disk/built-in.o
 .ARM.attributes
                0x00000000000000db       0x31 drivers/built-in.o
 .ARM.attributes
                0x000000000000010c       0x2d drivers/i2c/built-in.o
 .ARM.attributes
                0x0000000000000139       0x2d drivers/mmc/built-in.o
 .ARM.attributes
                0x0000000000000166       0x2d drivers/mtd/built-in.o
 .ARM.attributes
                0x0000000000000193       0x31 drivers/mtd/nand/built-in.o
 .ARM.attributes
                0x00000000000001c4       0x2d drivers/mtd/ubi/built-in.o
 .ARM.attributes
                0x00000000000001f1       0x2d drivers/serial/built-in.o
 .ARM.attributes
                0x000000000000021e       0x2d fs/built-in.o
 .ARM.attributes
                0x000000000000024b       0x31 lib/built-in.o
 .ARM.attributes
                0x000000000000027c       0x2d net/built-in.o
 .ARM.attributes
                0x00000000000002a9       0x2d arch/arm/lib/eabi_compat.o
 .ARM.attributes
                0x00000000000002d6       0x23 /home/industio/ssd20x/gcc-arm-8.2-2018.08-x86_64-arm-linux-gnueabihf/bin/../lib/gcc/arm-linux-gnueabihf/8.2.1/libgcc.a(_udivsi3.o)
 .ARM.attributes
                0x00000000000002f9       0x23 /home/industio/ssd20x/gcc-arm-8.2-2018.08-x86_64-arm-linux-gnueabihf/bin/../lib/gcc/arm-linux-gnueabihf/8.2.1/libgcc.a(_divsi3.o)
 .ARM.attributes
                0x000000000000031c       0x23 /home/industio/ssd20x/gcc-arm-8.2-2018.08-x86_64-arm-linux-gnueabihf/bin/../lib/gcc/arm-linux-gnueabihf/8.2.1/libgcc.a(_arm_addsubdf3.o)
 .ARM.attributes
                0x000000000000033f       0x23 /home/industio/ssd20x/gcc-arm-8.2-2018.08-x86_64-arm-linux-gnueabihf/bin/../lib/gcc/arm-linux-gnueabihf/8.2.1/libgcc.a(_arm_muldivdf3.o)
 .ARM.attributes
                0x0000000000000362       0x23 /home/industio/ssd20x/gcc-arm-8.2-2018.08-x86_64-arm-linux-gnueabihf/bin/../lib/gcc/arm-linux-gnueabihf/8.2.1/libgcc.a(_arm_truncdfsf2.o)
 .ARM.attributes
                0x0000000000000385       0x23 /home/industio/ssd20x/gcc-arm-8.2-2018.08-x86_64-arm-linux-gnueabihf/bin/../lib/gcc/arm-linux-gnueabihf/8.2.1/libgcc.a(_arm_addsubsf3.o)
 .ARM.attributes
                0x00000000000003a8       0x23 /home/industio/ssd20x/gcc-arm-8.2-2018.08-x86_64-arm-linux-gnueabihf/bin/../lib/gcc/arm-linux-gnueabihf/8.2.1/libgcc.a(_arm_muldivsf3.o)
 .ARM.attributes
                0x00000000000003cb       0x23 /home/industio/ssd20x/gcc-arm-8.2-2018.08-x86_64-arm-linux-gnueabihf/bin/../lib/gcc/arm-linux-gnueabihf/8.2.1/libgcc.a(_arm_fixsfsi.o)
 .ARM.attributes
                0x00000000000003ee       0x23 /home/industio/ssd20x/gcc-arm-8.2-2018.08-x86_64-arm-linux-gnueabihf/bin/../lib/gcc/arm-linux-gnueabihf/8.2.1/libgcc.a(_arm_fixunssfsi.o)
 .ARM.attributes
                0x0000000000000411       0x23 /home/industio/ssd20x/gcc-arm-8.2-2018.08-x86_64-arm-linux-gnueabihf/bin/../lib/gcc/arm-linux-gnueabihf/8.2.1/libgcc.a(_dvmd_lnx.o)

.comment        0x0000000000000000       0x5e
 .comment       0x0000000000000000       0x5e arch/arm/cpu/armv7/built-in.o
                                        0x23a (size before relaxing)
 .comment       0x000000000000005e      0x23a arch/arm/lib/built-in.o
 .comment       0x000000000000005e     0x14c8 common/built-in.o
 .comment       0x000000000000005e       0xbe disk/built-in.o
 .comment       0x000000000000005e     0x2049 drivers/built-in.o
 .comment       0x000000000000005e       0x5f drivers/i2c/built-in.o
 .comment       0x000000000000005e       0xbe drivers/mmc/built-in.o
 .comment       0x000000000000005e       0xbe drivers/mtd/built-in.o
 .comment       0x000000000000005e      0x23a drivers/mtd/nand/built-in.o
 .comment       0x000000000000005e      0x474 drivers/mtd/ubi/built-in.o
 .comment       0x000000000000005e       0x5f drivers/serial/built-in.o
 .comment       0x000000000000005e      0x11d fs/built-in.o
 .comment       0x000000000000005e      0xac3 lib/built-in.o
 .comment       0x000000000000005e      0x23a net/built-in.o
 .comment       0x000000000000005e       0x5f arch/arm/lib/eabi_compat.o

.note.GNU-stack
                0x0000000000000000        0x0
 .note.GNU-stack
                0x0000000000000000        0x0 arch/arm/cpu/armv7/built-in.o
 .note.GNU-stack
                0x0000000000000000        0x0 arch/arm/lib/built-in.o
 .note.GNU-stack
                0x0000000000000000        0x0 common/built-in.o
 .note.GNU-stack
                0x0000000000000000        0x0 disk/built-in.o
 .note.GNU-stack
                0x0000000000000000        0x0 drivers/built-in.o
 .note.GNU-stack
                0x0000000000000000        0x0 drivers/i2c/built-in.o
 .note.GNU-stack
                0x0000000000000000        0x0 drivers/mmc/built-in.o
 .note.GNU-stack
                0x0000000000000000        0x0 drivers/mtd/built-in.o
 .note.GNU-stack
                0x0000000000000000        0x0 drivers/mtd/nand/built-in.o
 .note.GNU-stack
                0x0000000000000000        0x0 drivers/mtd/ubi/built-in.o
 .note.GNU-stack
                0x0000000000000000        0x0 drivers/serial/built-in.o
 .note.GNU-stack
                0x0000000000000000        0x0 fs/built-in.o
 .note.GNU-stack
                0x0000000000000000        0x0 lib/built-in.o
 .note.GNU-stack
                0x0000000000000000        0x0 net/built-in.o
 .note.GNU-stack
                0x0000000000000000        0x0 arch/arm/lib/eabi_compat.o
 .note.GNU-stack
                0x0000000000000000        0x0 /home/industio/ssd20x/gcc-arm-8.2-2018.08-x86_64-arm-linux-gnueabihf/bin/../lib/gcc/arm-linux-gnueabihf/8.2.1/libgcc.a(_udivsi3.o)
 .note.GNU-stack
                0x0000000000000000        0x0 /home/industio/ssd20x/gcc-arm-8.2-2018.08-x86_64-arm-linux-gnueabihf/bin/../lib/gcc/arm-linux-gnueabihf/8.2.1/libgcc.a(_divsi3.o)
 .note.GNU-stack
                0x0000000000000000        0x0 /home/industio/ssd20x/gcc-arm-8.2-2018.08-x86_64-arm-linux-gnueabihf/bin/../lib/gcc/arm-linux-gnueabihf/8.2.1/libgcc.a(_arm_addsubdf3.o)
 .note.GNU-stack
                0x0000000000000000        0x0 /home/industio/ssd20x/gcc-arm-8.2-2018.08-x86_64-arm-linux-gnueabihf/bin/../lib/gcc/arm-linux-gnueabihf/8.2.1/libgcc.a(_arm_muldivdf3.o)
 .note.GNU-stack
                0x0000000000000000        0x0 /home/industio/ssd20x/gcc-arm-8.2-2018.08-x86_64-arm-linux-gnueabihf/bin/../lib/gcc/arm-linux-gnueabihf/8.2.1/libgcc.a(_arm_truncdfsf2.o)
 .note.GNU-stack
                0x0000000000000000        0x0 /home/industio/ssd20x/gcc-arm-8.2-2018.08-x86_64-arm-linux-gnueabihf/bin/../lib/gcc/arm-linux-gnueabihf/8.2.1/libgcc.a(_arm_addsubsf3.o)
 .note.GNU-stack
                0x0000000000000000        0x0 /home/industio/ssd20x/gcc-arm-8.2-2018.08-x86_64-arm-linux-gnueabihf/bin/../lib/gcc/arm-linux-gnueabihf/8.2.1/libgcc.a(_arm_muldivsf3.o)
 .note.GNU-stack
                0x0000000000000000        0x0 /home/industio/ssd20x/gcc-arm-8.2-2018.08-x86_64-arm-linux-gnueabihf/bin/../lib/gcc/arm-linux-gnueabihf/8.2.1/libgcc.a(_arm_fixsfsi.o)
 .note.GNU-stack
                0x0000000000000000        0x0 /home/industio/ssd20x/gcc-arm-8.2-2018.08-x86_64-arm-linux-gnueabihf/bin/../lib/gcc/arm-linux-gnueabihf/8.2.1/libgcc.a(_arm_fixunssfsi.o)
 .note.GNU-stack
                0x0000000000000000        0x0 /home/industio/ssd20x/gcc-arm-8.2-2018.08-x86_64-arm-linux-gnueabihf/bin/../lib/gcc/arm-linux-gnueabihf/8.2.1/libgcc.a(_dvmd_lnx.o)

.debug_line     0x0000000000000000    0x8d1fa
 .debug_line    0x0000000000000000       0x7a arch/arm/cpu/armv7/start.o
 .debug_line    0x000000000000007a      0xf4d arch/arm/cpu/armv7/built-in.o
 .debug_line    0x0000000000000fc7     0x10e1 arch/arm/lib/built-in.o
 .debug_line    0x00000000000020a8    0x1a447 common/built-in.o
 .debug_line    0x000000000001c4ef      0xe7b disk/built-in.o
 .debug_line    0x000000000001d36a    0x46105 drivers/built-in.o
 .debug_line    0x000000000006346f      0x45f drivers/i2c/built-in.o
 .debug_line    0x00000000000638ce     0x22d2 drivers/mmc/built-in.o
 .debug_line    0x0000000000065ba0     0x1e4d drivers/mtd/built-in.o
 .debug_line    0x00000000000679ed     0x6560 drivers/mtd/nand/built-in.o
 .debug_line    0x000000000006df4d     0xb52e drivers/mtd/ubi/built-in.o
 .debug_line    0x000000000007947b      0x5dd drivers/serial/built-in.o
 .debug_line    0x0000000000079a58     0x29e2 fs/built-in.o
 .debug_line    0x000000000007c43a     0xc4fc lib/built-in.o
 .debug_line    0x0000000000088936     0x3c5d net/built-in.o
 .debug_line    0x000000000008c593      0x182 arch/arm/lib/eabi_compat.o
 .debug_line    0x000000000008c715       0xca /home/industio/ssd20x/gcc-arm-8.2-2018.08-x86_64-arm-linux-gnueabihf/bin/../lib/gcc/arm-linux-gnueabihf/8.2.1/libgcc.a(_udivsi3.o)
 .debug_line    0x000000000008c7df       0xd6 /home/industio/ssd20x/gcc-arm-8.2-2018.08-x86_64-arm-linux-gnueabihf/bin/../lib/gcc/arm-linux-gnueabihf/8.2.1/libgcc.a(_divsi3.o)
 .debug_line    0x000000000008c8b5      0x1af /home/industio/ssd20x/gcc-arm-8.2-2018.08-x86_64-arm-linux-gnueabihf/bin/../lib/gcc/arm-linux-gnueabihf/8.2.1/libgcc.a(_arm_addsubdf3.o)
 .debug_line    0x000000000008ca64      0x1ce /home/industio/ssd20x/gcc-arm-8.2-2018.08-x86_64-arm-linux-gnueabihf/bin/../lib/gcc/arm-linux-gnueabihf/8.2.1/libgcc.a(_arm_muldivdf3.o)
 .debug_line    0x000000000008cc32       0xd5 /home/industio/ssd20x/gcc-arm-8.2-2018.08-x86_64-arm-linux-gnueabihf/bin/../lib/gcc/arm-linux-gnueabihf/8.2.1/libgcc.a(_arm_truncdfsf2.o)
 .debug_line    0x000000000008cd07      0x14c /home/industio/ssd20x/gcc-arm-8.2-2018.08-x86_64-arm-linux-gnueabihf/bin/../lib/gcc/arm-linux-gnueabihf/8.2.1/libgcc.a(_arm_addsubsf3.o)
 .debug_line    0x000000000008ce53      0x16f /home/industio/ssd20x/gcc-arm-8.2-2018.08-x86_64-arm-linux-gnueabihf/bin/../lib/gcc/arm-linux-gnueabihf/8.2.1/libgcc.a(_arm_muldivsf3.o)
 .debug_line    0x000000000008cfc2       0xc4 /home/industio/ssd20x/gcc-arm-8.2-2018.08-x86_64-arm-linux-gnueabihf/bin/../lib/gcc/arm-linux-gnueabihf/8.2.1/libgcc.a(_arm_fixsfsi.o)
 .debug_line    0x000000000008d086       0xc2 /home/industio/ssd20x/gcc-arm-8.2-2018.08-x86_64-arm-linux-gnueabihf/bin/../lib/gcc/arm-linux-gnueabihf/8.2.1/libgcc.a(_arm_fixunssfsi.o)
 .debug_line    0x000000000008d148       0xb2 /home/industio/ssd20x/gcc-arm-8.2-2018.08-x86_64-arm-linux-gnueabihf/bin/../lib/gcc/arm-linux-gnueabihf/8.2.1/libgcc.a(_dvmd_lnx.o)

.debug_info     0x0000000000000000   0x1b2c30
 .debug_info    0x0000000000000000       0x26 arch/arm/cpu/armv7/start.o
 .debug_info    0x0000000000000026     0x56bc arch/arm/cpu/armv7/built-in.o
 .debug_info    0x00000000000056e2     0x578b arch/arm/lib/built-in.o
 .debug_info    0x000000000000ae6d    0x6adeb common/built-in.o
 .debug_info    0x0000000000075c58     0x333b disk/built-in.o
 .debug_info    0x0000000000078f93    0xc0e93 drivers/built-in.o
 .debug_info    0x0000000000139e26     0x16cc drivers/i2c/built-in.o
 .debug_info    0x000000000013b4f2     0x4fe4 drivers/mmc/built-in.o
 .debug_info    0x00000000001404d6     0x64c3 drivers/mtd/built-in.o
 .debug_info    0x0000000000146999    0x141c1 drivers/mtd/nand/built-in.o
 .debug_info    0x000000000015ab5a    0x28fce drivers/mtd/ubi/built-in.o
 .debug_info    0x0000000000183b28     0x18f4 drivers/serial/built-in.o
 .debug_info    0x000000000018541c     0x72ce fs/built-in.o
 .debug_info    0x000000000018c6ea    0x19cb2 lib/built-in.o
 .debug_info    0x00000000001a639c     0xbb8a net/built-in.o
 .debug_info    0x00000000001b1f26      0xb8e arch/arm/lib/eabi_compat.o
 .debug_info    0x00000000001b2ab4       0x26 /home/industio/ssd20x/gcc-arm-8.2-2018.08-x86_64-arm-linux-gnueabihf/bin/../lib/gcc/arm-linux-gnueabihf/8.2.1/libgcc.a(_udivsi3.o)
 .debug_info    0x00000000001b2ada       0x26 /home/industio/ssd20x/gcc-arm-8.2-2018.08-x86_64-arm-linux-gnueabihf/bin/../lib/gcc/arm-linux-gnueabihf/8.2.1/libgcc.a(_divsi3.o)
 .debug_info    0x00000000001b2b00       0x26 /home/industio/ssd20x/gcc-arm-8.2-2018.08-x86_64-arm-linux-gnueabihf/bin/../lib/gcc/arm-linux-gnueabihf/8.2.1/libgcc.a(_arm_addsubdf3.o)
 .debug_info    0x00000000001b2b26       0x26 /home/industio/ssd20x/gcc-arm-8.2-2018.08-x86_64-arm-linux-gnueabihf/bin/../lib/gcc/arm-linux-gnueabihf/8.2.1/libgcc.a(_arm_muldivdf3.o)
 .debug_info    0x00000000001b2b4c       0x26 /home/industio/ssd20x/gcc-arm-8.2-2018.08-x86_64-arm-linux-gnueabihf/bin/../lib/gcc/arm-linux-gnueabihf/8.2.1/libgcc.a(_arm_truncdfsf2.o)
 .debug_info    0x00000000001b2b72       0x26 /home/industio/ssd20x/gcc-arm-8.2-2018.08-x86_64-arm-linux-gnueabihf/bin/../lib/gcc/arm-linux-gnueabihf/8.2.1/libgcc.a(_arm_addsubsf3.o)
 .debug_info    0x00000000001b2b98       0x26 /home/industio/ssd20x/gcc-arm-8.2-2018.08-x86_64-arm-linux-gnueabihf/bin/../lib/gcc/arm-linux-gnueabihf/8.2.1/libgcc.a(_arm_muldivsf3.o)
 .debug_info    0x00000000001b2bbe       0x26 /home/industio/ssd20x/gcc-arm-8.2-2018.08-x86_64-arm-linux-gnueabihf/bin/../lib/gcc/arm-linux-gnueabihf/8.2.1/libgcc.a(_arm_fixsfsi.o)
 .debug_info    0x00000000001b2be4       0x26 /home/industio/ssd20x/gcc-arm-8.2-2018.08-x86_64-arm-linux-gnueabihf/bin/../lib/gcc/arm-linux-gnueabihf/8.2.1/libgcc.a(_arm_fixunssfsi.o)
 .debug_info    0x00000000001b2c0a       0x26 /home/industio/ssd20x/gcc-arm-8.2-2018.08-x86_64-arm-linux-gnueabihf/bin/../lib/gcc/arm-linux-gnueabihf/8.2.1/libgcc.a(_dvmd_lnx.o)

.debug_abbrev   0x0000000000000000    0x339e6
 .debug_abbrev  0x0000000000000000       0x14 arch/arm/cpu/armv7/start.o
 .debug_abbrev  0x0000000000000014     0x11f0 arch/arm/cpu/armv7/built-in.o
 .debug_abbrev  0x0000000000001204     0x1067 arch/arm/lib/built-in.o
 .debug_abbrev  0x000000000000226b     0xdf49 common/built-in.o
 .debug_abbrev  0x00000000000101b4      0x958 disk/built-in.o
 .debug_abbrev  0x0000000000010b0c    0x1341b drivers/built-in.o
 .debug_abbrev  0x0000000000023f27      0x4b5 drivers/i2c/built-in.o
 .debug_abbrev  0x00000000000243dc      0xada drivers/mmc/built-in.o
 .debug_abbrev  0x0000000000024eb6      0xc6d drivers/mtd/built-in.o
 .debug_abbrev  0x0000000000025b23     0x1b3c drivers/mtd/nand/built-in.o
 .debug_abbrev  0x000000000002765f     0x4362 drivers/mtd/ubi/built-in.o
 .debug_abbrev  0x000000000002b9c1      0x4b7 drivers/serial/built-in.o
 .debug_abbrev  0x000000000002be78      0xf06 fs/built-in.o
 .debug_abbrev  0x000000000002cd7e     0x4bcc lib/built-in.o
 .debug_abbrev  0x000000000003194a     0x1d4f net/built-in.o
 .debug_abbrev  0x0000000000033699      0x285 arch/arm/lib/eabi_compat.o
 .debug_abbrev  0x000000000003391e       0x14 /home/industio/ssd20x/gcc-arm-8.2-2018.08-x86_64-arm-linux-gnueabihf/bin/../lib/gcc/arm-linux-gnueabihf/8.2.1/libgcc.a(_udivsi3.o)
 .debug_abbrev  0x0000000000033932       0x14 /home/industio/ssd20x/gcc-arm-8.2-2018.08-x86_64-arm-linux-gnueabihf/bin/../lib/gcc/arm-linux-gnueabihf/8.2.1/libgcc.a(_divsi3.o)
 .debug_abbrev  0x0000000000033946       0x14 /home/industio/ssd20x/gcc-arm-8.2-2018.08-x86_64-arm-linux-gnueabihf/bin/../lib/gcc/arm-linux-gnueabihf/8.2.1/libgcc.a(_arm_addsubdf3.o)
 .debug_abbrev  0x000000000003395a       0x14 /home/industio/ssd20x/gcc-arm-8.2-2018.08-x86_64-arm-linux-gnueabihf/bin/../lib/gcc/arm-linux-gnueabihf/8.2.1/libgcc.a(_arm_muldivdf3.o)
 .debug_abbrev  0x000000000003396e       0x14 /home/industio/ssd20x/gcc-arm-8.2-2018.08-x86_64-arm-linux-gnueabihf/bin/../lib/gcc/arm-linux-gnueabihf/8.2.1/libgcc.a(_arm_truncdfsf2.o)
 .debug_abbrev  0x0000000000033982       0x14 /home/industio/ssd20x/gcc-arm-8.2-2018.08-x86_64-arm-linux-gnueabihf/bin/../lib/gcc/arm-linux-gnueabihf/8.2.1/libgcc.a(_arm_addsubsf3.o)
 .debug_abbrev  0x0000000000033996       0x14 /home/industio/ssd20x/gcc-arm-8.2-2018.08-x86_64-arm-linux-gnueabihf/bin/../lib/gcc/arm-linux-gnueabihf/8.2.1/libgcc.a(_arm_muldivsf3.o)
 .debug_abbrev  0x00000000000339aa       0x14 /home/industio/ssd20x/gcc-arm-8.2-2018.08-x86_64-arm-linux-gnueabihf/bin/../lib/gcc/arm-linux-gnueabihf/8.2.1/libgcc.a(_arm_fixsfsi.o)
 .debug_abbrev  0x00000000000339be       0x14 /home/industio/ssd20x/gcc-arm-8.2-2018.08-x86_64-arm-linux-gnueabihf/bin/../lib/gcc/arm-linux-gnueabihf/8.2.1/libgcc.a(_arm_fixunssfsi.o)
 .debug_abbrev  0x00000000000339d2       0x14 /home/industio/ssd20x/gcc-arm-8.2-2018.08-x86_64-arm-linux-gnueabihf/bin/../lib/gcc/arm-linux-gnueabihf/8.2.1/libgcc.a(_dvmd_lnx.o)

.debug_aranges  0x0000000000000000     0x6c58
 .debug_aranges
                0x0000000000000000       0x20 arch/arm/cpu/armv7/start.o
 .debug_aranges
                0x0000000000000020      0x1b0 arch/arm/cpu/armv7/built-in.o
 .debug_aranges
                0x00000000000001d0      0x218 arch/arm/lib/built-in.o
 .debug_aranges
                0x00000000000003e8     0x14b0 common/built-in.o
 .debug_aranges
                0x0000000000001898       0xa0 disk/built-in.o
 .debug_aranges
                0x0000000000001938     0x38e0 drivers/built-in.o
 .debug_aranges
                0x0000000000005218       0x90 drivers/i2c/built-in.o
 .debug_aranges
                0x00000000000052a8      0x160 drivers/mmc/built-in.o
 .debug_aranges
                0x0000000000005408      0x1e0 drivers/mtd/built-in.o
 .debug_aranges
                0x00000000000055e8      0x330 drivers/mtd/nand/built-in.o
 .debug_aranges
                0x0000000000005918      0x510 drivers/mtd/ubi/built-in.o
 .debug_aranges
                0x0000000000005e28       0xc0 drivers/serial/built-in.o
 .debug_aranges
                0x0000000000005ee8      0x1e0 fs/built-in.o
 .debug_aranges
                0x00000000000060c8      0x758 lib/built-in.o
 .debug_aranges
                0x0000000000006820      0x2c0 net/built-in.o
 .debug_aranges
                0x0000000000006ae0       0x38 arch/arm/lib/eabi_compat.o
 .debug_aranges
                0x0000000000006b18       0x20 /home/industio/ssd20x/gcc-arm-8.2-2018.08-x86_64-arm-linux-gnueabihf/bin/../lib/gcc/arm-linux-gnueabihf/8.2.1/libgcc.a(_udivsi3.o)
 .debug_aranges
                0x0000000000006b38       0x20 /home/industio/ssd20x/gcc-arm-8.2-2018.08-x86_64-arm-linux-gnueabihf/bin/../lib/gcc/arm-linux-gnueabihf/8.2.1/libgcc.a(_divsi3.o)
 .debug_aranges
                0x0000000000006b58       0x20 /home/industio/ssd20x/gcc-arm-8.2-2018.08-x86_64-arm-linux-gnueabihf/bin/../lib/gcc/arm-linux-gnueabihf/8.2.1/libgcc.a(_arm_addsubdf3.o)
 .debug_aranges
                0x0000000000006b78       0x20 /home/industio/ssd20x/gcc-arm-8.2-2018.08-x86_64-arm-linux-gnueabihf/bin/../lib/gcc/arm-linux-gnueabihf/8.2.1/libgcc.a(_arm_muldivdf3.o)
 .debug_aranges
                0x0000000000006b98       0x20 /home/industio/ssd20x/gcc-arm-8.2-2018.08-x86_64-arm-linux-gnueabihf/bin/../lib/gcc/arm-linux-gnueabihf/8.2.1/libgcc.a(_arm_truncdfsf2.o)
 .debug_aranges
                0x0000000000006bb8       0x20 /home/industio/ssd20x/gcc-arm-8.2-2018.08-x86_64-arm-linux-gnueabihf/bin/../lib/gcc/arm-linux-gnueabihf/8.2.1/libgcc.a(_arm_addsubsf3.o)
 .debug_aranges
                0x0000000000006bd8       0x20 /home/industio/ssd20x/gcc-arm-8.2-2018.08-x86_64-arm-linux-gnueabihf/bin/../lib/gcc/arm-linux-gnueabihf/8.2.1/libgcc.a(_arm_muldivsf3.o)
 .debug_aranges
                0x0000000000006bf8       0x20 /home/industio/ssd20x/gcc-arm-8.2-2018.08-x86_64-arm-linux-gnueabihf/bin/../lib/gcc/arm-linux-gnueabihf/8.2.1/libgcc.a(_arm_fixsfsi.o)
 .debug_aranges
                0x0000000000006c18       0x20 /home/industio/ssd20x/gcc-arm-8.2-2018.08-x86_64-arm-linux-gnueabihf/bin/../lib/gcc/arm-linux-gnueabihf/8.2.1/libgcc.a(_arm_fixunssfsi.o)
 .debug_aranges
                0x0000000000006c38       0x20 /home/industio/ssd20x/gcc-arm-8.2-2018.08-x86_64-arm-linux-gnueabihf/bin/../lib/gcc/arm-linux-gnueabihf/8.2.1/libgcc.a(_dvmd_lnx.o)

.debug_str      0x0000000000000000    0x2b333
 .debug_str     0x0000000000000000       0x44 arch/arm/cpu/armv7/start.o
 .debug_str     0x0000000000000044      0xfb6 arch/arm/cpu/armv7/built-in.o
                                       0x3d09 (size before relaxing)
 .debug_str     0x0000000000000ffa     0x10c4 arch/arm/lib/built-in.o
                                       0x4126 (size before relaxing)
 .debug_str     0x00000000000020be     0xb0d7 common/built-in.o
                                      0x3a63f (size before relaxing)
 .debug_str     0x000000000000d195      0x259 disk/built-in.o
                                       0x1724 (size before relaxing)
 .debug_str     0x000000000000d3ee    0x181f2 drivers/built-in.o
                                      0x785f4 (size before relaxing)
 .debug_str     0x00000000000255e0       0x5a drivers/i2c/built-in.o
                                        0xafa (size before relaxing)
 .debug_str     0x000000000002563a      0x3bf drivers/mmc/built-in.o
                                       0x1bf7 (size before relaxing)
 .debug_str     0x00000000000259f9      0x446 drivers/mtd/built-in.o
                                       0x2c60 (size before relaxing)
 .debug_str     0x0000000000025e3f      0xdb5 drivers/mtd/nand/built-in.o
                                       0x8215 (size before relaxing)
 .debug_str     0x0000000000026bf4     0x1447 drivers/mtd/ubi/built-in.o
                                      0x10390 (size before relaxing)
 .debug_str     0x000000000002803b      0x127 drivers/serial/built-in.o
                                        0xd18 (size before relaxing)
 .debug_str     0x0000000000028162      0x9f6 fs/built-in.o
                                       0x2a79 (size before relaxing)
 .debug_str     0x0000000000028b58     0x174e lib/built-in.o
                                       0xdd6c (size before relaxing)
 .debug_str     0x000000000002a2a6      0xe0b net/built-in.o
                                       0x688d (size before relaxing)
 .debug_str     0x000000000002b0b1       0x74 arch/arm/lib/eabi_compat.o
                                        0x8a2 (size before relaxing)
 .debug_str     0x000000000002b125      0x112 /home/industio/ssd20x/gcc-arm-8.2-2018.08-x86_64-arm-linux-gnueabihf/bin/../lib/gcc/arm-linux-gnueabihf/8.2.1/libgcc.a(_udivsi3.o)
                                        0x120 (size before relaxing)
 .debug_str     0x000000000002b237      0x120 /home/industio/ssd20x/gcc-arm-8.2-2018.08-x86_64-arm-linux-gnueabihf/bin/../lib/gcc/arm-linux-gnueabihf/8.2.1/libgcc.a(_divsi3.o)
 .debug_str     0x000000000002b237       0x7e /home/industio/ssd20x/gcc-arm-8.2-2018.08-x86_64-arm-linux-gnueabihf/bin/../lib/gcc/arm-linux-gnueabihf/8.2.1/libgcc.a(_arm_addsubdf3.o)
                                        0x121 (size before relaxing)
 .debug_str     0x000000000002b2b5      0x121 /home/industio/ssd20x/gcc-arm-8.2-2018.08-x86_64-arm-linux-gnueabihf/bin/../lib/gcc/arm-linux-gnueabihf/8.2.1/libgcc.a(_arm_muldivdf3.o)
 .debug_str     0x000000000002b2b5      0x121 /home/industio/ssd20x/gcc-arm-8.2-2018.08-x86_64-arm-linux-gnueabihf/bin/../lib/gcc/arm-linux-gnueabihf/8.2.1/libgcc.a(_arm_truncdfsf2.o)
 .debug_str     0x000000000002b2b5       0x7e /home/industio/ssd20x/gcc-arm-8.2-2018.08-x86_64-arm-linux-gnueabihf/bin/../lib/gcc/arm-linux-gnueabihf/8.2.1/libgcc.a(_arm_addsubsf3.o)
                                        0x121 (size before relaxing)
 .debug_str     0x000000000002b333      0x121 /home/industio/ssd20x/gcc-arm-8.2-2018.08-x86_64-arm-linux-gnueabihf/bin/../lib/gcc/arm-linux-gnueabihf/8.2.1/libgcc.a(_arm_muldivsf3.o)
 .debug_str     0x000000000002b333      0x121 /home/industio/ssd20x/gcc-arm-8.2-2018.08-x86_64-arm-linux-gnueabihf/bin/../lib/gcc/arm-linux-gnueabihf/8.2.1/libgcc.a(_arm_fixsfsi.o)
 .debug_str     0x000000000002b333      0x121 /home/industio/ssd20x/gcc-arm-8.2-2018.08-x86_64-arm-linux-gnueabihf/bin/../lib/gcc/arm-linux-gnueabihf/8.2.1/libgcc.a(_arm_fixunssfsi.o)
 .debug_str     0x000000000002b333      0x120 /home/industio/ssd20x/gcc-arm-8.2-2018.08-x86_64-arm-linux-gnueabihf/bin/../lib/gcc/arm-linux-gnueabihf/8.2.1/libgcc.a(_dvmd_lnx.o)

.debug_frame    0x0000000000000000    0x1401c
 .debug_frame   0x0000000000000000      0x37c arch/arm/cpu/armv7/built-in.o
 .debug_frame   0x000000000000037c      0x384 arch/arm/lib/built-in.o
 .debug_frame   0x0000000000000700     0x3d64 common/built-in.o
 .debug_frame   0x0000000000004464      0x218 disk/built-in.o
 .debug_frame   0x000000000000467c     0xa984 drivers/built-in.o
 .debug_frame   0x000000000000f000      0x18c drivers/i2c/built-in.o
 .debug_frame   0x000000000000f18c      0x4b8 drivers/mmc/built-in.o
 .debug_frame   0x000000000000f644      0x6d4 drivers/mtd/built-in.o
 .debug_frame   0x000000000000fd18      0xbdc drivers/mtd/nand/built-in.o
 .debug_frame   0x00000000000108f4     0x1184 drivers/mtd/ubi/built-in.o
 .debug_frame   0x0000000000011a78      0x204 drivers/serial/built-in.o
 .debug_frame   0x0000000000011c7c      0x69c fs/built-in.o
 .debug_frame   0x0000000000012318     0x11e8 lib/built-in.o
 .debug_frame   0x0000000000013500      0x860 net/built-in.o
 .debug_frame   0x0000000000013d60       0x68 arch/arm/lib/eabi_compat.o
 .debug_frame   0x0000000000013dc8       0x20 /home/industio/ssd20x/gcc-arm-8.2-2018.08-x86_64-arm-linux-gnueabihf/bin/../lib/gcc/arm-linux-gnueabihf/8.2.1/libgcc.a(_udivsi3.o)
 .debug_frame   0x0000000000013de8       0x20 /home/industio/ssd20x/gcc-arm-8.2-2018.08-x86_64-arm-linux-gnueabihf/bin/../lib/gcc/arm-linux-gnueabihf/8.2.1/libgcc.a(_divsi3.o)
 .debug_frame   0x0000000000013e08       0xac /home/industio/ssd20x/gcc-arm-8.2-2018.08-x86_64-arm-linux-gnueabihf/bin/../lib/gcc/arm-linux-gnueabihf/8.2.1/libgcc.a(_arm_addsubdf3.o)
 .debug_frame   0x0000000000013eb4       0x50 /home/industio/ssd20x/gcc-arm-8.2-2018.08-x86_64-arm-linux-gnueabihf/bin/../lib/gcc/arm-linux-gnueabihf/8.2.1/libgcc.a(_arm_muldivdf3.o)
 .debug_frame   0x0000000000013f04       0x24 /home/industio/ssd20x/gcc-arm-8.2-2018.08-x86_64-arm-linux-gnueabihf/bin/../lib/gcc/arm-linux-gnueabihf/8.2.1/libgcc.a(_arm_truncdfsf2.o)
 .debug_frame   0x0000000000013f28       0x4c /home/industio/ssd20x/gcc-arm-8.2-2018.08-x86_64-arm-linux-gnueabihf/bin/../lib/gcc/arm-linux-gnueabihf/8.2.1/libgcc.a(_arm_addsubsf3.o)
 .debug_frame   0x0000000000013f74       0x38 /home/industio/ssd20x/gcc-arm-8.2-2018.08-x86_64-arm-linux-gnueabihf/bin/../lib/gcc/arm-linux-gnueabihf/8.2.1/libgcc.a(_arm_muldivsf3.o)
 .debug_frame   0x0000000000013fac       0x24 /home/industio/ssd20x/gcc-arm-8.2-2018.08-x86_64-arm-linux-gnueabihf/bin/../lib/gcc/arm-linux-gnueabihf/8.2.1/libgcc.a(_arm_fixsfsi.o)
 .debug_frame   0x0000000000013fd0       0x24 /home/industio/ssd20x/gcc-arm-8.2-2018.08-x86_64-arm-linux-gnueabihf/bin/../lib/gcc/arm-linux-gnueabihf/8.2.1/libgcc.a(_arm_fixunssfsi.o)
 .debug_frame   0x0000000000013ff4       0x28 /home/industio/ssd20x/gcc-arm-8.2-2018.08-x86_64-arm-linux-gnueabihf/bin/../lib/gcc/arm-linux-gnueabihf/8.2.1/libgcc.a(_dvmd_lnx.o)

.debug_loc      0x0000000000000000    0xc4c20
 .debug_loc     0x0000000000000000      0xb50 arch/arm/cpu/armv7/built-in.o
 .debug_loc     0x0000000000000b50      0xa05 arch/arm/lib/built-in.o
 .debug_loc     0x0000000000001555    0x26128 common/built-in.o
 .debug_loc     0x000000000002767d     0x13f2 disk/built-in.o
 .debug_loc     0x0000000000028a6f    0x5e2c6 drivers/built-in.o
 .debug_loc     0x0000000000086d35      0x5cd drivers/i2c/built-in.o
 .debug_loc     0x0000000000087302     0x254c drivers/mmc/built-in.o
 .debug_loc     0x000000000008984e     0x2c58 drivers/mtd/built-in.o
 .debug_loc     0x000000000008c4a6     0xb98e drivers/mtd/nand/built-in.o
 .debug_loc     0x0000000000097e34    0x10cf7 drivers/mtd/ubi/built-in.o
 .debug_loc     0x00000000000a8b2b      0x672 drivers/serial/built-in.o
 .debug_loc     0x00000000000a919d     0x4cbb fs/built-in.o
 .debug_loc     0x00000000000ade58    0x122ee lib/built-in.o
 .debug_loc     0x00000000000c0146     0x49b0 net/built-in.o
 .debug_loc     0x00000000000c4af6      0x12a arch/arm/lib/eabi_compat.o

.debug_ranges   0x0000000000000000     0xf430
 .debug_ranges  0x0000000000000000      0x288 arch/arm/cpu/armv7/built-in.o
 .debug_ranges  0x0000000000000288      0x2f0 arch/arm/lib/built-in.o
 .debug_ranges  0x0000000000000578     0x3060 common/built-in.o
 .debug_ranges  0x00000000000035d8      0x1a0 disk/built-in.o
 .debug_ranges  0x0000000000003778     0x5aa8 drivers/built-in.o
 .debug_ranges  0x0000000000009220       0x98 drivers/i2c/built-in.o
 .debug_ranges  0x00000000000092b8      0x4e8 drivers/mmc/built-in.o
 .debug_ranges  0x00000000000097a0      0x458 drivers/mtd/built-in.o
 .debug_ranges  0x0000000000009bf8      0xc70 drivers/mtd/nand/built-in.o
 .debug_ranges  0x000000000000a868     0x1f90 drivers/mtd/ubi/built-in.o
 .debug_ranges  0x000000000000c7f8       0xd0 drivers/serial/built-in.o
 .debug_ranges  0x000000000000c8c8      0x548 fs/built-in.o
 .debug_ranges  0x000000000000ce10     0x1b48 lib/built-in.o
 .debug_ranges  0x000000000000e958      0xab0 net/built-in.o
 .debug_ranges  0x000000000000f408       0x28 arch/arm/lib/eabi_compat.o
